---
triple:          'arm64-apple-darwin'
binary-path:     a.out
relocations:
  - { offsetInCU: 0x3B, offset: 0x3B, size: 0x8, addend: 0x0, symName: _.str, symObjAddr: 0x16120, symBinAddr: 0x1000B46C0, symSize: 0x0 }
  - { offsetInCU: 0x6B, offset: 0x6B, size: 0x8, addend: 0x0, symName: _.str.1, symObjAddr: 0x16160, symBinAddr: 0x1000B4700, symSize: 0x0 }
  - { offsetInCU: 0x88, offset: 0x88, size: 0x8, addend: 0x0, symName: _.str.2, symObjAddr: 0x161A0, symBinAddr: 0x1000B4740, symSize: 0x0 }
  - { offsetInCU: 0xA5, offset: 0xA5, size: 0x8, addend: 0x0, symName: _.str.3, symObjAddr: 0x161E0, symBinAddr: 0x1000B4780, symSize: 0x0 }
  - { offsetInCU: 0xC2, offset: 0xC2, size: 0x8, addend: 0x0, symName: _.str.4, symObjAddr: 0x16220, symBinAddr: 0x1000B47C0, symSize: 0x0 }
  - { offsetInCU: 0xDF, offset: 0xDF, size: 0x8, addend: 0x0, symName: _.str.5, symObjAddr: 0x16240, symBinAddr: 0x1000B47E0, symSize: 0x0 }
  - { offsetInCU: 0xFC, offset: 0xFC, size: 0x8, addend: 0x0, symName: _.str.6, symObjAddr: 0x16260, symBinAddr: 0x1000B4800, symSize: 0x0 }
  - { offsetInCU: 0x10E, offset: 0x10E, size: 0x8, addend: 0x0, symName: _.str.7, symObjAddr: 0x16280, symBinAddr: 0x1000B4820, symSize: 0x0 }
  - { offsetInCU: 0x1582F, offset: 0x1582F, size: 0x8, addend: 0x0, symName: __ZNSt3__17advanceB8ue170006IPKP4NodellvEEvRT_T0_, symObjAddr: 0x54EC, symBinAddr: 0x100008464, symSize: 0x38 }
  - { offsetInCU: 0x15B95, offset: 0x15B95, size: 0x8, addend: 0x0, symName: __ZNSt3__124__put_character_sequenceB8ue170006IcNS_11char_traitsIcEEEERNS_13basic_ostreamIT_T0_EES7_PKS4_m, symObjAddr: 0xDB34, symBinAddr: 0x100010AAC, symSize: 0x744 }
  - { offsetInCU: 0x16C4B, offset: 0x16C4B, size: 0x8, addend: 0x0, symName: __ZNSt3__1lsB8ue170006INS_11char_traitsIcEEEERNS_13basic_ostreamIcT_EES6_PKc, symObjAddr: 0x121C, symBinAddr: 0x100004194, symSize: 0x48 }
  - { offsetInCU: 0x16C91, offset: 0x16C91, size: 0x8, addend: 0x0, symName: __ZNSt3__14endlB8ue170006IcNS_11char_traitsIcEEEERNS_13basic_ostreamIT_T0_EES7_, symObjAddr: 0x1290, symBinAddr: 0x100004208, symSize: 0xD4 }
  - { offsetInCU: 0x16CD1, offset: 0x16CD1, size: 0x8, addend: 0x0, symName: __ZNSt3__112__to_addressB8ue170006IP4NodeEEPT_S4_, symObjAddr: 0x2E7C, symBinAddr: 0x100005DF4, symSize: 0x14 }
  - { offsetInCU: 0x16D06, offset: 0x16D06, size: 0x8, addend: 0x0, symName: __ZNSt3__119__libcpp_deallocateB8ue170006EPvmm, symObjAddr: 0x2FAC, symBinAddr: 0x100005F24, symSize: 0x60 }
  - { offsetInCU: 0x16D6B, offset: 0x16D6B, size: 0x8, addend: 0x0, symName: __ZNSt3__124__is_overaligned_for_newB8ue170006Em, symObjAddr: 0x300C, symBinAddr: 0x100005F84, symSize: 0x20 }
  - { offsetInCU: 0x16D99, offset: 0x16D99, size: 0x8, addend: 0x0, symName: __ZNSt3__127__do_deallocate_handle_sizeB8ue170006IJSt11align_val_tEEEvPvmDpT_, symObjAddr: 0x302C, symBinAddr: 0x100005FA4, symSize: 0x30 }
  - { offsetInCU: 0x16DEC, offset: 0x16DEC, size: 0x8, addend: 0x0, symName: __ZNSt3__127__do_deallocate_handle_sizeB8ue170006IJEEEvPvmDpT_, symObjAddr: 0x305C, symBinAddr: 0x100005FD4, symSize: 0x28 }
  - { offsetInCU: 0x16E2A, offset: 0x16E2A, size: 0x8, addend: 0x0, symName: __ZNSt3__124__libcpp_operator_deleteB8ue170006IJPvSt11align_val_tEEEvDpT_, symObjAddr: 0x3084, symBinAddr: 0x100005FFC, symSize: 0x2C }
  - { offsetInCU: 0x16E73, offset: 0x16E73, size: 0x8, addend: 0x0, symName: __ZNSt3__124__libcpp_operator_deleteB8ue170006IJPvEEEvDpT_, symObjAddr: 0x30B0, symBinAddr: 0x100006028, symSize: 0x24 }
  - { offsetInCU: 0x16EA8, offset: 0x16EA8, size: 0x8, addend: 0x0, symName: __ZNSt3__112__to_addressB8ue170006IP4EdgeEEPT_S4_, symObjAddr: 0x39B8, symBinAddr: 0x100006930, symSize: 0x14 }
  - { offsetInCU: 0x16EDD, offset: 0x16EDD, size: 0x8, addend: 0x0, symName: __ZNSt3__18distanceB8ue170006IPKP4NodeEENS_15iterator_traitsIT_E15difference_typeES6_S6_, symObjAddr: 0x40EC, symBinAddr: 0x100007064, symSize: 0x2C }
  - { offsetInCU: 0x16F20, offset: 0x16F20, size: 0x8, addend: 0x0, symName: __ZNSt3__14nextB8ue170006IPKP4NodeEENS_9enable_ifIXsr29__has_input_iterator_categoryIT_EE5valueES6_E4typeES6_NS_15iterator_traitsIS6_E15difference_typeE, symObjAddr: 0x4118, symBinAddr: 0x100007090, symSize: 0x238 }
  - { offsetInCU: 0x16F68, offset: 0x16F68, size: 0x8, addend: 0x0, symName: __ZNSt3__14copyB8ue170006IPKP4NodePS2_EET0_T_S7_S6_, symObjAddr: 0x4350, symBinAddr: 0x1000072C8, symSize: 0x26C }
  - { offsetInCU: 0x16FC5, offset: 0x16FC5, size: 0x8, addend: 0x0, symName: __ZNSt3__16__copyB8ue170006INS_17_ClassicAlgPolicyEPKP4NodeS5_PS3_EENS_4pairIT0_T2_EES8_T1_S9_, symObjAddr: 0x493C, symBinAddr: 0x1000078B4, symSize: 0x22C }
  - { offsetInCU: 0x17034, offset: 0x17034, size: 0x8, addend: 0x0, symName: __ZNSt3__121__convert_to_integralB8ue170006El, symObjAddr: 0x5524, symBinAddr: 0x10000849C, symSize: 0x14 }
  - { offsetInCU: 0x17060, offset: 0x17060, size: 0x8, addend: 0x0, symName: __ZNSt3__19__advanceB8ue170006IPKP4NodeEEvRT_NS_15iterator_traitsIS5_E15difference_typeENS_26random_access_iterator_tagE, symObjAddr: 0x5538, symBinAddr: 0x1000084B0, symSize: 0x78 }
  - { offsetInCU: 0x170A9, offset: 0x170A9, size: 0x8, addend: 0x0, symName: __ZNSt3__130__uninitialized_allocator_copyB8ue170006INS_9allocatorIP4NodeEEPKS3_S6_PS3_EET2_RT_T0_T1_S8_, symObjAddr: 0x55EC, symBinAddr: 0x100008564, symSize: 0x2DC }
  - { offsetInCU: 0x1714F, offset: 0x1714F, size: 0x8, addend: 0x0, symName: __ZNSt3__114__unwrap_rangeB8ue170006IPKP4NodeS4_EENS_4pairIT0_S6_EET_S8_, symObjAddr: 0x5B9C, symBinAddr: 0x100008B14, symSize: 0x350 }
  - { offsetInCU: 0x1719D, offset: 0x1719D, size: 0x8, addend: 0x0, symName: __ZNSt3__135__uninitialized_allocator_copy_implB8ue170006INS_9allocatorIP4NodeEEKS3_S3_S3_LPv0EEEPT2_RT_PT0_SC_S8_, symObjAddr: 0x5EEC, symBinAddr: 0x100008E64, symSize: 0x38 }
  - { offsetInCU: 0x1721E, offset: 0x1721E, size: 0x8, addend: 0x0, symName: __ZNSt3__113__unwrap_iterB8ue170006IPP4NodeNS_18__unwrap_iter_implIS3_Lb1EEELi0EEEDTclsrT0_8__unwrapclsr3stdE7declvalIT_EEEES7_, symObjAddr: 0x5F24, symBinAddr: 0x100008E9C, symSize: 0x24 }
  - { offsetInCU: 0x17262, offset: 0x17262, size: 0x8, addend: 0x0, symName: __ZNSt3__113__rewrap_iterB8ue170006IPP4NodeS3_NS_18__unwrap_iter_implIS3_Lb1EEEEET_S6_T0_, symObjAddr: 0x5F48, symBinAddr: 0x100008EC0, symSize: 0x48 }
  - { offsetInCU: 0x172B7, offset: 0x172B7, size: 0x8, addend: 0x0, symName: __ZNSt3__19make_pairB8ue170006IPKP4NodeS4_EENS_4pairINS_18__unwrap_ref_decayIT_E4typeENS6_IT0_E4typeEEEOS7_OSA_, symObjAddr: 0x5F90, symBinAddr: 0x100008F08, symSize: 0x20C }
  - { offsetInCU: 0x17308, offset: 0x17308, size: 0x8, addend: 0x0, symName: __ZNSt3__113__unwrap_iterB8ue170006IPKP4NodeNS_18__unwrap_iter_implIS4_Lb1EEELi0EEEDTclsrT0_8__unwrapclsr3stdE7declvalIT_EEEES8_, symObjAddr: 0x619C, symBinAddr: 0x100009114, symSize: 0x24 }
  - { offsetInCU: 0x17473, offset: 0x17473, size: 0x8, addend: 0x0, symName: __ZNSt3__112__to_addressB8ue170006IKP4NodeEEPT_S5_, symObjAddr: 0x6358, symBinAddr: 0x1000092D0, symSize: 0x14 }
  - { offsetInCU: 0x174FB, offset: 0x174FB, size: 0x8, addend: 0x0, symName: __ZNSt3__123__dispatch_copy_or_moveB8ue170006INS_17_ClassicAlgPolicyENS_11__copy_loopIS1_EENS_14__copy_trivialEPKP4NodeS8_PS6_EENS_4pairIT2_T4_EESB_T3_SC_, symObjAddr: 0x6720, symBinAddr: 0x100009698, symSize: 0x22C }
  - { offsetInCU: 0x1757C, offset: 0x1757C, size: 0x8, addend: 0x0, symName: __ZNSt3__121__unwrap_and_dispatchB8ue170006INS_10__overloadINS_11__copy_loopINS_17_ClassicAlgPolicyEEENS_14__copy_trivialEEEPKP4NodeSA_PS8_Li0EEENS_4pairIT0_T2_EESD_T1_SE_, symObjAddr: 0x694C, symBinAddr: 0x1000098C4, symSize: 0x5A4 }
  - { offsetInCU: 0x1775E, offset: 0x1775E, size: 0x8, addend: 0x0, symName: __ZNSt3__19make_pairB8ue170006IPKP4NodePS2_EENS_4pairINS_18__unwrap_ref_decayIT_E4typeENS7_IT0_E4typeEEEOS8_OSB_, symObjAddr: 0x7120, symBinAddr: 0x10000A098, symSize: 0x20C }
  - { offsetInCU: 0x177AF, offset: 0x177AF, size: 0x8, addend: 0x0, symName: __ZNSt3__114__rewrap_rangeB8ue170006IPKP4NodeS4_EET_S5_T0_, symObjAddr: 0x732C, symBinAddr: 0x10000A2A4, symSize: 0x2C }
  - { offsetInCU: 0x177FB, offset: 0x177FB, size: 0x8, addend: 0x0, symName: __ZNSt3__119__copy_trivial_implB8ue170006IKP4NodeS2_EENS_4pairIPT_PT0_EES6_S6_S8_, symObjAddr: 0x7358, symBinAddr: 0x10000A2D0, symSize: 0x3B4 }
  - { offsetInCU: 0x1786A, offset: 0x1786A, size: 0x8, addend: 0x0, symName: __ZNSt3__119__constexpr_memmoveB8ue170006IP4NodeKS2_Li0EEEPT_S5_PT0_NS_15__element_countE, symObjAddr: 0x770C, symBinAddr: 0x10000A684, symSize: 0x64 }
  - { offsetInCU: 0x178D8, offset: 0x178D8, size: 0x8, addend: 0x0, symName: __ZNSt3__19make_pairB8ue170006IRPKP4NodePS2_EENS_4pairINS_18__unwrap_ref_decayIT_E4typeENS8_IT0_E4typeEEEOS9_OSC_, symObjAddr: 0x7770, symBinAddr: 0x10000A6E8, symSize: 0x20C }
  - { offsetInCU: 0x17929, offset: 0x17929, size: 0x8, addend: 0x0, symName: __ZNSt3__113__rewrap_iterB8ue170006IPKP4NodeS4_NS_18__unwrap_iter_implIS4_Lb1EEEEET_S7_T0_, symObjAddr: 0x7C64, symBinAddr: 0x10000ABDC, symSize: 0x48 }
  - { offsetInCU: 0x1797E, offset: 0x1797E, size: 0x8, addend: 0x0, symName: __ZNSt3__119__allocate_at_leastB8ue170006INS_9allocatorIP4NodeEEEENS_19__allocation_resultINS_16allocator_traitsIT_E7pointerEEERS7_m, symObjAddr: 0x80BC, symBinAddr: 0x10000B034, symSize: 0x28C }
  - { offsetInCU: 0x179C3, offset: 0x179C3, size: 0x8, addend: 0x0, symName: __ZNSt3__13minB8ue170006ImEERKT_S3_S3_, symObjAddr: 0x8408, symBinAddr: 0x10000B380, symSize: 0x2C }
  - { offsetInCU: 0x17BF0, offset: 0x17BF0, size: 0x8, addend: 0x0, symName: __ZNSt3__13minB8ue170006ImNS_6__lessIvvEEEERKT_S5_S5_T0_, symObjAddr: 0x8494, symBinAddr: 0x10000B40C, symSize: 0x1E8 }
  - { offsetInCU: 0x17C95, offset: 0x17C95, size: 0x8, addend: 0x0, symName: __ZNSt3__120__throw_length_errorB8ue170006EPKc, symObjAddr: 0x878C, symBinAddr: 0x10000B704, symSize: 0x68 }
  - { offsetInCU: 0x17CBF, offset: 0x17CBF, size: 0x8, addend: 0x0, symName: __ZNSt3__117__libcpp_allocateB8ue170006Emm, symObjAddr: 0x8948, symBinAddr: 0x10000B8C0, symSize: 0x60 }
  - { offsetInCU: 0x17D19, offset: 0x17D19, size: 0x8, addend: 0x0, symName: __ZNSt3__121__libcpp_operator_newB8ue170006IJmSt11align_val_tEEEPvDpT_, symObjAddr: 0x89A8, symBinAddr: 0x10000B920, symSize: 0x2C }
  - { offsetInCU: 0x17D66, offset: 0x17D66, size: 0x8, addend: 0x0, symName: __ZNSt3__121__libcpp_operator_newB8ue170006IJmEEEPvDpT_, symObjAddr: 0x89D4, symBinAddr: 0x10000B94C, symSize: 0x24 }
  - { offsetInCU: 0x17D9F, offset: 0x17D9F, size: 0x8, addend: 0x0, symName: __ZNSt3__13maxB8ue170006ImEERKT_S3_S3_, symObjAddr: 0x89F8, symBinAddr: 0x10000B970, symSize: 0x2C }
  - { offsetInCU: 0x17DE2, offset: 0x17DE2, size: 0x8, addend: 0x0, symName: __ZNSt3__13maxB8ue170006ImNS_6__lessIvvEEEERKT_S5_S5_T0_, symObjAddr: 0x8A24, symBinAddr: 0x10000B99C, symSize: 0x1E8 }
  - { offsetInCU: 0x17E42, offset: 0x17E42, size: 0x8, addend: 0x0, symName: __ZNSt3__110__distanceB8ue170006IPKP4NodeEENS_15iterator_traitsIT_E15difference_typeES6_S6_NS_26random_access_iterator_tagE, symObjAddr: 0x8C0C, symBinAddr: 0x10000BB84, symSize: 0x28 }
  - { offsetInCU: 0x17E8F, offset: 0x17E8F, size: 0x8, addend: 0x0, symName: __ZNSt3__119__allocate_at_leastB8ue170006INS_9allocatorIP4EdgeEEEENS_19__allocation_resultINS_16allocator_traitsIT_E7pointerEEERS7_m, symObjAddr: 0x9B20, symBinAddr: 0x10000CA98, symSize: 0x28C }
  - { offsetInCU: 0x17ED4, offset: 0x17ED4, size: 0x8, addend: 0x0, symName: __ZNSt3__142__uninitialized_allocator_move_if_noexceptB8ue170006INS_9allocatorIP4EdgeEENS_16reverse_iteratorIPS3_EES7_S3_vEET1_RT_T0_SB_S8_, symObjAddr: 0x9FD0, symBinAddr: 0x10000CF48, symSize: 0x4A8 }
  - { offsetInCU: 0x17F5E, offset: 0x17F5E, size: 0x8, addend: 0x0, symName: __ZNSt3__14swapB8ue170006IPP4EdgeEENS_9enable_ifIXaasr21is_move_constructibleIT_EE5valuesr18is_move_assignableIS5_EE5valueEvE4typeERS5_S8_, symObjAddr: 0xA510, symBinAddr: 0x10000D488, symSize: 0x134 }
  - { offsetInCU: 0x17FAF, offset: 0x17FAF, size: 0x8, addend: 0x0, symName: __ZNSt3__14moveB8ue170006INS_16reverse_iteratorIPP4EdgeEES5_EET0_T_S7_S6_, symObjAddr: 0xA72C, symBinAddr: 0x10000D6A4, symSize: 0x4B0 }
  - { offsetInCU: 0x18016, offset: 0x18016, size: 0x8, addend: 0x0, symName: __ZNSt3__16__moveB8ue170006INS_17_ClassicAlgPolicyENS_16reverse_iteratorIPP4EdgeEES6_S6_EENS_4pairIT0_T2_EES8_T1_S9_, symObjAddr: 0xABDC, symBinAddr: 0x10000DB54, symSize: 0x424 }
  - { offsetInCU: 0x1808E, offset: 0x1808E, size: 0x8, addend: 0x0, symName: __ZNSt3__123__dispatch_copy_or_moveB8ue170006INS_17_ClassicAlgPolicyENS_11__move_loopIS1_EENS_14__move_trivialENS_16reverse_iteratorIPP4EdgeEES9_S9_EENS_4pairIT2_T4_EESB_T3_SC_, symObjAddr: 0xB000, symBinAddr: 0x10000DF78, symSize: 0x424 }
  - { offsetInCU: 0x18118, offset: 0x18118, size: 0x8, addend: 0x0, symName: __ZNSt3__121__unwrap_and_dispatchB8ue170006INS_10__overloadINS_11__move_loopINS_17_ClassicAlgPolicyEEENS_14__move_trivialEEENS_16reverse_iteratorIPP4EdgeEESB_SB_Li0EEENS_4pairIT0_T2_EESD_T1_SE_, symObjAddr: 0xB424, symBinAddr: 0x10000E39C, symSize: 0x880 }
  - { offsetInCU: 0x181BC, offset: 0x181BC, size: 0x8, addend: 0x0, symName: __ZNSt3__114__unwrap_rangeB8ue170006INS_16reverse_iteratorIPP4EdgeEES5_EENS_4pairIT0_S7_EET_S9_, symObjAddr: 0xBCA4, symBinAddr: 0x10000EC1C, symSize: 0x448 }
  - { offsetInCU: 0x1837E, offset: 0x1837E, size: 0x8, addend: 0x0, symName: __ZNSt3__113__unwrap_iterB8ue170006INS_16reverse_iteratorIPP4EdgeEENS_18__unwrap_iter_implIS5_Lb0EEELi0EEEDTclsrT0_8__unwrapclsr3stdE7declvalIT_EEEES9_, symObjAddr: 0xC494, symBinAddr: 0x10000F40C, symSize: 0x2EC }
  - { offsetInCU: 0x183C6, offset: 0x183C6, size: 0x8, addend: 0x0, symName: __ZNSt3__19make_pairB8ue170006INS_16reverse_iteratorIPP4EdgeEES5_EENS_4pairINS_18__unwrap_ref_decayIT_E4typeENS7_IT0_E4typeEEEOS8_OSB_, symObjAddr: 0xC780, symBinAddr: 0x10000F6F8, symSize: 0x38 }
  - { offsetInCU: 0x18415, offset: 0x18415, size: 0x8, addend: 0x0, symName: __ZNSt3__114__rewrap_rangeB8ue170006INS_16reverse_iteratorIPP4EdgeEES5_EET_S6_T0_, symObjAddr: 0xC7B8, symBinAddr: 0x10000F730, symSize: 0x3D4 }
  - { offsetInCU: 0x18469, offset: 0x18469, size: 0x8, addend: 0x0, symName: __ZNSt3__113__rewrap_iterB8ue170006INS_16reverse_iteratorIPP4EdgeEES5_NS_18__unwrap_iter_implIS5_Lb0EEEEET_S8_T0_, symObjAddr: 0xCB8C, symBinAddr: 0x10000FB04, symSize: 0x3E8 }
  - { offsetInCU: 0x184C6, offset: 0x184C6, size: 0x8, addend: 0x0, symName: __ZNSt3__1neB8ue170006IPP4EdgeS3_EEbRKNS_16reverse_iteratorIT_EERKNS4_IT0_EE, symObjAddr: 0xCF74, symBinAddr: 0x10000FEEC, symSize: 0x48 }
  - { offsetInCU: 0x185F7, offset: 0x185F7, size: 0x8, addend: 0x0, symName: __ZNSt3__116__pad_and_outputB8ue170006IcNS_11char_traitsIcEEEENS_19ostreambuf_iteratorIT_T0_EES6_PKS4_S8_S8_RNS_8ios_baseES4_, symObjAddr: 0xE340, symBinAddr: 0x1000112B8, symSize: 0x760 }
  - { offsetInCU: 0x186D4, offset: 0x186D4, size: 0x8, addend: 0x0, symName: __ZNSt3__112__to_addressB8ue170006IcEEPT_S2_, symObjAddr: 0xF2D4, symBinAddr: 0x10001224C, symSize: 0x14 }
  - { offsetInCU: 0x1873C, offset: 0x1873C, size: 0x8, addend: 0x0, symName: __ZNSt3__19use_facetB8ue170006INS_5ctypeIcEEEERKT_RKNS_6localeE, symObjAddr: 0xF960, symBinAddr: 0x1000128D8, symSize: 0x2C }
  - { offsetInCU: 0x18C09, offset: 0x18C09, size: 0x8, addend: 0x0, symName: __ZNSt3__118__constexpr_strlenB8ue170006EPKc, symObjAddr: 0xFAE4, symBinAddr: 0x100012A5C, symSize: 0x24 }
  - { offsetInCU: 0x18C35, offset: 0x18C35, size: 0x8, addend: 0x0, symName: __ZNSt3__142__uninitialized_allocator_move_if_noexceptB8ue170006INS_9allocatorIP4NodeEENS_16reverse_iteratorIPS3_EES7_S3_vEET1_RT_T0_SB_S8_, symObjAddr: 0x121F0, symBinAddr: 0x100015168, symSize: 0x4A8 }
  - { offsetInCU: 0x18CBF, offset: 0x18CBF, size: 0x8, addend: 0x0, symName: __ZNSt3__14swapB8ue170006IPP4NodeEENS_9enable_ifIXaasr21is_move_constructibleIT_EE5valuesr18is_move_assignableIS5_EE5valueEvE4typeERS5_S8_, symObjAddr: 0x12730, symBinAddr: 0x1000156A8, symSize: 0x134 }
  - { offsetInCU: 0x18D10, offset: 0x18D10, size: 0x8, addend: 0x0, symName: __ZNSt3__14moveB8ue170006INS_16reverse_iteratorIPP4NodeEES5_EET0_T_S7_S6_, symObjAddr: 0x12864, symBinAddr: 0x1000157DC, symSize: 0x4B0 }
  - { offsetInCU: 0x18D77, offset: 0x18D77, size: 0x8, addend: 0x0, symName: __ZNSt3__16__moveB8ue170006INS_17_ClassicAlgPolicyENS_16reverse_iteratorIPP4NodeEES6_S6_EENS_4pairIT0_T2_EES8_T1_S9_, symObjAddr: 0x12D14, symBinAddr: 0x100015C8C, symSize: 0x424 }
  - { offsetInCU: 0x18DEF, offset: 0x18DEF, size: 0x8, addend: 0x0, symName: __ZNSt3__123__dispatch_copy_or_moveB8ue170006INS_17_ClassicAlgPolicyENS_11__move_loopIS1_EENS_14__move_trivialENS_16reverse_iteratorIPP4NodeEES9_S9_EENS_4pairIT2_T4_EESB_T3_SC_, symObjAddr: 0x13138, symBinAddr: 0x1000160B0, symSize: 0x424 }
  - { offsetInCU: 0x18E79, offset: 0x18E79, size: 0x8, addend: 0x0, symName: __ZNSt3__121__unwrap_and_dispatchB8ue170006INS_10__overloadINS_11__move_loopINS_17_ClassicAlgPolicyEEENS_14__move_trivialEEENS_16reverse_iteratorIPP4NodeEESB_SB_Li0EEENS_4pairIT0_T2_EESD_T1_SE_, symObjAddr: 0x1355C, symBinAddr: 0x1000164D4, symSize: 0x880 }
  - { offsetInCU: 0x18F1D, offset: 0x18F1D, size: 0x8, addend: 0x0, symName: __ZNSt3__114__unwrap_rangeB8ue170006INS_16reverse_iteratorIPP4NodeEES5_EENS_4pairIT0_S7_EET_S9_, symObjAddr: 0x13DDC, symBinAddr: 0x100016D54, symSize: 0x448 }
  - { offsetInCU: 0x19045, offset: 0x19045, size: 0x8, addend: 0x0, symName: __ZNSt3__113__unwrap_iterB8ue170006INS_16reverse_iteratorIPP4NodeEENS_18__unwrap_iter_implIS5_Lb0EEELi0EEEDTclsrT0_8__unwrapclsr3stdE7declvalIT_EEEES9_, symObjAddr: 0x145CC, symBinAddr: 0x100017544, symSize: 0x2EC }
  - { offsetInCU: 0x1908D, offset: 0x1908D, size: 0x8, addend: 0x0, symName: __ZNSt3__19make_pairB8ue170006INS_16reverse_iteratorIPP4NodeEES5_EENS_4pairINS_18__unwrap_ref_decayIT_E4typeENS7_IT0_E4typeEEEOS8_OSB_, symObjAddr: 0x148B8, symBinAddr: 0x100017830, symSize: 0x38 }
  - { offsetInCU: 0x190DC, offset: 0x190DC, size: 0x8, addend: 0x0, symName: __ZNSt3__114__rewrap_rangeB8ue170006INS_16reverse_iteratorIPP4NodeEES5_EET_S6_T0_, symObjAddr: 0x148F0, symBinAddr: 0x100017868, symSize: 0x3D4 }
  - { offsetInCU: 0x19130, offset: 0x19130, size: 0x8, addend: 0x0, symName: __ZNSt3__113__rewrap_iterB8ue170006INS_16reverse_iteratorIPP4NodeEES5_NS_18__unwrap_iter_implIS5_Lb0EEEEET_S8_T0_, symObjAddr: 0x14CC4, symBinAddr: 0x100017C3C, symSize: 0x3E8 }
  - { offsetInCU: 0x1918D, offset: 0x1918D, size: 0x8, addend: 0x0, symName: __ZNSt3__1neB8ue170006IPP4NodeS3_EEbRKNS_16reverse_iteratorIT_EERKNS4_IT0_EE, symObjAddr: 0x150AC, symBinAddr: 0x100018024, symSize: 0x48 }
  - { offsetInCU: 0x19864, offset: 0x19864, size: 0x8, addend: 0x0, symName: __ZSt28__throw_bad_array_new_lengthB8ue170006v, symObjAddr: 0x8910, symBinAddr: 0x10000B888, symSize: 0x38 }
  - { offsetInCU: 0x1B505, offset: 0x1B505, size: 0x8, addend: 0x0, symName: __ZNSt3__16vectorIP4EdgeNS_9allocatorIS2_EEE26__swap_out_circular_bufferERNS_14__split_bufferIS2_RS4_EE, symObjAddr: 0x8F94, symBinAddr: 0x10000BF0C, symSize: 0x56C }
  - { offsetInCU: 0x1B57C, offset: 0x1B57C, size: 0x8, addend: 0x0, symName: __ZNSt3__16vectorIP4NodeNS_9allocatorIS2_EEE26__swap_out_circular_bufferERNS_14__split_bufferIS2_RS4_EE, symObjAddr: 0x11548, symBinAddr: 0x1000144C0, symSize: 0x56C }
  - { offsetInCU: 0x1D6F3, offset: 0x1D6F3, size: 0x8, addend: 0x0, symName: __ZN6CliqueC2Ev, symObjAddr: 0x0, symBinAddr: 0x100002F78, symSize: 0x3C }
  - { offsetInCU: 0x1D71F, offset: 0x1D71F, size: 0x8, addend: 0x0, symName: __ZNSt3__16vectorIP4NodeNS_9allocatorIS2_EEEC1B8ue170006Ev, symObjAddr: 0x3C, symBinAddr: 0x100002FB4, symSize: 0x2C }
  - { offsetInCU: 0x1D749, offset: 0x1D749, size: 0x8, addend: 0x0, symName: __ZNSt3__16vectorIP4EdgeNS_9allocatorIS2_EEEC1B8ue170006Ev, symObjAddr: 0x68, symBinAddr: 0x100002FE0, symSize: 0x2C }
  - { offsetInCU: 0x1D773, offset: 0x1D773, size: 0x8, addend: 0x0, symName: __ZN6CliqueC1Ev, symObjAddr: 0x94, symBinAddr: 0x10000300C, symSize: 0x2C }
  - { offsetInCU: 0x1D79F, offset: 0x1D79F, size: 0x8, addend: 0x0, symName: __ZN6CliqueC2EP4EdgeRK5GraphRm, symObjAddr: 0xC0, symBinAddr: 0x100003038, symSize: 0x378 }
  - { offsetInCU: 0x1D7F9, offset: 0x1D7F9, size: 0x8, addend: 0x0, symName: __ZNSt16initializer_listIP4NodeEC1B8ue170006Ev, symObjAddr: 0x438, symBinAddr: 0x1000033B0, symSize: 0x2C }
  - { offsetInCU: 0x1D823, offset: 0x1D823, size: 0x8, addend: 0x0, symName: __ZNSt3__16vectorIP4NodeNS_9allocatorIS2_EEEaSB8ue170006ESt16initializer_listIS2_E, symObjAddr: 0x464, symBinAddr: 0x1000033DC, symSize: 0x22C }
  - { offsetInCU: 0x1D85D, offset: 0x1D85D, size: 0x8, addend: 0x0, symName: __ZN6Clique8add_nodeEP4NodeRK5GraphRm, symObjAddr: 0x690, symBinAddr: 0x100003608, symSize: 0x5C0 }
  - { offsetInCU: 0x1D8EB, offset: 0x1D8EB, size: 0x8, addend: 0x0, symName: __ZNSt3__16vectorIP4EdgeNS_9allocatorIS2_EEED1B8ue170006Ev, symObjAddr: 0xC50, symBinAddr: 0x100003BC8, symSize: 0x2C }
  - { offsetInCU: 0x1D915, offset: 0x1D915, size: 0x8, addend: 0x0, symName: __ZNSt3__16vectorIP4NodeNS_9allocatorIS2_EEED1B8ue170006Ev, symObjAddr: 0xC7C, symBinAddr: 0x100003BF4, symSize: 0x2C }
  - { offsetInCU: 0x1D93F, offset: 0x1D93F, size: 0x8, addend: 0x0, symName: __ZN6CliqueC1EP4EdgeRK5GraphRm, symObjAddr: 0xCA8, symBinAddr: 0x100003C20, symSize: 0x44 }
  - { offsetInCU: 0x1D995, offset: 0x1D995, size: 0x8, addend: 0x0, symName: __ZNSt3__16vectorIP4EdgeNS_9allocatorIS2_EEE7reserveEm, symObjAddr: 0xCEC, symBinAddr: 0x100003C64, symSize: 0x364 }
  - { offsetInCU: 0x1D9F7, offset: 0x1D9F7, size: 0x8, addend: 0x0, symName: __ZNKSt3__16vectorIP4EdgeNS_9allocatorIS2_EEE4sizeB8ue170006Ev, symObjAddr: 0x1050, symBinAddr: 0x100003FC8, symSize: 0xB0 }
  - { offsetInCU: 0x1DA1D, offset: 0x1DA1D, size: 0x8, addend: 0x0, symName: __ZNKSt3__16vectorIP4NodeNS_9allocatorIS2_EEE4sizeB8ue170006Ev, symObjAddr: 0x1100, symBinAddr: 0x100004078, symSize: 0xB0 }
  - { offsetInCU: 0x1DA43, offset: 0x1DA43, size: 0x8, addend: 0x0, symName: __ZNSt3__16vectorIP4NodeNS_9allocatorIS2_EEEixB8ue170006Em, symObjAddr: 0x11B0, symBinAddr: 0x100004128, symSize: 0x6C }
  - { offsetInCU: 0x1DA7A, offset: 0x1DA7A, size: 0x8, addend: 0x0, symName: __ZNSt3__113basic_ostreamIcNS_11char_traitsIcEEElsB8ue170006EPFRS3_S4_E, symObjAddr: 0x1264, symBinAddr: 0x1000041DC, symSize: 0x2C }
  - { offsetInCU: 0x1DAAE, offset: 0x1DAAE, size: 0x8, addend: 0x0, symName: __ZNSt3__16vectorIP4EdgeNS_9allocatorIS2_EEE9push_backB8ue170006ERKS2_, symObjAddr: 0x1364, symBinAddr: 0x1000042DC, symSize: 0xE0 }
  - { offsetInCU: 0x1DAE5, offset: 0x1DAE5, size: 0x8, addend: 0x0, symName: __ZNSt3__16vectorIP4NodeNS_9allocatorIS2_EEE9push_backB8ue170006ERKS2_, symObjAddr: 0x1444, symBinAddr: 0x1000043BC, symSize: 0xE0 }
  - { offsetInCU: 0x1DB1C, offset: 0x1DB1C, size: 0x8, addend: 0x0, symName: __ZN6Clique11add_node_cfEP4NodeRK5GraphRNSt3__16vectorImNS5_9allocatorImEEEE, symObjAddr: 0x1524, symBinAddr: 0x10000449C, symSize: 0x5BC }
  - { offsetInCU: 0x1DBAA, offset: 0x1DBAA, size: 0x8, addend: 0x0, symName: __ZNSt3__16vectorImNS_9allocatorImEEEixB8ue170006Em, symObjAddr: 0x1AE0, symBinAddr: 0x100004A58, symSize: 0x6C }
  - { offsetInCU: 0x1DBE1, offset: 0x1DBE1, size: 0x8, addend: 0x0, symName: __ZN6Clique11is_completeEv, symObjAddr: 0x1B4C, symBinAddr: 0x100004AC4, symSize: 0x44 }
  - { offsetInCU: 0x1DC09, offset: 0x1DC09, size: 0x8, addend: 0x0, symName: __ZN6Clique4sizeEv, symObjAddr: 0x1B90, symBinAddr: 0x100004B08, symSize: 0x28 }
  - { offsetInCU: 0x1DC30, offset: 0x1DC30, size: 0x8, addend: 0x0, symName: __ZlsRNSt3__113basic_ostreamIcNS_11char_traitsIcEEEER6Clique, symObjAddr: 0x1BB8, symBinAddr: 0x100004B30, symSize: 0x168 }
  - { offsetInCU: 0x1DC87, offset: 0x1DC87, size: 0x8, addend: 0x0, symName: __ZNSt16initializer_listIP4NodeEC2B8ue170006Ev, symObjAddr: 0x1D20, symBinAddr: 0x100004C98, symSize: 0x9C }
  - { offsetInCU: 0x1DCB1, offset: 0x1DCB1, size: 0x8, addend: 0x0, symName: __ZNSt3__16vectorIP4NodeNS_9allocatorIS2_EEEC2B8ue170006Ev, symObjAddr: 0x1DBC, symBinAddr: 0x100004D34, symSize: 0x2E8 }
  - { offsetInCU: 0x1DCE6, offset: 0x1DCE6, size: 0x8, addend: 0x0, symName: __ZNSt3__117__compressed_pairIPP4NodeNS_9allocatorIS2_EEEC1B8ue170006IDnNS_18__default_init_tagEEEOT_OT0_, symObjAddr: 0x20A4, symBinAddr: 0x10000501C, symSize: 0x3C }
  - { offsetInCU: 0x1DD3E, offset: 0x1DD3E, size: 0x8, addend: 0x0, symName: __ZNSt3__117__compressed_pairIPP4NodeNS_9allocatorIS2_EEEC2B8ue170006IDnNS_18__default_init_tagEEEOT_OT0_, symObjAddr: 0x20EC, symBinAddr: 0x100005064, symSize: 0x40 }
  - { offsetInCU: 0x1DD96, offset: 0x1DD96, size: 0x8, addend: 0x0, symName: __ZNSt3__122__compressed_pair_elemIPP4NodeLi0ELb0EEC2B8ue170006IDnvEEOT_, symObjAddr: 0x212C, symBinAddr: 0x1000050A4, symSize: 0x64 }
  - { offsetInCU: 0x1DDD8, offset: 0x1DDD8, size: 0x8, addend: 0x0, symName: __ZNSt3__122__compressed_pair_elemINS_9allocatorIP4NodeEELi1ELb1EEC2B8ue170006ENS_18__default_init_tagE, symObjAddr: 0x2190, symBinAddr: 0x100005108, symSize: 0x2C }
  - { offsetInCU: 0x1DE0C, offset: 0x1DE0C, size: 0x8, addend: 0x0, symName: __ZNSt3__19allocatorIP4NodeEC2B8ue170006Ev, symObjAddr: 0x21BC, symBinAddr: 0x100005134, symSize: 0x2C }
  - { offsetInCU: 0x1DE36, offset: 0x1DE36, size: 0x8, addend: 0x0, symName: __ZNSt3__116__non_trivial_ifILb1ENS_9allocatorIP4NodeEEEC2B8ue170006Ev, symObjAddr: 0x21E8, symBinAddr: 0x100005160, symSize: 0x14 }
  - { offsetInCU: 0x1DE60, offset: 0x1DE60, size: 0x8, addend: 0x0, symName: __ZNSt3__16vectorIP4EdgeNS_9allocatorIS2_EEEC2B8ue170006Ev, symObjAddr: 0x21FC, symBinAddr: 0x100005174, symSize: 0x2E8 }
  - { offsetInCU: 0x1DE8B, offset: 0x1DE8B, size: 0x8, addend: 0x0, symName: __ZNSt3__117__compressed_pairIPP4EdgeNS_9allocatorIS2_EEEC1B8ue170006IDnNS_18__default_init_tagEEEOT_OT0_, symObjAddr: 0x24E4, symBinAddr: 0x10000545C, symSize: 0x3C }
  - { offsetInCU: 0x1DEE3, offset: 0x1DEE3, size: 0x8, addend: 0x0, symName: __ZNSt3__117__compressed_pairIPP4EdgeNS_9allocatorIS2_EEEC2B8ue170006IDnNS_18__default_init_tagEEEOT_OT0_, symObjAddr: 0x2520, symBinAddr: 0x100005498, symSize: 0x40 }
  - { offsetInCU: 0x1DF3B, offset: 0x1DF3B, size: 0x8, addend: 0x0, symName: __ZNSt3__122__compressed_pair_elemIPP4EdgeLi0ELb0EEC2B8ue170006IDnvEEOT_, symObjAddr: 0x2560, symBinAddr: 0x1000054D8, symSize: 0x64 }
  - { offsetInCU: 0x1DF7D, offset: 0x1DF7D, size: 0x8, addend: 0x0, symName: __ZNSt3__122__compressed_pair_elemINS_9allocatorIP4EdgeEELi1ELb1EEC2B8ue170006ENS_18__default_init_tagE, symObjAddr: 0x25C4, symBinAddr: 0x10000553C, symSize: 0x2C }
  - { offsetInCU: 0x1DFB1, offset: 0x1DFB1, size: 0x8, addend: 0x0, symName: __ZNSt3__19allocatorIP4EdgeEC2B8ue170006Ev, symObjAddr: 0x25F0, symBinAddr: 0x100005568, symSize: 0x2C }
  - { offsetInCU: 0x1DFDB, offset: 0x1DFDB, size: 0x8, addend: 0x0, symName: __ZNSt3__116__non_trivial_ifILb1ENS_9allocatorIP4EdgeEEEC2B8ue170006Ev, symObjAddr: 0x261C, symBinAddr: 0x100005594, symSize: 0x14 }
  - { offsetInCU: 0x1E005, offset: 0x1E005, size: 0x8, addend: 0x0, symName: __ZNSt3__16vectorIP4NodeNS_9allocatorIS2_EEED2B8ue170006Ev, symObjAddr: 0x2630, symBinAddr: 0x1000055A8, symSize: 0x1F8 }
  - { offsetInCU: 0x1E030, offset: 0x1E030, size: 0x8, addend: 0x0, symName: __ZNSt3__16vectorIP4NodeNS_9allocatorIS2_EEE16__destroy_vectorC1B8ue170006ERS5_, symObjAddr: 0x2828, symBinAddr: 0x1000057A0, symSize: 0x34 }
  - { offsetInCU: 0x1E069, offset: 0x1E069, size: 0x8, addend: 0x0, symName: __ZNSt3__16vectorIP4NodeNS_9allocatorIS2_EEE16__destroy_vectorclB8ue170006Ev, symObjAddr: 0x285C, symBinAddr: 0x1000057D4, symSize: 0x228 }
  - { offsetInCU: 0x1E08F, offset: 0x1E08F, size: 0x8, addend: 0x0, symName: __ZNSt3__16vectorIP4NodeNS_9allocatorIS2_EEE16__destroy_vectorC2B8ue170006ERS5_, symObjAddr: 0x2A84, symBinAddr: 0x1000059FC, symSize: 0x70 }
  - { offsetInCU: 0x1E0C8, offset: 0x1E0C8, size: 0x8, addend: 0x0, symName: __ZNSt3__16vectorIP4NodeNS_9allocatorIS2_EEE7__clearB8ue170006Ev, symObjAddr: 0x2AF4, symBinAddr: 0x100005A6C, symSize: 0x64 }
  - { offsetInCU: 0x1E0EE, offset: 0x1E0EE, size: 0x8, addend: 0x0, symName: __ZNKSt3__16vectorIP4NodeNS_9allocatorIS2_EEE17__annotate_deleteB8ue170006Ev, symObjAddr: 0x2B58, symBinAddr: 0x100005AD0, symSize: 0xCC }
  - { offsetInCU: 0x1E114, offset: 0x1E114, size: 0x8, addend: 0x0, symName: __ZNSt3__116allocator_traitsINS_9allocatorIP4NodeEEE10deallocateB8ue170006ERS4_PS3_m, symObjAddr: 0x2C24, symBinAddr: 0x100005B9C, symSize: 0x34 }
  - { offsetInCU: 0x1E156, offset: 0x1E156, size: 0x8, addend: 0x0, symName: __ZNSt3__16vectorIP4NodeNS_9allocatorIS2_EEE7__allocB8ue170006Ev, symObjAddr: 0x2C58, symBinAddr: 0x100005BD0, symSize: 0x28 }
  - { offsetInCU: 0x1E17C, offset: 0x1E17C, size: 0x8, addend: 0x0, symName: __ZNKSt3__16vectorIP4NodeNS_9allocatorIS2_EEE8capacityB8ue170006Ev, symObjAddr: 0x2C80, symBinAddr: 0x100005BF8, symSize: 0xBC }
  - { offsetInCU: 0x1E1A2, offset: 0x1E1A2, size: 0x8, addend: 0x0, symName: __ZNSt3__16vectorIP4NodeNS_9allocatorIS2_EEE22__base_destruct_at_endB8ue170006EPS2_, symObjAddr: 0x2D3C, symBinAddr: 0x100005CB4, symSize: 0x114 }
  - { offsetInCU: 0x1E1E6, offset: 0x1E1E6, size: 0x8, addend: 0x0, symName: __ZNSt3__116allocator_traitsINS_9allocatorIP4NodeEEE7destroyB8ue170006IS3_vEEvRS4_PT_, symObjAddr: 0x2E50, symBinAddr: 0x100005DC8, symSize: 0x2C }
  - { offsetInCU: 0x1E223, offset: 0x1E223, size: 0x8, addend: 0x0, symName: __ZNSt3__19allocatorIP4NodeE7destroyB8ue170006EPS2_, symObjAddr: 0x2E90, symBinAddr: 0x100005E08, symSize: 0x14 }
  - { offsetInCU: 0x1E257, offset: 0x1E257, size: 0x8, addend: 0x0, symName: __ZNKSt3__16vectorIP4NodeNS_9allocatorIS2_EEE31__annotate_contiguous_containerEPKvS7_S7_S7_, symObjAddr: 0x2EA4, symBinAddr: 0x100005E1C, symSize: 0x58 }
  - { offsetInCU: 0x1E2B9, offset: 0x1E2B9, size: 0x8, addend: 0x0, symName: __ZNKSt3__16vectorIP4NodeNS_9allocatorIS2_EEE4dataB8ue170006Ev, symObjAddr: 0x2EFC, symBinAddr: 0x100005E74, symSize: 0x64 }
  - { offsetInCU: 0x1E2DF, offset: 0x1E2DF, size: 0x8, addend: 0x0, symName: __ZNSt3__19allocatorIP4NodeE10deallocateB8ue170006EPS2_m, symObjAddr: 0x2F60, symBinAddr: 0x100005ED8, symSize: 0x4C }
  - { offsetInCU: 0x1E321, offset: 0x1E321, size: 0x8, addend: 0x0, symName: __ZNSt3__117__compressed_pairIPP4NodeNS_9allocatorIS2_EEE6secondB8ue170006Ev, symObjAddr: 0x30D4, symBinAddr: 0x10000604C, symSize: 0x24 }
  - { offsetInCU: 0x1E347, offset: 0x1E347, size: 0x8, addend: 0x0, symName: __ZNSt3__122__compressed_pair_elemINS_9allocatorIP4NodeEELi1ELb1EE5__getB8ue170006Ev, symObjAddr: 0x30F8, symBinAddr: 0x100006070, symSize: 0x14 }
  - { offsetInCU: 0x1E36D, offset: 0x1E36D, size: 0x8, addend: 0x0, symName: __ZNKSt3__16vectorIP4NodeNS_9allocatorIS2_EEE9__end_capB8ue170006Ev, symObjAddr: 0x310C, symBinAddr: 0x100006084, symSize: 0x28 }
  - { offsetInCU: 0x1E393, offset: 0x1E393, size: 0x8, addend: 0x0, symName: __ZNKSt3__117__compressed_pairIPP4NodeNS_9allocatorIS2_EEE5firstB8ue170006Ev, symObjAddr: 0x3134, symBinAddr: 0x1000060AC, symSize: 0x24 }
  - { offsetInCU: 0x1E3B9, offset: 0x1E3B9, size: 0x8, addend: 0x0, symName: __ZNKSt3__122__compressed_pair_elemIPP4NodeLi0ELb0EE5__getB8ue170006Ev, symObjAddr: 0x3158, symBinAddr: 0x1000060D0, symSize: 0x14 }
  - { offsetInCU: 0x1E3DF, offset: 0x1E3DF, size: 0x8, addend: 0x0, symName: __ZNSt3__16vectorIP4EdgeNS_9allocatorIS2_EEED2B8ue170006Ev, symObjAddr: 0x316C, symBinAddr: 0x1000060E4, symSize: 0x1F8 }
  - { offsetInCU: 0x1E40A, offset: 0x1E40A, size: 0x8, addend: 0x0, symName: __ZNSt3__16vectorIP4EdgeNS_9allocatorIS2_EEE16__destroy_vectorC1B8ue170006ERS5_, symObjAddr: 0x3364, symBinAddr: 0x1000062DC, symSize: 0x34 }
  - { offsetInCU: 0x1E443, offset: 0x1E443, size: 0x8, addend: 0x0, symName: __ZNSt3__16vectorIP4EdgeNS_9allocatorIS2_EEE16__destroy_vectorclB8ue170006Ev, symObjAddr: 0x3398, symBinAddr: 0x100006310, symSize: 0x228 }
  - { offsetInCU: 0x1E469, offset: 0x1E469, size: 0x8, addend: 0x0, symName: __ZNSt3__16vectorIP4EdgeNS_9allocatorIS2_EEE16__destroy_vectorC2B8ue170006ERS5_, symObjAddr: 0x35C0, symBinAddr: 0x100006538, symSize: 0x70 }
  - { offsetInCU: 0x1E4A2, offset: 0x1E4A2, size: 0x8, addend: 0x0, symName: __ZNSt3__16vectorIP4EdgeNS_9allocatorIS2_EEE7__clearB8ue170006Ev, symObjAddr: 0x3630, symBinAddr: 0x1000065A8, symSize: 0x64 }
  - { offsetInCU: 0x1E4C8, offset: 0x1E4C8, size: 0x8, addend: 0x0, symName: __ZNKSt3__16vectorIP4EdgeNS_9allocatorIS2_EEE17__annotate_deleteB8ue170006Ev, symObjAddr: 0x3694, symBinAddr: 0x10000660C, symSize: 0xCC }
  - { offsetInCU: 0x1E4EE, offset: 0x1E4EE, size: 0x8, addend: 0x0, symName: __ZNSt3__116allocator_traitsINS_9allocatorIP4EdgeEEE10deallocateB8ue170006ERS4_PS3_m, symObjAddr: 0x3760, symBinAddr: 0x1000066D8, symSize: 0x34 }
  - { offsetInCU: 0x1E530, offset: 0x1E530, size: 0x8, addend: 0x0, symName: __ZNSt3__16vectorIP4EdgeNS_9allocatorIS2_EEE7__allocB8ue170006Ev, symObjAddr: 0x3794, symBinAddr: 0x10000670C, symSize: 0x28 }
  - { offsetInCU: 0x1E556, offset: 0x1E556, size: 0x8, addend: 0x0, symName: __ZNKSt3__16vectorIP4EdgeNS_9allocatorIS2_EEE8capacityB8ue170006Ev, symObjAddr: 0x37BC, symBinAddr: 0x100006734, symSize: 0xBC }
  - { offsetInCU: 0x1E57C, offset: 0x1E57C, size: 0x8, addend: 0x0, symName: __ZNSt3__16vectorIP4EdgeNS_9allocatorIS2_EEE22__base_destruct_at_endB8ue170006EPS2_, symObjAddr: 0x3878, symBinAddr: 0x1000067F0, symSize: 0x114 }
  - { offsetInCU: 0x1E5C0, offset: 0x1E5C0, size: 0x8, addend: 0x0, symName: __ZNSt3__116allocator_traitsINS_9allocatorIP4EdgeEEE7destroyB8ue170006IS3_vEEvRS4_PT_, symObjAddr: 0x398C, symBinAddr: 0x100006904, symSize: 0x2C }
  - { offsetInCU: 0x1E5FD, offset: 0x1E5FD, size: 0x8, addend: 0x0, symName: __ZNSt3__19allocatorIP4EdgeE7destroyB8ue170006EPS2_, symObjAddr: 0x39CC, symBinAddr: 0x100006944, symSize: 0x14 }
  - { offsetInCU: 0x1E631, offset: 0x1E631, size: 0x8, addend: 0x0, symName: __ZNKSt3__16vectorIP4EdgeNS_9allocatorIS2_EEE31__annotate_contiguous_containerEPKvS7_S7_S7_, symObjAddr: 0x39E0, symBinAddr: 0x100006958, symSize: 0x58 }
  - { offsetInCU: 0x1E693, offset: 0x1E693, size: 0x8, addend: 0x0, symName: __ZNKSt3__16vectorIP4EdgeNS_9allocatorIS2_EEE4dataB8ue170006Ev, symObjAddr: 0x3A38, symBinAddr: 0x1000069B0, symSize: 0x64 }
  - { offsetInCU: 0x1E6B9, offset: 0x1E6B9, size: 0x8, addend: 0x0, symName: __ZNSt3__19allocatorIP4EdgeE10deallocateB8ue170006EPS2_m, symObjAddr: 0x3A9C, symBinAddr: 0x100006A14, symSize: 0x4C }
  - { offsetInCU: 0x1E6FB, offset: 0x1E6FB, size: 0x8, addend: 0x0, symName: __ZNSt3__117__compressed_pairIPP4EdgeNS_9allocatorIS2_EEE6secondB8ue170006Ev, symObjAddr: 0x3AE8, symBinAddr: 0x100006A60, symSize: 0x24 }
  - { offsetInCU: 0x1E721, offset: 0x1E721, size: 0x8, addend: 0x0, symName: __ZNSt3__122__compressed_pair_elemINS_9allocatorIP4EdgeEELi1ELb1EE5__getB8ue170006Ev, symObjAddr: 0x3B0C, symBinAddr: 0x100006A84, symSize: 0x14 }
  - { offsetInCU: 0x1E747, offset: 0x1E747, size: 0x8, addend: 0x0, symName: __ZNKSt3__16vectorIP4EdgeNS_9allocatorIS2_EEE9__end_capB8ue170006Ev, symObjAddr: 0x3B20, symBinAddr: 0x100006A98, symSize: 0x28 }
  - { offsetInCU: 0x1E76D, offset: 0x1E76D, size: 0x8, addend: 0x0, symName: __ZNKSt3__117__compressed_pairIPP4EdgeNS_9allocatorIS2_EEE5firstB8ue170006Ev, symObjAddr: 0x3B48, symBinAddr: 0x100006AC0, symSize: 0x24 }
  - { offsetInCU: 0x1E793, offset: 0x1E793, size: 0x8, addend: 0x0, symName: __ZNKSt3__122__compressed_pair_elemIPP4EdgeLi0ELb0EE5__getB8ue170006Ev, symObjAddr: 0x3B6C, symBinAddr: 0x100006AE4, symSize: 0x14 }
  - { offsetInCU: 0x1E7B9, offset: 0x1E7B9, size: 0x8, addend: 0x0, symName: __ZNSt3__16vectorIP4NodeNS_9allocatorIS2_EEE6assignIPKS2_Li0EEEvT_S9_, symObjAddr: 0x3B80, symBinAddr: 0x100006AF8, symSize: 0x5C }
  - { offsetInCU: 0x1E80E, offset: 0x1E80E, size: 0x8, addend: 0x0, symName: __ZNKSt16initializer_listIP4NodeE5beginB8ue170006Ev, symObjAddr: 0x3BDC, symBinAddr: 0x100006B54, symSize: 0x60 }
  - { offsetInCU: 0x1E834, offset: 0x1E834, size: 0x8, addend: 0x0, symName: __ZNKSt16initializer_listIP4NodeE3endB8ue170006Ev, symObjAddr: 0x3C3C, symBinAddr: 0x100006BB4, symSize: 0xA8 }
  - { offsetInCU: 0x1E85A, offset: 0x1E85A, size: 0x8, addend: 0x0, symName: __ZNSt3__16vectorIP4NodeNS_9allocatorIS2_EEE18__assign_with_sizeB8ue170006IPKS2_S8_EEvT_T0_l, symObjAddr: 0x3CE4, symBinAddr: 0x100006C5C, symSize: 0x408 }
  - { offsetInCU: 0x1E911, offset: 0x1E911, size: 0x8, addend: 0x0, symName: __ZNSt3__16vectorIP4NodeNS_9allocatorIS2_EEE18__construct_at_endIPKS2_S8_EEvT_T0_m, symObjAddr: 0x45BC, symBinAddr: 0x100007534, symSize: 0x380 }
  - { offsetInCU: 0x1E98F, offset: 0x1E98F, size: 0x8, addend: 0x0, symName: __ZNSt3__16vectorIP4NodeNS_9allocatorIS2_EEE17__destruct_at_endB8ue170006EPS2_, symObjAddr: 0x4B68, symBinAddr: 0x100007AE0, symSize: 0x4C }
  - { offsetInCU: 0x1E9D3, offset: 0x1E9D3, size: 0x8, addend: 0x0, symName: __ZNSt3__16vectorIP4NodeNS_9allocatorIS2_EEE13__vdeallocateEv, symObjAddr: 0x4BB4, symBinAddr: 0x100007B2C, symSize: 0x194 }
  - { offsetInCU: 0x1E9FB, offset: 0x1E9FB, size: 0x8, addend: 0x0, symName: __ZNSt3__16vectorIP4NodeNS_9allocatorIS2_EEE11__vallocateB8ue170006Em, symObjAddr: 0x4D48, symBinAddr: 0x100007CC0, symSize: 0x420 }
  - { offsetInCU: 0x1EA45, offset: 0x1EA45, size: 0x8, addend: 0x0, symName: __ZNKSt3__16vectorIP4NodeNS_9allocatorIS2_EEE11__recommendB8ue170006Em, symObjAddr: 0x5168, symBinAddr: 0x1000080E0, symSize: 0x384 }
  - { offsetInCU: 0x1EABA, offset: 0x1EABA, size: 0x8, addend: 0x0, symName: __ZNSt3__16vectorIP4NodeNS_9allocatorIS2_EEE21_ConstructTransactionC1B8ue170006ERS5_m, symObjAddr: 0x55B0, symBinAddr: 0x100008528, symSize: 0x3C }
  - { offsetInCU: 0x1EB02, offset: 0x1EB02, size: 0x8, addend: 0x0, symName: __ZNSt3__16vectorIP4NodeNS_9allocatorIS2_EEE21_ConstructTransactionD1B8ue170006Ev, symObjAddr: 0x58C8, symBinAddr: 0x100008840, symSize: 0x2C }
  - { offsetInCU: 0x1EB2C, offset: 0x1EB2C, size: 0x8, addend: 0x0, symName: __ZNSt3__16vectorIP4NodeNS_9allocatorIS2_EEE21_ConstructTransactionC2B8ue170006ERS5_m, symObjAddr: 0x58F4, symBinAddr: 0x10000886C, symSize: 0x1D0 }
  - { offsetInCU: 0x1EB74, offset: 0x1EB74, size: 0x8, addend: 0x0, symName: __ZNKSt3__16vectorIP4NodeNS_9allocatorIS2_EEE19__annotate_increaseB8ue170006Em, symObjAddr: 0x5AC4, symBinAddr: 0x100008A3C, symSize: 0xD8 }
  - { offsetInCU: 0x1EBC7, offset: 0x1EBC7, size: 0x8, addend: 0x0, symName: __ZNSt3__14pairIPKP4NodeS4_EC1B8ue170006IS4_S4_LPv0EEEOT_OT0_, symObjAddr: 0x61C0, symBinAddr: 0x100009138, symSize: 0x3C }
  - { offsetInCU: 0x1EC25, offset: 0x1EC25, size: 0x8, addend: 0x0, symName: __ZNSt3__14pairIPKP4NodeS4_EC2B8ue170006IS4_S4_LPv0EEEOT_OT0_, symObjAddr: 0x61FC, symBinAddr: 0x100009174, symSize: 0x138 }
  - { offsetInCU: 0x1EC83, offset: 0x1EC83, size: 0x8, addend: 0x0, symName: __ZNSt3__118__unwrap_iter_implIPKP4NodeLb1EE8__unwrapB8ue170006ES4_, symObjAddr: 0x6334, symBinAddr: 0x1000092AC, symSize: 0x24 }
  - { offsetInCU: 0x1ECA6, offset: 0x1ECA6, size: 0x8, addend: 0x0, symName: __ZNSt3__118__unwrap_iter_implIPP4NodeLb1EE8__unwrapB8ue170006ES3_, symObjAddr: 0x636C, symBinAddr: 0x1000092E4, symSize: 0x24 }
  - { offsetInCU: 0x1ECC9, offset: 0x1ECC9, size: 0x8, addend: 0x0, symName: __ZNSt3__118__unwrap_iter_implIPP4NodeLb1EE8__rewrapB8ue170006ES3_S3_, symObjAddr: 0x6390, symBinAddr: 0x100009308, symSize: 0x50 }
  - { offsetInCU: 0x1ECFA, offset: 0x1ECFA, size: 0x8, addend: 0x0, symName: __ZNSt3__16vectorIP4NodeNS_9allocatorIS2_EEE21_ConstructTransactionD2B8ue170006Ev, symObjAddr: 0x63E0, symBinAddr: 0x100009358, symSize: 0x278 }
  - { offsetInCU: 0x1ED24, offset: 0x1ED24, size: 0x8, addend: 0x0, symName: __ZNKSt3__16vectorIP4NodeNS_9allocatorIS2_EEE17__annotate_shrinkB8ue170006Em, symObjAddr: 0x6658, symBinAddr: 0x1000095D0, symSize: 0xC8 }
  - { offsetInCU: 0x1ED7C, offset: 0x1ED7C, size: 0x8, addend: 0x0, symName: __ZNKSt3__114__copy_trivialclB8ue170006IKP4NodeS3_Li0EEENS_4pairIPT_PT0_EES7_S7_S9_, symObjAddr: 0x6EF0, symBinAddr: 0x100009E68, symSize: 0x230 }
  - { offsetInCU: 0x1EDF2, offset: 0x1EDF2, size: 0x8, addend: 0x0, symName: __ZNSt3__14pairIPKP4NodePS2_EC1B8ue170006IRS4_S5_LPv0EEEOT_OT0_, symObjAddr: 0x797C, symBinAddr: 0x10000A8F4, symSize: 0x3C }
  - { offsetInCU: 0x1EE50, offset: 0x1EE50, size: 0x8, addend: 0x0, symName: __ZNSt3__14pairIPKP4NodePS2_EC2B8ue170006IRS4_S5_LPv0EEEOT_OT0_, symObjAddr: 0x79B8, symBinAddr: 0x10000A930, symSize: 0x138 }
  - { offsetInCU: 0x1EEAE, offset: 0x1EEAE, size: 0x8, addend: 0x0, symName: __ZNSt3__14pairIPKP4NodePS2_EC1B8ue170006IS4_S5_LPv0EEEOT_OT0_, symObjAddr: 0x7AF0, symBinAddr: 0x10000AA68, symSize: 0x3C }
  - { offsetInCU: 0x1EF0C, offset: 0x1EF0C, size: 0x8, addend: 0x0, symName: __ZNSt3__14pairIPKP4NodePS2_EC2B8ue170006IS4_S5_LPv0EEEOT_OT0_, symObjAddr: 0x7B2C, symBinAddr: 0x10000AAA4, symSize: 0x138 }
  - { offsetInCU: 0x1EF6A, offset: 0x1EF6A, size: 0x8, addend: 0x0, symName: __ZNSt3__118__unwrap_iter_implIPKP4NodeLb1EE8__rewrapB8ue170006ES4_S4_, symObjAddr: 0x7CAC, symBinAddr: 0x10000AC24, symSize: 0x50 }
  - { offsetInCU: 0x1EF9B, offset: 0x1EF9B, size: 0x8, addend: 0x0, symName: __ZNSt3__16vectorIP4NodeNS_9allocatorIS2_EEE5clearB8ue170006Ev, symObjAddr: 0x7CFC, symBinAddr: 0x10000AC74, symSize: 0x44 }
  - { offsetInCU: 0x1EFD0, offset: 0x1EFD0, size: 0x8, addend: 0x0, symName: __ZNSt3__16vectorIP4NodeNS_9allocatorIS2_EEE9__end_capB8ue170006Ev, symObjAddr: 0x7D40, symBinAddr: 0x10000ACB8, symSize: 0x28 }
  - { offsetInCU: 0x1EFF6, offset: 0x1EFF6, size: 0x8, addend: 0x0, symName: __ZNSt3__117__compressed_pairIPP4NodeNS_9allocatorIS2_EEE5firstB8ue170006Ev, symObjAddr: 0x7D68, symBinAddr: 0x10000ACE0, symSize: 0x24 }
  - { offsetInCU: 0x1F01C, offset: 0x1F01C, size: 0x8, addend: 0x0, symName: __ZNSt3__122__compressed_pair_elemIPP4NodeLi0ELb0EE5__getB8ue170006Ev, symObjAddr: 0x7D8C, symBinAddr: 0x10000AD04, symSize: 0x14 }
  - { offsetInCU: 0x1F042, offset: 0x1F042, size: 0x8, addend: 0x0, symName: __ZNKSt3__16vectorIP4NodeNS_9allocatorIS2_EEE8max_sizeEv, symObjAddr: 0x7DA0, symBinAddr: 0x10000AD18, symSize: 0x2FC }
  - { offsetInCU: 0x1F06B, offset: 0x1F06B, size: 0x8, addend: 0x0, symName: __ZNKSt3__16vectorIP4NodeNS_9allocatorIS2_EEE20__throw_length_errorB8ue170006Ev, symObjAddr: 0x809C, symBinAddr: 0x10000B014, symSize: 0x20 }
  - { offsetInCU: 0x1F091, offset: 0x1F091, size: 0x8, addend: 0x0, symName: __ZNKSt3__16vectorIP4NodeNS_9allocatorIS2_EEE14__annotate_newB8ue170006Em, symObjAddr: 0x8348, symBinAddr: 0x10000B2C0, symSize: 0xC0 }
  - { offsetInCU: 0x1F0D0, offset: 0x1F0D0, size: 0x8, addend: 0x0, symName: __ZNSt3__116allocator_traitsINS_9allocatorIP4NodeEEE8max_sizeB8ue170006IS4_vEEmRKS4_, symObjAddr: 0x8434, symBinAddr: 0x10000B3AC, symSize: 0x24 }
  - { offsetInCU: 0x1F0FE, offset: 0x1F0FE, size: 0x8, addend: 0x0, symName: __ZNKSt3__16vectorIP4NodeNS_9allocatorIS2_EEE7__allocB8ue170006Ev, symObjAddr: 0x8458, symBinAddr: 0x10000B3D0, symSize: 0x28 }
  - { offsetInCU: 0x1F124, offset: 0x1F124, size: 0x8, addend: 0x0, symName: __ZNSt3__114numeric_limitsIlE3maxB8ue170006Ev, symObjAddr: 0x8480, symBinAddr: 0x10000B3F8, symSize: 0x14 }
  - { offsetInCU: 0x1F142, offset: 0x1F142, size: 0x8, addend: 0x0, symName: __ZNKSt3__16__lessIvvEclB8ue170006ImmEEbRKT_RKT0_, symObjAddr: 0x867C, symBinAddr: 0x10000B5F4, symSize: 0xBC }
  - { offsetInCU: 0x1F196, offset: 0x1F196, size: 0x8, addend: 0x0, symName: __ZNKSt3__19allocatorIP4NodeE8max_sizeB8ue170006Ev, symObjAddr: 0x8738, symBinAddr: 0x10000B6B0, symSize: 0x14 }
  - { offsetInCU: 0x1F1BC, offset: 0x1F1BC, size: 0x8, addend: 0x0, symName: __ZNKSt3__117__compressed_pairIPP4NodeNS_9allocatorIS2_EEE6secondB8ue170006Ev, symObjAddr: 0x874C, symBinAddr: 0x10000B6C4, symSize: 0x24 }
  - { offsetInCU: 0x1F1E2, offset: 0x1F1E2, size: 0x8, addend: 0x0, symName: __ZNKSt3__122__compressed_pair_elemINS_9allocatorIP4NodeEELi1ELb1EE5__getB8ue170006Ev, symObjAddr: 0x8770, symBinAddr: 0x10000B6E8, symSize: 0x14 }
  - { offsetInCU: 0x1F208, offset: 0x1F208, size: 0x8, addend: 0x0, symName: __ZNSt3__123__libcpp_numeric_limitsIlLb1EE3maxB8ue170006Ev, symObjAddr: 0x8784, symBinAddr: 0x10000B6FC, symSize: 0x8 }
  - { offsetInCU: 0x1F21C, offset: 0x1F21C, size: 0x8, addend: 0x0, symName: __ZNSt12length_errorC1B8ue170006EPKc, symObjAddr: 0x87F4, symBinAddr: 0x10000B76C, symSize: 0x34 }
  - { offsetInCU: 0x1F254, offset: 0x1F254, size: 0x8, addend: 0x0, symName: __ZNSt12length_errorC2B8ue170006EPKc, symObjAddr: 0x8828, symBinAddr: 0x10000B7A0, symSize: 0x8C }
  - { offsetInCU: 0x1F28C, offset: 0x1F28C, size: 0x8, addend: 0x0, symName: __ZNSt3__19allocatorIP4NodeE8allocateB8ue170006Em, symObjAddr: 0x88B4, symBinAddr: 0x10000B82C, symSize: 0x5C }
  - { offsetInCU: 0x1F2C0, offset: 0x1F2C0, size: 0x8, addend: 0x0, symName: __ZNKSt3__16vectorIP4EdgeNS_9allocatorIS2_EEE8max_sizeEv, symObjAddr: 0x8C34, symBinAddr: 0x10000BBAC, symSize: 0x2FC }
  - { offsetInCU: 0x1F2E9, offset: 0x1F2E9, size: 0x8, addend: 0x0, symName: __ZNKSt3__16vectorIP4EdgeNS_9allocatorIS2_EEE20__throw_length_errorB8ue170006Ev, symObjAddr: 0x8F30, symBinAddr: 0x10000BEA8, symSize: 0x20 }
  - { offsetInCU: 0x1F30F, offset: 0x1F30F, size: 0x8, addend: 0x0, symName: __ZNSt3__114__split_bufferIP4EdgeRNS_9allocatorIS2_EEEC1EmmS5_, symObjAddr: 0x8F50, symBinAddr: 0x10000BEC8, symSize: 0x44 }
  - { offsetInCU: 0x1F365, offset: 0x1F365, size: 0x8, addend: 0x0, symName: __ZNSt3__114__split_bufferIP4EdgeRNS_9allocatorIS2_EEED1Ev, symObjAddr: 0x9500, symBinAddr: 0x10000C478, symSize: 0x2C }
  - { offsetInCU: 0x1F39B, offset: 0x1F39B, size: 0x8, addend: 0x0, symName: __ZNSt3__116allocator_traitsINS_9allocatorIP4EdgeEEE8max_sizeB8ue170006IS4_vEEmRKS4_, symObjAddr: 0x952C, symBinAddr: 0x10000C4A4, symSize: 0x24 }
  - { offsetInCU: 0x1F3C9, offset: 0x1F3C9, size: 0x8, addend: 0x0, symName: __ZNKSt3__16vectorIP4EdgeNS_9allocatorIS2_EEE7__allocB8ue170006Ev, symObjAddr: 0x9550, symBinAddr: 0x10000C4C8, symSize: 0x28 }
  - { offsetInCU: 0x1F3EF, offset: 0x1F3EF, size: 0x8, addend: 0x0, symName: __ZNKSt3__19allocatorIP4EdgeE8max_sizeB8ue170006Ev, symObjAddr: 0x9578, symBinAddr: 0x10000C4F0, symSize: 0x14 }
  - { offsetInCU: 0x1F415, offset: 0x1F415, size: 0x8, addend: 0x0, symName: __ZNKSt3__117__compressed_pairIPP4EdgeNS_9allocatorIS2_EEE6secondB8ue170006Ev, symObjAddr: 0x958C, symBinAddr: 0x10000C504, symSize: 0x24 }
  - { offsetInCU: 0x1F43B, offset: 0x1F43B, size: 0x8, addend: 0x0, symName: __ZNKSt3__122__compressed_pair_elemINS_9allocatorIP4EdgeEELi1ELb1EE5__getB8ue170006Ev, symObjAddr: 0x95B0, symBinAddr: 0x10000C528, symSize: 0x14 }
  - { offsetInCU: 0x1F461, offset: 0x1F461, size: 0x8, addend: 0x0, symName: __ZNSt3__114__split_bufferIP4EdgeRNS_9allocatorIS2_EEEC2EmmS5_, symObjAddr: 0x95C4, symBinAddr: 0x10000C53C, symSize: 0x520 }
  - { offsetInCU: 0x1F4DC, offset: 0x1F4DC, size: 0x8, addend: 0x0, symName: __ZNSt3__117__compressed_pairIPP4EdgeRNS_9allocatorIS2_EEEC1B8ue170006IDnS6_EEOT_OT0_, symObjAddr: 0x9AE4, symBinAddr: 0x10000CA5C, symSize: 0x3C }
  - { offsetInCU: 0x1F534, offset: 0x1F534, size: 0x8, addend: 0x0, symName: __ZNSt3__114__split_bufferIP4EdgeRNS_9allocatorIS2_EEE7__allocB8ue170006Ev, symObjAddr: 0x9DAC, symBinAddr: 0x10000CD24, symSize: 0x28 }
  - { offsetInCU: 0x1F55A, offset: 0x1F55A, size: 0x8, addend: 0x0, symName: __ZNSt3__114__split_bufferIP4EdgeRNS_9allocatorIS2_EEE9__end_capB8ue170006Ev, symObjAddr: 0x9DD4, symBinAddr: 0x10000CD4C, symSize: 0x28 }
  - { offsetInCU: 0x1F580, offset: 0x1F580, size: 0x8, addend: 0x0, symName: __ZNSt3__117__compressed_pairIPP4EdgeRNS_9allocatorIS2_EEEC2B8ue170006IDnS6_EEOT_OT0_, symObjAddr: 0x9DFC, symBinAddr: 0x10000CD74, symSize: 0x48 }
  - { offsetInCU: 0x1F5D8, offset: 0x1F5D8, size: 0x8, addend: 0x0, symName: __ZNSt3__122__compressed_pair_elemIRNS_9allocatorIP4EdgeEELi1ELb0EEC2B8ue170006IS5_vEEOT_, symObjAddr: 0x9E44, symBinAddr: 0x10000CDBC, symSize: 0x70 }
  - { offsetInCU: 0x1F61A, offset: 0x1F61A, size: 0x8, addend: 0x0, symName: __ZNSt3__19allocatorIP4EdgeE8allocateB8ue170006Em, symObjAddr: 0x9EB4, symBinAddr: 0x10000CE2C, symSize: 0x5C }
  - { offsetInCU: 0x1F64E, offset: 0x1F64E, size: 0x8, addend: 0x0, symName: __ZNSt3__117__compressed_pairIPP4EdgeRNS_9allocatorIS2_EEE6secondB8ue170006Ev, symObjAddr: 0x9F10, symBinAddr: 0x10000CE88, symSize: 0x28 }
  - { offsetInCU: 0x1F674, offset: 0x1F674, size: 0x8, addend: 0x0, symName: __ZNSt3__122__compressed_pair_elemIRNS_9allocatorIP4EdgeEELi1ELb0EE5__getB8ue170006Ev, symObjAddr: 0x9F38, symBinAddr: 0x10000CEB0, symSize: 0x60 }
  - { offsetInCU: 0x1F69A, offset: 0x1F69A, size: 0x8, addend: 0x0, symName: __ZNSt3__117__compressed_pairIPP4EdgeRNS_9allocatorIS2_EEE5firstB8ue170006Ev, symObjAddr: 0x9F98, symBinAddr: 0x10000CF10, symSize: 0x24 }
  - { offsetInCU: 0x1F6C0, offset: 0x1F6C0, size: 0x8, addend: 0x0, symName: __ZNSt3__122__compressed_pair_elemIPP4EdgeLi0ELb0EE5__getB8ue170006Ev, symObjAddr: 0x9FBC, symBinAddr: 0x10000CF34, symSize: 0x14 }
  - { offsetInCU: 0x1F6E6, offset: 0x1F6E6, size: 0x8, addend: 0x0, symName: __ZNSt3__116reverse_iteratorIPP4EdgeEC1B8ue170006ES3_, symObjAddr: 0xA478, symBinAddr: 0x10000D3F0, symSize: 0x34 }
  - { offsetInCU: 0x1F71E, offset: 0x1F71E, size: 0x8, addend: 0x0, symName: __ZNKSt3__116reverse_iteratorIPP4EdgeE4baseB8ue170006Ev, symObjAddr: 0xA4AC, symBinAddr: 0x10000D424, symSize: 0x64 }
  - { offsetInCU: 0x1F744, offset: 0x1F744, size: 0x8, addend: 0x0, symName: __ZNSt3__16vectorIP4EdgeNS_9allocatorIS2_EEE9__end_capB8ue170006Ev, symObjAddr: 0xA644, symBinAddr: 0x10000D5BC, symSize: 0x28 }
  - { offsetInCU: 0x1F76A, offset: 0x1F76A, size: 0x8, addend: 0x0, symName: __ZNKSt3__16vectorIP4EdgeNS_9allocatorIS2_EEE14__annotate_newB8ue170006Em, symObjAddr: 0xA66C, symBinAddr: 0x10000D5E4, symSize: 0xC0 }
  - { offsetInCU: 0x1F7C2, offset: 0x1F7C2, size: 0x8, addend: 0x0, symName: __ZNKSt3__111__move_loopINS_17_ClassicAlgPolicyEEclB8ue170006INS_16reverse_iteratorIPP4EdgeEES8_S8_EENS_4pairIT_T1_EESA_T0_SB_, symObjAddr: 0xC0EC, symBinAddr: 0x10000F064, symSize: 0x3A8 }
  - { offsetInCU: 0x1F83F, offset: 0x1F83F, size: 0x8, addend: 0x0, symName: __ZNSt3__18_IterOpsINS_17_ClassicAlgPolicyEE11__iter_moveB8ue170006IRNS_16reverse_iteratorIPP4EdgeEEEENS_9enable_ifIXsr12is_referenceIDTdeclsr3stdE7declvalIRT_EEEEE5valueEDTclsr3stdE4movedeclsr3stdE7declvalISC_EEEEE4typeEOSB_, symObjAddr: 0xCFBC, symBinAddr: 0x10000FF34, symSize: 0x28 }
  - { offsetInCU: 0x1F86B, offset: 0x1F86B, size: 0x8, addend: 0x0, symName: __ZNKSt3__116reverse_iteratorIPP4EdgeEdeB8ue170006Ev, symObjAddr: 0xCFE4, symBinAddr: 0x10000FF5C, symSize: 0x74 }
  - { offsetInCU: 0x1F89F, offset: 0x1F89F, size: 0x8, addend: 0x0, symName: __ZNSt3__116reverse_iteratorIPP4EdgeEppB8ue170006Ev, symObjAddr: 0xD058, symBinAddr: 0x10000FFD0, symSize: 0x6C }
  - { offsetInCU: 0x1F8C5, offset: 0x1F8C5, size: 0x8, addend: 0x0, symName: __ZNSt3__18_IterOpsINS_17_ClassicAlgPolicyEE25__validate_iter_referenceB8ue170006IRNS_16reverse_iteratorIPP4EdgeEEEEvv, symObjAddr: 0xD0C4, symBinAddr: 0x10001003C, symSize: 0x4 }
  - { offsetInCU: 0x1F8E3, offset: 0x1F8E3, size: 0x8, addend: 0x0, symName: __ZNSt3__118__unwrap_iter_implINS_16reverse_iteratorIPP4EdgeEELb0EE8__unwrapB8ue170006ES5_, symObjAddr: 0xD0C8, symBinAddr: 0x100010040, symSize: 0x274 }
  - { offsetInCU: 0x1F90F, offset: 0x1F90F, size: 0x8, addend: 0x0, symName: __ZNSt3__14pairINS_16reverse_iteratorIPP4EdgeEES5_EC1B8ue170006IS5_S5_LPv0EEEOT_OT0_, symObjAddr: 0xD33C, symBinAddr: 0x1000102B4, symSize: 0x3C }
  - { offsetInCU: 0x1F96D, offset: 0x1F96D, size: 0x8, addend: 0x0, symName: __ZNSt3__14pairINS_16reverse_iteratorIPP4EdgeEES5_EC2B8ue170006IS5_S5_LPv0EEEOT_OT0_, symObjAddr: 0xD378, symBinAddr: 0x1000102F0, symSize: 0x54 }
  - { offsetInCU: 0x1F9CB, offset: 0x1F9CB, size: 0x8, addend: 0x0, symName: __ZNSt3__118__unwrap_iter_implINS_16reverse_iteratorIPP4EdgeEELb0EE8__rewrapB8ue170006ES5_S5_, symObjAddr: 0xD3CC, symBinAddr: 0x100010344, symSize: 0x2E0 }
  - { offsetInCU: 0x1FA00, offset: 0x1FA00, size: 0x8, addend: 0x0, symName: __ZNSt3__116reverse_iteratorIPP4EdgeEC2B8ue170006ES3_, symObjAddr: 0xD6AC, symBinAddr: 0x100010624, symSize: 0xB8 }
  - { offsetInCU: 0x1FA38, offset: 0x1FA38, size: 0x8, addend: 0x0, symName: __ZNSt3__117__compressed_pairIPP4EdgeNS_9allocatorIS2_EEE5firstB8ue170006Ev, symObjAddr: 0xD764, symBinAddr: 0x1000106DC, symSize: 0x24 }
  - { offsetInCU: 0x1FA5E, offset: 0x1FA5E, size: 0x8, addend: 0x0, symName: __ZNSt3__114__split_bufferIP4EdgeRNS_9allocatorIS2_EEED2Ev, symObjAddr: 0xD788, symBinAddr: 0x100010700, symSize: 0x104 }
  - { offsetInCU: 0x1FA8A, offset: 0x1FA8A, size: 0x8, addend: 0x0, symName: __ZNSt3__114__split_bufferIP4EdgeRNS_9allocatorIS2_EEE5clearB8ue170006Ev, symObjAddr: 0xD88C, symBinAddr: 0x100010804, symSize: 0x68 }
  - { offsetInCU: 0x1FAB0, offset: 0x1FAB0, size: 0x8, addend: 0x0, symName: __ZNKSt3__114__split_bufferIP4EdgeRNS_9allocatorIS2_EEE8capacityB8ue170006Ev, symObjAddr: 0xD8F4, symBinAddr: 0x10001086C, symSize: 0xBC }
  - { offsetInCU: 0x1FAD6, offset: 0x1FAD6, size: 0x8, addend: 0x0, symName: __ZNSt3__114__split_bufferIP4EdgeRNS_9allocatorIS2_EEE17__destruct_at_endB8ue170006EPS2_, symObjAddr: 0xD9B0, symBinAddr: 0x100010928, symSize: 0x2C }
  - { offsetInCU: 0x1FB0A, offset: 0x1FB0A, size: 0x8, addend: 0x0, symName: __ZNSt3__114__split_bufferIP4EdgeRNS_9allocatorIS2_EEE17__destruct_at_endB8ue170006EPS2_NS_17integral_constantIbLb0EEE, symObjAddr: 0xD9DC, symBinAddr: 0x100010954, symSize: 0x10C }
  - { offsetInCU: 0x1FB4A, offset: 0x1FB4A, size: 0x8, addend: 0x0, symName: __ZNKSt3__114__split_bufferIP4EdgeRNS_9allocatorIS2_EEE9__end_capB8ue170006Ev, symObjAddr: 0xDAE8, symBinAddr: 0x100010A60, symSize: 0x28 }
  - { offsetInCU: 0x1FB70, offset: 0x1FB70, size: 0x8, addend: 0x0, symName: __ZNKSt3__117__compressed_pairIPP4EdgeRNS_9allocatorIS2_EEE5firstB8ue170006Ev, symObjAddr: 0xDB10, symBinAddr: 0x100010A88, symSize: 0x24 }
  - { offsetInCU: 0x1FB96, offset: 0x1FB96, size: 0x8, addend: 0x0, symName: __ZNSt3__111char_traitsIcE6lengthB8ue170006EPKc, symObjAddr: 0xE278, symBinAddr: 0x1000111F0, symSize: 0x40 }
  - { offsetInCU: 0x1FBD7, offset: 0x1FBD7, size: 0x8, addend: 0x0, symName: __ZNKSt3__113basic_ostreamIcNS_11char_traitsIcEEE6sentrycvbB8ue170006Ev, symObjAddr: 0xE2B8, symBinAddr: 0x100011230, symSize: 0x88 }
  - { offsetInCU: 0x1FBFD, offset: 0x1FBFD, size: 0x8, addend: 0x0, symName: __ZNSt3__119ostreambuf_iteratorIcNS_11char_traitsIcEEEC1B8ue170006ERNS_13basic_ostreamIcS2_EE, symObjAddr: 0xEAA0, symBinAddr: 0x100011A18, symSize: 0x34 }
  - { offsetInCU: 0x1FC35, offset: 0x1FC35, size: 0x8, addend: 0x0, symName: __ZNKSt3__18ios_base5flagsB8ue170006Ev, symObjAddr: 0xEAD4, symBinAddr: 0x100011A4C, symSize: 0x8C }
  - { offsetInCU: 0x1FC5D, offset: 0x1FC5D, size: 0x8, addend: 0x0, symName: __ZNKSt3__19basic_iosIcNS_11char_traitsIcEEE4fillB8ue170006Ev, symObjAddr: 0xEB60, symBinAddr: 0x100011AD8, symSize: 0x198 }
  - { offsetInCU: 0x1FC85, offset: 0x1FC85, size: 0x8, addend: 0x0, symName: __ZNKSt3__119ostreambuf_iteratorIcNS_11char_traitsIcEEE6failedB8ue170006Ev, symObjAddr: 0xECF8, symBinAddr: 0x100011C70, symSize: 0x6C }
  - { offsetInCU: 0x1FCAB, offset: 0x1FCAB, size: 0x8, addend: 0x0, symName: __ZNSt3__19basic_iosIcNS_11char_traitsIcEEE8setstateB8ue170006Ej, symObjAddr: 0xED64, symBinAddr: 0x100011CDC, symSize: 0x2C }
  - { offsetInCU: 0x1FCE0, offset: 0x1FCE0, size: 0x8, addend: 0x0, symName: __ZNKSt3__18ios_base5widthB8ue170006Ev, symObjAddr: 0xED90, symBinAddr: 0x100011D08, symSize: 0x64 }
  - { offsetInCU: 0x1FD08, offset: 0x1FD08, size: 0x8, addend: 0x0, symName: __ZNSt3__115basic_streambufIcNS_11char_traitsIcEEE5sputnB8ue170006EPKcl, symObjAddr: 0xEDF4, symBinAddr: 0x100011D6C, symSize: 0xC8 }
  - { offsetInCU: 0x1FD4A, offset: 0x1FD4A, size: 0x8, addend: 0x0, symName: __ZNSt3__112basic_stringIcNS_11char_traitsIcEENS_9allocatorIcEEEC1B8ue170006Emc, symObjAddr: 0xEEBC, symBinAddr: 0x100011E34, symSize: 0x3C }
  - { offsetInCU: 0x1FD92, offset: 0x1FD92, size: 0x8, addend: 0x0, symName: __ZNSt3__112basic_stringIcNS_11char_traitsIcEENS_9allocatorIcEEE4dataB8ue170006Ev, symObjAddr: 0xEEF8, symBinAddr: 0x100011E70, symSize: 0x28 }
  - { offsetInCU: 0x1FDB8, offset: 0x1FDB8, size: 0x8, addend: 0x0, symName: __ZNSt3__18ios_base5widthB8ue170006El, symObjAddr: 0xEF20, symBinAddr: 0x100011E98, symSize: 0xB8 }
  - { offsetInCU: 0x1FDFE, offset: 0x1FDFE, size: 0x8, addend: 0x0, symName: __ZNSt3__112basic_stringIcNS_11char_traitsIcEENS_9allocatorIcEEEC2B8ue170006Emc, symObjAddr: 0xEFD8, symBinAddr: 0x100011F50, symSize: 0x204 }
  - { offsetInCU: 0x1FE49, offset: 0x1FE49, size: 0x8, addend: 0x0, symName: __ZNSt3__117__compressed_pairINS_12basic_stringIcNS_11char_traitsIcEENS_9allocatorIcEEE5__repES5_EC1B8ue170006INS_18__default_init_tagESA_EEOT_OT0_, symObjAddr: 0xF1DC, symBinAddr: 0x100012154, symSize: 0x3C }
  - { offsetInCU: 0x1FEA1, offset: 0x1FEA1, size: 0x8, addend: 0x0, symName: __ZNSt3__117__compressed_pairINS_12basic_stringIcNS_11char_traitsIcEENS_9allocatorIcEEE5__repES5_EC2B8ue170006INS_18__default_init_tagESA_EEOT_OT0_, symObjAddr: 0xF218, symBinAddr: 0x100012190, symSize: 0x3C }
  - { offsetInCU: 0x1FEF9, offset: 0x1FEF9, size: 0x8, addend: 0x0, symName: __ZNSt3__122__compressed_pair_elemINS_12basic_stringIcNS_11char_traitsIcEENS_9allocatorIcEEE5__repELi0ELb0EEC2B8ue170006ENS_18__default_init_tagE, symObjAddr: 0xF254, symBinAddr: 0x1000121CC, symSize: 0x14 }
  - { offsetInCU: 0x1FF2D, offset: 0x1FF2D, size: 0x8, addend: 0x0, symName: __ZNSt3__122__compressed_pair_elemINS_9allocatorIcEELi1ELb1EEC2B8ue170006ENS_18__default_init_tagE, symObjAddr: 0xF268, symBinAddr: 0x1000121E0, symSize: 0x2C }
  - { offsetInCU: 0x1FF61, offset: 0x1FF61, size: 0x8, addend: 0x0, symName: __ZNSt3__19allocatorIcEC2B8ue170006Ev, symObjAddr: 0xF294, symBinAddr: 0x10001220C, symSize: 0x2C }
  - { offsetInCU: 0x1FF8B, offset: 0x1FF8B, size: 0x8, addend: 0x0, symName: __ZNSt3__116__non_trivial_ifILb1ENS_9allocatorIcEEEC2B8ue170006Ev, symObjAddr: 0xF2C0, symBinAddr: 0x100012238, symSize: 0x14 }
  - { offsetInCU: 0x1FFB5, offset: 0x1FFB5, size: 0x8, addend: 0x0, symName: __ZNSt3__112basic_stringIcNS_11char_traitsIcEENS_9allocatorIcEEE13__get_pointerB8ue170006Ev, symObjAddr: 0xF2E8, symBinAddr: 0x100012260, symSize: 0x54 }
  - { offsetInCU: 0x1FFDB, offset: 0x1FFDB, size: 0x8, addend: 0x0, symName: __ZNKSt3__112basic_stringIcNS_11char_traitsIcEENS_9allocatorIcEEE9__is_longB8ue170006Ev, symObjAddr: 0xF33C, symBinAddr: 0x1000122B4, symSize: 0xA4 }
  - { offsetInCU: 0x20001, offset: 0x20001, size: 0x8, addend: 0x0, symName: __ZNSt3__112basic_stringIcNS_11char_traitsIcEENS_9allocatorIcEEE18__get_long_pointerB8ue170006Ev, symObjAddr: 0xF3E0, symBinAddr: 0x100012358, symSize: 0x6C }
  - { offsetInCU: 0x20027, offset: 0x20027, size: 0x8, addend: 0x0, symName: __ZNSt3__112basic_stringIcNS_11char_traitsIcEENS_9allocatorIcEEE19__get_short_pointerB8ue170006Ev, symObjAddr: 0xF44C, symBinAddr: 0x1000123C4, symSize: 0x28 }
  - { offsetInCU: 0x2004D, offset: 0x2004D, size: 0x8, addend: 0x0, symName: __ZNKSt3__117__compressed_pairINS_12basic_stringIcNS_11char_traitsIcEENS_9allocatorIcEEE5__repES5_E5firstB8ue170006Ev, symObjAddr: 0xF474, symBinAddr: 0x1000123EC, symSize: 0x24 }
  - { offsetInCU: 0x20073, offset: 0x20073, size: 0x8, addend: 0x0, symName: __ZNKSt3__122__compressed_pair_elemINS_12basic_stringIcNS_11char_traitsIcEENS_9allocatorIcEEE5__repELi0ELb0EE5__getB8ue170006Ev, symObjAddr: 0xF498, symBinAddr: 0x100012410, symSize: 0x14 }
  - { offsetInCU: 0x20099, offset: 0x20099, size: 0x8, addend: 0x0, symName: __ZNSt3__117__compressed_pairINS_12basic_stringIcNS_11char_traitsIcEENS_9allocatorIcEEE5__repES5_E5firstB8ue170006Ev, symObjAddr: 0xF4AC, symBinAddr: 0x100012424, symSize: 0x24 }
  - { offsetInCU: 0x200BF, offset: 0x200BF, size: 0x8, addend: 0x0, symName: __ZNSt3__122__compressed_pair_elemINS_12basic_stringIcNS_11char_traitsIcEENS_9allocatorIcEEE5__repELi0ELb0EE5__getB8ue170006Ev, symObjAddr: 0xF4D0, symBinAddr: 0x100012448, symSize: 0x14 }
  - { offsetInCU: 0x200E5, offset: 0x200E5, size: 0x8, addend: 0x0, symName: __ZNSt3__114pointer_traitsIPcE10pointer_toB8ue170006ERc, symObjAddr: 0xF4E4, symBinAddr: 0x10001245C, symSize: 0x14 }
  - { offsetInCU: 0x20108, offset: 0x20108, size: 0x8, addend: 0x0, symName: __ZNSt3__119ostreambuf_iteratorIcNS_11char_traitsIcEEEC2B8ue170006ERNS_13basic_ostreamIcS2_EE, symObjAddr: 0xF4F8, symBinAddr: 0x100012470, symSize: 0x10C }
  - { offsetInCU: 0x20140, offset: 0x20140, size: 0x8, addend: 0x0, symName: __ZNKSt3__19basic_iosIcNS_11char_traitsIcEEE5rdbufB8ue170006Ev, symObjAddr: 0xF604, symBinAddr: 0x10001257C, symSize: 0x24 }
  - { offsetInCU: 0x20168, offset: 0x20168, size: 0x8, addend: 0x0, symName: __ZNKSt3__18ios_base5rdbufB8ue170006Ev, symObjAddr: 0xF628, symBinAddr: 0x1000125A0, symSize: 0x64 }
  - { offsetInCU: 0x2018E, offset: 0x2018E, size: 0x8, addend: 0x0, symName: __ZNSt3__111char_traitsIcE11eq_int_typeB8ue170006Eii, symObjAddr: 0xF68C, symBinAddr: 0x100012604, symSize: 0x28 }
  - { offsetInCU: 0x201C1, offset: 0x201C1, size: 0x8, addend: 0x0, symName: __ZNSt3__111char_traitsIcE3eofB8ue170006Ev, symObjAddr: 0xF6B4, symBinAddr: 0x10001262C, symSize: 0x8 }
  - { offsetInCU: 0x201D5, offset: 0x201D5, size: 0x8, addend: 0x0, symName: __ZNKSt3__19basic_iosIcNS_11char_traitsIcEEE5widenB8ue170006Ec, symObjAddr: 0xF6BC, symBinAddr: 0x100012634, symSize: 0x2A4 }
  - { offsetInCU: 0x20240, offset: 0x20240, size: 0x8, addend: 0x0, symName: __ZNKSt3__15ctypeIcE5widenB8ue170006Ec, symObjAddr: 0xF98C, symBinAddr: 0x100012904, symSize: 0xBC }
  - { offsetInCU: 0x20275, offset: 0x20275, size: 0x8, addend: 0x0, symName: __ZNSt3__18ios_base8setstateB8ue170006Ej, symObjAddr: 0xFA48, symBinAddr: 0x1000129C0, symSize: 0x9C }
  - { offsetInCU: 0x202AC, offset: 0x202AC, size: 0x8, addend: 0x0, symName: __ZNSt3__16vectorIP4EdgeNS_9allocatorIS2_EEE22__construct_one_at_endB8ue170006IJRKS2_EEEvDpOT_, symObjAddr: 0xFB08, symBinAddr: 0x100012A80, symSize: 0x36C }
  - { offsetInCU: 0x20301, offset: 0x20301, size: 0x8, addend: 0x0, symName: __ZNSt3__16vectorIP4EdgeNS_9allocatorIS2_EEE21__push_back_slow_pathIRKS2_EEvOT_, symObjAddr: 0xFE74, symBinAddr: 0x100012DEC, symSize: 0x3C0 }
  - { offsetInCU: 0x2037F, offset: 0x2037F, size: 0x8, addend: 0x0, symName: __ZNSt3__16vectorIP4EdgeNS_9allocatorIS2_EEE21_ConstructTransactionC1B8ue170006ERS5_m, symObjAddr: 0x10234, symBinAddr: 0x1000131AC, symSize: 0x3C }
  - { offsetInCU: 0x203C7, offset: 0x203C7, size: 0x8, addend: 0x0, symName: __ZNSt3__116allocator_traitsINS_9allocatorIP4EdgeEEE9constructB8ue170006IS3_JRKS3_EvEEvRS4_PT_DpOT0_, symObjAddr: 0x10270, symBinAddr: 0x1000131E8, symSize: 0x34 }
  - { offsetInCU: 0x2041E, offset: 0x2041E, size: 0x8, addend: 0x0, symName: __ZNSt3__16vectorIP4EdgeNS_9allocatorIS2_EEE21_ConstructTransactionD1B8ue170006Ev, symObjAddr: 0x102A4, symBinAddr: 0x10001321C, symSize: 0x2C }
  - { offsetInCU: 0x20448, offset: 0x20448, size: 0x8, addend: 0x0, symName: __ZNSt3__16vectorIP4EdgeNS_9allocatorIS2_EEE21_ConstructTransactionC2B8ue170006ERS5_m, symObjAddr: 0x102D0, symBinAddr: 0x100013248, symSize: 0x1D0 }
  - { offsetInCU: 0x20490, offset: 0x20490, size: 0x8, addend: 0x0, symName: __ZNKSt3__16vectorIP4EdgeNS_9allocatorIS2_EEE19__annotate_increaseB8ue170006Em, symObjAddr: 0x104A0, symBinAddr: 0x100013418, symSize: 0xD8 }
  - { offsetInCU: 0x204C5, offset: 0x204C5, size: 0x8, addend: 0x0, symName: __ZNSt3__19allocatorIP4EdgeE9constructB8ue170006IS2_JRKS2_EEEvPT_DpOT0_, symObjAddr: 0x10578, symBinAddr: 0x1000134F0, symSize: 0xB4 }
  - { offsetInCU: 0x2051B, offset: 0x2051B, size: 0x8, addend: 0x0, symName: __ZNSt3__16vectorIP4EdgeNS_9allocatorIS2_EEE21_ConstructTransactionD2B8ue170006Ev, symObjAddr: 0x1062C, symBinAddr: 0x1000135A4, symSize: 0x278 }
  - { offsetInCU: 0x20545, offset: 0x20545, size: 0x8, addend: 0x0, symName: __ZNKSt3__16vectorIP4EdgeNS_9allocatorIS2_EEE17__annotate_shrinkB8ue170006Em, symObjAddr: 0x108A4, symBinAddr: 0x10001381C, symSize: 0xC8 }
  - { offsetInCU: 0x2057A, offset: 0x2057A, size: 0x8, addend: 0x0, symName: __ZNKSt3__16vectorIP4EdgeNS_9allocatorIS2_EEE11__recommendB8ue170006Em, symObjAddr: 0x1096C, symBinAddr: 0x1000138E4, symSize: 0x384 }
  - { offsetInCU: 0x205D6, offset: 0x205D6, size: 0x8, addend: 0x0, symName: __ZNSt3__16vectorIP4NodeNS_9allocatorIS2_EEE22__construct_one_at_endB8ue170006IJRKS2_EEEvDpOT_, symObjAddr: 0x10CF0, symBinAddr: 0x100013C68, symSize: 0x36C }
  - { offsetInCU: 0x2062B, offset: 0x2062B, size: 0x8, addend: 0x0, symName: __ZNSt3__16vectorIP4NodeNS_9allocatorIS2_EEE21__push_back_slow_pathIRKS2_EEvOT_, symObjAddr: 0x1105C, symBinAddr: 0x100013FD4, symSize: 0x3C0 }
  - { offsetInCU: 0x20690, offset: 0x20690, size: 0x8, addend: 0x0, symName: __ZNSt3__116allocator_traitsINS_9allocatorIP4NodeEEE9constructB8ue170006IS3_JRKS3_EvEEvRS4_PT_DpOT0_, symObjAddr: 0x1141C, symBinAddr: 0x100014394, symSize: 0x34 }
  - { offsetInCU: 0x206E7, offset: 0x206E7, size: 0x8, addend: 0x0, symName: __ZNSt3__19allocatorIP4NodeE9constructB8ue170006IS2_JRKS2_EEEvPT_DpOT0_, symObjAddr: 0x11450, symBinAddr: 0x1000143C8, symSize: 0xB4 }
  - { offsetInCU: 0x2073D, offset: 0x2073D, size: 0x8, addend: 0x0, symName: __ZNSt3__114__split_bufferIP4NodeRNS_9allocatorIS2_EEEC1EmmS5_, symObjAddr: 0x11504, symBinAddr: 0x10001447C, symSize: 0x44 }
  - { offsetInCU: 0x20793, offset: 0x20793, size: 0x8, addend: 0x0, symName: __ZNSt3__114__split_bufferIP4NodeRNS_9allocatorIS2_EEED1Ev, symObjAddr: 0x11AB4, symBinAddr: 0x100014A2C, symSize: 0x2C }
  - { offsetInCU: 0x207BF, offset: 0x207BF, size: 0x8, addend: 0x0, symName: __ZNSt3__114__split_bufferIP4NodeRNS_9allocatorIS2_EEEC2EmmS5_, symObjAddr: 0x11AE0, symBinAddr: 0x100014A58, symSize: 0x520 }
  - { offsetInCU: 0x2083A, offset: 0x2083A, size: 0x8, addend: 0x0, symName: __ZNSt3__117__compressed_pairIPP4NodeRNS_9allocatorIS2_EEEC1B8ue170006IDnS6_EEOT_OT0_, symObjAddr: 0x12000, symBinAddr: 0x100014F78, symSize: 0x3C }
  - { offsetInCU: 0x20892, offset: 0x20892, size: 0x8, addend: 0x0, symName: __ZNSt3__114__split_bufferIP4NodeRNS_9allocatorIS2_EEE7__allocB8ue170006Ev, symObjAddr: 0x1203C, symBinAddr: 0x100014FB4, symSize: 0x28 }
  - { offsetInCU: 0x208B8, offset: 0x208B8, size: 0x8, addend: 0x0, symName: __ZNSt3__114__split_bufferIP4NodeRNS_9allocatorIS2_EEE9__end_capB8ue170006Ev, symObjAddr: 0x12064, symBinAddr: 0x100014FDC, symSize: 0x28 }
  - { offsetInCU: 0x208DE, offset: 0x208DE, size: 0x8, addend: 0x0, symName: __ZNSt3__117__compressed_pairIPP4NodeRNS_9allocatorIS2_EEEC2B8ue170006IDnS6_EEOT_OT0_, symObjAddr: 0x1208C, symBinAddr: 0x100015004, symSize: 0x48 }
  - { offsetInCU: 0x20936, offset: 0x20936, size: 0x8, addend: 0x0, symName: __ZNSt3__122__compressed_pair_elemIRNS_9allocatorIP4NodeEELi1ELb0EEC2B8ue170006IS5_vEEOT_, symObjAddr: 0x120D4, symBinAddr: 0x10001504C, symSize: 0x70 }
  - { offsetInCU: 0x20978, offset: 0x20978, size: 0x8, addend: 0x0, symName: __ZNSt3__117__compressed_pairIPP4NodeRNS_9allocatorIS2_EEE6secondB8ue170006Ev, symObjAddr: 0x12144, symBinAddr: 0x1000150BC, symSize: 0x28 }
  - { offsetInCU: 0x2099E, offset: 0x2099E, size: 0x8, addend: 0x0, symName: __ZNSt3__122__compressed_pair_elemIRNS_9allocatorIP4NodeEELi1ELb0EE5__getB8ue170006Ev, symObjAddr: 0x1216C, symBinAddr: 0x1000150E4, symSize: 0x60 }
  - { offsetInCU: 0x209C4, offset: 0x209C4, size: 0x8, addend: 0x0, symName: __ZNSt3__117__compressed_pairIPP4NodeRNS_9allocatorIS2_EEE5firstB8ue170006Ev, symObjAddr: 0x121CC, symBinAddr: 0x100015144, symSize: 0x24 }
  - { offsetInCU: 0x209EA, offset: 0x209EA, size: 0x8, addend: 0x0, symName: __ZNSt3__116reverse_iteratorIPP4NodeEC1B8ue170006ES3_, symObjAddr: 0x12698, symBinAddr: 0x100015610, symSize: 0x34 }
  - { offsetInCU: 0x20A22, offset: 0x20A22, size: 0x8, addend: 0x0, symName: __ZNKSt3__116reverse_iteratorIPP4NodeE4baseB8ue170006Ev, symObjAddr: 0x126CC, symBinAddr: 0x100015644, symSize: 0x64 }
  - { offsetInCU: 0x20A61, offset: 0x20A61, size: 0x8, addend: 0x0, symName: __ZNKSt3__111__move_loopINS_17_ClassicAlgPolicyEEclB8ue170006INS_16reverse_iteratorIPP4NodeEES8_S8_EENS_4pairIT_T1_EESA_T0_SB_, symObjAddr: 0x14224, symBinAddr: 0x10001719C, symSize: 0x3A8 }
  - { offsetInCU: 0x20ADE, offset: 0x20ADE, size: 0x8, addend: 0x0, symName: __ZNSt3__18_IterOpsINS_17_ClassicAlgPolicyEE11__iter_moveB8ue170006IRNS_16reverse_iteratorIPP4NodeEEEENS_9enable_ifIXsr12is_referenceIDTdeclsr3stdE7declvalIRT_EEEEE5valueEDTclsr3stdE4movedeclsr3stdE7declvalISC_EEEEE4typeEOSB_, symObjAddr: 0x150F4, symBinAddr: 0x10001806C, symSize: 0x28 }
  - { offsetInCU: 0x20B0A, offset: 0x20B0A, size: 0x8, addend: 0x0, symName: __ZNKSt3__116reverse_iteratorIPP4NodeEdeB8ue170006Ev, symObjAddr: 0x1511C, symBinAddr: 0x100018094, symSize: 0x74 }
  - { offsetInCU: 0x20B3E, offset: 0x20B3E, size: 0x8, addend: 0x0, symName: __ZNSt3__116reverse_iteratorIPP4NodeEppB8ue170006Ev, symObjAddr: 0x15190, symBinAddr: 0x100018108, symSize: 0x6C }
  - { offsetInCU: 0x20B64, offset: 0x20B64, size: 0x8, addend: 0x0, symName: __ZNSt3__18_IterOpsINS_17_ClassicAlgPolicyEE25__validate_iter_referenceB8ue170006IRNS_16reverse_iteratorIPP4NodeEEEEvv, symObjAddr: 0x151FC, symBinAddr: 0x100018174, symSize: 0x4 }
  - { offsetInCU: 0x20B82, offset: 0x20B82, size: 0x8, addend: 0x0, symName: __ZNSt3__118__unwrap_iter_implINS_16reverse_iteratorIPP4NodeEELb0EE8__unwrapB8ue170006ES5_, symObjAddr: 0x15200, symBinAddr: 0x100018178, symSize: 0x274 }
  - { offsetInCU: 0x20BAE, offset: 0x20BAE, size: 0x8, addend: 0x0, symName: __ZNSt3__14pairINS_16reverse_iteratorIPP4NodeEES5_EC1B8ue170006IS5_S5_LPv0EEEOT_OT0_, symObjAddr: 0x15474, symBinAddr: 0x1000183EC, symSize: 0x3C }
  - { offsetInCU: 0x20C0C, offset: 0x20C0C, size: 0x8, addend: 0x0, symName: __ZNSt3__14pairINS_16reverse_iteratorIPP4NodeEES5_EC2B8ue170006IS5_S5_LPv0EEEOT_OT0_, symObjAddr: 0x154B0, symBinAddr: 0x100018428, symSize: 0x54 }
  - { offsetInCU: 0x20C6A, offset: 0x20C6A, size: 0x8, addend: 0x0, symName: __ZNSt3__118__unwrap_iter_implINS_16reverse_iteratorIPP4NodeEELb0EE8__rewrapB8ue170006ES5_S5_, symObjAddr: 0x15504, symBinAddr: 0x10001847C, symSize: 0x2E0 }
  - { offsetInCU: 0x20C9F, offset: 0x20C9F, size: 0x8, addend: 0x0, symName: __ZNSt3__116reverse_iteratorIPP4NodeEC2B8ue170006ES3_, symObjAddr: 0x157E4, symBinAddr: 0x10001875C, symSize: 0xB8 }
  - { offsetInCU: 0x20CD7, offset: 0x20CD7, size: 0x8, addend: 0x0, symName: __ZNSt3__114__split_bufferIP4NodeRNS_9allocatorIS2_EEED2Ev, symObjAddr: 0x1589C, symBinAddr: 0x100018814, symSize: 0x104 }
  - { offsetInCU: 0x20D03, offset: 0x20D03, size: 0x8, addend: 0x0, symName: __ZNSt3__114__split_bufferIP4NodeRNS_9allocatorIS2_EEE5clearB8ue170006Ev, symObjAddr: 0x159A0, symBinAddr: 0x100018918, symSize: 0x68 }
  - { offsetInCU: 0x20D29, offset: 0x20D29, size: 0x8, addend: 0x0, symName: __ZNKSt3__114__split_bufferIP4NodeRNS_9allocatorIS2_EEE8capacityB8ue170006Ev, symObjAddr: 0x15A08, symBinAddr: 0x100018980, symSize: 0xBC }
  - { offsetInCU: 0x20D4F, offset: 0x20D4F, size: 0x8, addend: 0x0, symName: __ZNSt3__114__split_bufferIP4NodeRNS_9allocatorIS2_EEE17__destruct_at_endB8ue170006EPS2_, symObjAddr: 0x15AC4, symBinAddr: 0x100018A3C, symSize: 0x2C }
  - { offsetInCU: 0x20D83, offset: 0x20D83, size: 0x8, addend: 0x0, symName: __ZNSt3__114__split_bufferIP4NodeRNS_9allocatorIS2_EEE17__destruct_at_endB8ue170006EPS2_NS_17integral_constantIbLb0EEE, symObjAddr: 0x15AF0, symBinAddr: 0x100018A68, symSize: 0x10C }
  - { offsetInCU: 0x20DC3, offset: 0x20DC3, size: 0x8, addend: 0x0, symName: __ZNKSt3__114__split_bufferIP4NodeRNS_9allocatorIS2_EEE9__end_capB8ue170006Ev, symObjAddr: 0x15BFC, symBinAddr: 0x100018B74, symSize: 0x28 }
  - { offsetInCU: 0x20DE9, offset: 0x20DE9, size: 0x8, addend: 0x0, symName: __ZNKSt3__117__compressed_pairIPP4NodeRNS_9allocatorIS2_EEE5firstB8ue170006Ev, symObjAddr: 0x15C24, symBinAddr: 0x100018B9C, symSize: 0x24 }
  - { offsetInCU: 0x3B, offset: 0x20F7F, size: 0x8, addend: 0x0, symName: _.str, symObjAddr: 0x24A0, symBinAddr: 0x1000B4840, symSize: 0x0 }
  - { offsetInCU: 0x6B, offset: 0x20FAF, size: 0x8, addend: 0x0, symName: _.str.1, symObjAddr: 0x24C0, symBinAddr: 0x1000B4860, symSize: 0x0 }
  - { offsetInCU: 0xB889, offset: 0x2C7CD, size: 0x8, addend: 0x0, symName: __ZN10ConnectionC2Ev, symObjAddr: 0x0, symBinAddr: 0x100018C58, symSize: 0x9C }
  - { offsetInCU: 0xB8B5, offset: 0x2C7F9, size: 0x8, addend: 0x0, symName: __ZN10ConnectionC1Ev, symObjAddr: 0x9C, symBinAddr: 0x100018CF4, symSize: 0x2C }
  - { offsetInCU: 0xB8E1, offset: 0x2C825, size: 0x8, addend: 0x0, symName: __ZN10ConnectionC2EP4EdgeP4Node, symObjAddr: 0xC8, symBinAddr: 0x100018D20, symSize: 0xBC }
  - { offsetInCU: 0xB929, offset: 0x2C86D, size: 0x8, addend: 0x0, symName: __ZN10ConnectionC1EP4EdgeP4Node, symObjAddr: 0x184, symBinAddr: 0x100018DDC, symSize: 0x3C }
  - { offsetInCU: 0xB971, offset: 0x2C8B5, size: 0x8, addend: 0x0, symName: __ZN10Connection10is_coveredEv, symObjAddr: 0x1C0, symBinAddr: 0x100018E18, symSize: 0x68 }
  - { offsetInCU: 0xB999, offset: 0x2C8DD, size: 0x8, addend: 0x0, symName: __ZlsRNSt3__113basic_ostreamIcNS_11char_traitsIcEEEER10Connection, symObjAddr: 0x228, symBinAddr: 0x100018E80, symSize: 0xD8 }
  - { offsetInCU: 0x3B, offset: 0x2C996, size: 0x8, addend: 0x0, symName: _.str, symObjAddr: 0x229E0, symBinAddr: 0x1000B4880, symSize: 0x0 }
  - { offsetInCU: 0x6B, offset: 0x2C9C6, size: 0x8, addend: 0x0, symName: _.str.1, symObjAddr: 0x22A00, symBinAddr: 0x1000B48A0, symSize: 0x0 }
  - { offsetInCU: 0x88, offset: 0x2C9E3, size: 0x8, addend: 0x0, symName: _.str.2, symObjAddr: 0x22A40, symBinAddr: 0x1000B48E0, symSize: 0x0 }
  - { offsetInCU: 0xA5, offset: 0x2CA00, size: 0x8, addend: 0x0, symName: _.str.3, symObjAddr: 0x22A60, symBinAddr: 0x1000B4900, symSize: 0x0 }
  - { offsetInCU: 0xC2, offset: 0x2CA1D, size: 0x8, addend: 0x0, symName: _.str.4, symObjAddr: 0x22AA0, symBinAddr: 0x1000B4940, symSize: 0x0 }
  - { offsetInCU: 0xDF, offset: 0x2CA3A, size: 0x8, addend: 0x0, symName: _.str.5, symObjAddr: 0x22AE0, symBinAddr: 0x1000B4980, symSize: 0x0 }
  - { offsetInCU: 0xFC, offset: 0x2CA57, size: 0x8, addend: 0x0, symName: _.str.6, symObjAddr: 0x22B00, symBinAddr: 0x1000B49A0, symSize: 0x0 }
  - { offsetInCU: 0x119, offset: 0x2CA74, size: 0x8, addend: 0x0, symName: _.str.7, symObjAddr: 0x22B20, symBinAddr: 0x1000B49C0, symSize: 0x0 }
  - { offsetInCU: 0x12B, offset: 0x2CA86, size: 0x8, addend: 0x0, symName: _.str.8, symObjAddr: 0x22B80, symBinAddr: 0x1000B4A20, symSize: 0x0 }
  - { offsetInCU: 0x14A, offset: 0x2CAA5, size: 0x8, addend: 0x0, symName: __ZNSt3__119piecewise_constructE, symObjAddr: 0x22BA0, symBinAddr: 0x1000B97AA, symSize: 0x0 }
  - { offsetInCU: 0x1662A, offset: 0x42F85, size: 0x8, addend: 0x0, symName: __ZNSt3__1neB8ue170006IPP4NodeEEbRKNS_11__wrap_iterIT_EES8_, symObjAddr: 0x2C70, symBinAddr: 0x10001BB18, symSize: 0x34 }
  - { offsetInCU: 0x1666D, offset: 0x42FC8, size: 0x8, addend: 0x0, symName: __ZNSt3__1neB8ue170006ERKNS_19__hash_map_iteratorINS_15__hash_iteratorIPNS_11__hash_nodeINS_17__hash_value_typeIP4NodeiEEPvEEEEEESD_, symObjAddr: 0x35E8, symBinAddr: 0x10001C490, symSize: 0x30 }
  - { offsetInCU: 0x166AA, offset: 0x43005, size: 0x8, addend: 0x0, symName: __ZNSt3__13getB8ue170006ILm0EKP4NodeiEERKNS_13tuple_elementIXT_ENS_4pairIT0_T1_EEE4typeERKS8_, symObjAddr: 0x3640, symBinAddr: 0x10001C4E8, symSize: 0x24 }
  - { offsetInCU: 0x166F4, offset: 0x4304F, size: 0x8, addend: 0x0, symName: __ZNSt3__13getB8ue170006ILm1EKP4NodeiEERKNS_13tuple_elementIXT_ENS_4pairIT0_T1_EEE4typeERKS8_, symObjAddr: 0x3664, symBinAddr: 0x10001C50C, symSize: 0x24 }
  - { offsetInCU: 0x1673E, offset: 0x43099, size: 0x8, addend: 0x0, symName: __ZNSt3__1neB8ue170006IPKP4EdgeEEbRKNS_11__wrap_iterIT_EES9_, symObjAddr: 0x46C8, symBinAddr: 0x10001D544, symSize: 0x34 }
  - { offsetInCU: 0x16781, offset: 0x430DC, size: 0x8, addend: 0x0, symName: __ZNSt3__1neB8ue170006IPP4EdgeEEbRKNS_11__wrap_iterIT_EES8_, symObjAddr: 0x4EC0, symBinAddr: 0x10001DB14, symSize: 0x34 }
  - { offsetInCU: 0x167C4, offset: 0x4311F, size: 0x8, addend: 0x0, symName: __ZNSt3__1eqB8ue170006IPP4NodeEEbRKNS_11__wrap_iterIT_EES8_, symObjAddr: 0x4FE8, symBinAddr: 0x10001DC10, symSize: 0x48 }
  - { offsetInCU: 0x16881, offset: 0x431DC, size: 0x8, addend: 0x0, symName: __ZNSt3__1eqB8ue170006IPKP4EdgeEEbRKNS_11__wrap_iterIT_EES9_, symObjAddr: 0x50BC, symBinAddr: 0x10001DCE4, symSize: 0x48 }
  - { offsetInCU: 0x168C4, offset: 0x4321F, size: 0x8, addend: 0x0, symName: __ZNSt3__1eqB8ue170006IPP4EdgeEEbRKNS_11__wrap_iterIT_EES8_, symObjAddr: 0x5164, symBinAddr: 0x10001DD8C, symSize: 0x48 }
  - { offsetInCU: 0x16907, offset: 0x43262, size: 0x8, addend: 0x0, symName: __ZNSt3__112__to_addressB8ue170006IP6CliqueEEPT_S4_, symObjAddr: 0x5A30, symBinAddr: 0x10001E658, symSize: 0x14 }
  - { offsetInCU: 0x1693C, offset: 0x43297, size: 0x8, addend: 0x0, symName: __ZNSt3__119__allocate_at_leastB8ue170006INS_9allocatorIP6CliqueEEEENS_19__allocation_resultINS_16allocator_traitsIT_E7pointerEEERS7_m, symObjAddr: 0x7C70, symBinAddr: 0x100020264, symSize: 0x28C }
  - { offsetInCU: 0x16981, offset: 0x432DC, size: 0x8, addend: 0x0, symName: __ZNSt3__142__uninitialized_allocator_move_if_noexceptB8ue170006INS_9allocatorIP6CliqueEENS_16reverse_iteratorIPS3_EES7_S3_vEET1_RT_T0_SB_S8_, symObjAddr: 0x8344, symBinAddr: 0x100020830, symSize: 0x4A8 }
  - { offsetInCU: 0x16A0B, offset: 0x43366, size: 0x8, addend: 0x0, symName: __ZNSt3__14swapB8ue170006IPP6CliqueEENS_9enable_ifIXaasr21is_move_constructibleIT_EE5valuesr18is_move_assignableIS5_EE5valueEvE4typeERS5_S8_, symObjAddr: 0x8884, symBinAddr: 0x100020D70, symSize: 0x134 }
  - { offsetInCU: 0x16A5C, offset: 0x433B7, size: 0x8, addend: 0x0, symName: __ZNSt3__14moveB8ue170006INS_16reverse_iteratorIPP6CliqueEES5_EET0_T_S7_S6_, symObjAddr: 0x8A78, symBinAddr: 0x100020F64, symSize: 0x4B0 }
  - { offsetInCU: 0x16AC3, offset: 0x4341E, size: 0x8, addend: 0x0, symName: __ZNSt3__16__moveB8ue170006INS_17_ClassicAlgPolicyENS_16reverse_iteratorIPP6CliqueEES6_S6_EENS_4pairIT0_T2_EES8_T1_S9_, symObjAddr: 0x8F28, symBinAddr: 0x100021414, symSize: 0x424 }
  - { offsetInCU: 0x16B3B, offset: 0x43496, size: 0x8, addend: 0x0, symName: __ZNSt3__123__dispatch_copy_or_moveB8ue170006INS_17_ClassicAlgPolicyENS_11__move_loopIS1_EENS_14__move_trivialENS_16reverse_iteratorIPP6CliqueEES9_S9_EENS_4pairIT2_T4_EESB_T3_SC_, symObjAddr: 0x934C, symBinAddr: 0x100021838, symSize: 0x424 }
  - { offsetInCU: 0x16BC5, offset: 0x43520, size: 0x8, addend: 0x0, symName: __ZNSt3__121__unwrap_and_dispatchB8ue170006INS_10__overloadINS_11__move_loopINS_17_ClassicAlgPolicyEEENS_14__move_trivialEEENS_16reverse_iteratorIPP6CliqueEESB_SB_Li0EEENS_4pairIT0_T2_EESD_T1_SE_, symObjAddr: 0x9770, symBinAddr: 0x100021C5C, symSize: 0x880 }
  - { offsetInCU: 0x16C69, offset: 0x435C4, size: 0x8, addend: 0x0, symName: __ZNSt3__114__unwrap_rangeB8ue170006INS_16reverse_iteratorIPP6CliqueEES5_EENS_4pairIT0_S7_EET_S9_, symObjAddr: 0x9FF0, symBinAddr: 0x1000224DC, symSize: 0x448 }
  - { offsetInCU: 0x16E22, offset: 0x4377D, size: 0x8, addend: 0x0, symName: __ZNSt3__113__unwrap_iterB8ue170006INS_16reverse_iteratorIPP6CliqueEENS_18__unwrap_iter_implIS5_Lb0EEELi0EEEDTclsrT0_8__unwrapclsr3stdE7declvalIT_EEEES9_, symObjAddr: 0xA7E0, symBinAddr: 0x100022CCC, symSize: 0x2EC }
  - { offsetInCU: 0x16E6A, offset: 0x437C5, size: 0x8, addend: 0x0, symName: __ZNSt3__19make_pairB8ue170006INS_16reverse_iteratorIPP6CliqueEES5_EENS_4pairINS_18__unwrap_ref_decayIT_E4typeENS7_IT0_E4typeEEEOS8_OSB_, symObjAddr: 0xAACC, symBinAddr: 0x100022FB8, symSize: 0x38 }
  - { offsetInCU: 0x16EB9, offset: 0x43814, size: 0x8, addend: 0x0, symName: __ZNSt3__114__rewrap_rangeB8ue170006INS_16reverse_iteratorIPP6CliqueEES5_EET_S6_T0_, symObjAddr: 0xAB04, symBinAddr: 0x100022FF0, symSize: 0x3D4 }
  - { offsetInCU: 0x16F0D, offset: 0x43868, size: 0x8, addend: 0x0, symName: __ZNSt3__113__rewrap_iterB8ue170006INS_16reverse_iteratorIPP6CliqueEES5_NS_18__unwrap_iter_implIS5_Lb0EEEEET_S8_T0_, symObjAddr: 0xAED8, symBinAddr: 0x1000233C4, symSize: 0x3E8 }
  - { offsetInCU: 0x16F6A, offset: 0x438C5, size: 0x8, addend: 0x0, symName: __ZNSt3__1neB8ue170006IPP6CliqueS3_EEbRKNS_16reverse_iteratorIT_EERKNS4_IT0_EE, symObjAddr: 0xB2C0, symBinAddr: 0x1000237AC, symSize: 0x48 }
  - { offsetInCU: 0x1709B, offset: 0x439F6, size: 0x8, addend: 0x0, symName: __ZNSt3__112__to_addressB8ue170006ImEEPT_S2_, symObjAddr: 0xCCA4, symBinAddr: 0x100025088, symSize: 0x14 }
  - { offsetInCU: 0x170D0, offset: 0x43A2B, size: 0x8, addend: 0x0, symName: __ZNSt3__122__make_exception_guardB8ue170006INS_6vectorImNS_9allocatorImEEE16__destroy_vectorEEENS_28__exception_guard_exceptionsIT_EES7_, symObjAddr: 0xD3B4, symBinAddr: 0x100025798, symSize: 0x278 }
  - { offsetInCU: 0x17109, offset: 0x43A64, size: 0x8, addend: 0x0, symName: __ZNSt3__119__allocate_at_leastB8ue170006INS_9allocatorImEEEENS_19__allocation_resultINS_16allocator_traitsIT_E7pointerEEERS5_m, symObjAddr: 0xE6A8, symBinAddr: 0x100026A8C, symSize: 0x28C }
  - { offsetInCU: 0x17181, offset: 0x43ADC, size: 0x8, addend: 0x0, symName: __ZNSt3__17launderB8ue170006INS_4pairIKP4NodeiEEEEPT_S7_, symObjAddr: 0x11574, symBinAddr: 0x100028E94, symSize: 0x24 }
  - { offsetInCU: 0x171B8, offset: 0x43B13, size: 0x8, addend: 0x0, symName: __ZNSt3__19__launderB8ue170006INS_4pairIKP4NodeiEEEEPT_S7_, symObjAddr: 0x11598, symBinAddr: 0x100028EB8, symSize: 0x14 }
  - { offsetInCU: 0x17226, offset: 0x43B81, size: 0x8, addend: 0x0, symName: __ZNSt3__116forward_as_tupleB8ue170006IJRKP4NodeEEENS_5tupleIJDpOT_EEES8_, symObjAddr: 0x12A50, symBinAddr: 0x10002A370, symSize: 0x1F8 }
  - { offsetInCU: 0x17260, offset: 0x43BBB, size: 0x8, addend: 0x0, symName: __ZNSt3__116forward_as_tupleB8ue170006IJEEENS_5tupleIJDpOT_EEES4_, symObjAddr: 0x12C48, symBinAddr: 0x10002A568, symSize: 0x4 }
  - { offsetInCU: 0x17284, offset: 0x43BDF, size: 0x8, addend: 0x0, symName: __ZNSt3__116__constrain_hashB8ue170006Emm, symObjAddr: 0x12D7C, symBinAddr: 0x10002A69C, symSize: 0x98 }
  - { offsetInCU: 0x172BE, offset: 0x43C19, size: 0x8, addend: 0x0, symName: __ZNSt3__116__is_hash_power2B8ue170006Em, symObjAddr: 0x13404, symBinAddr: 0x10002AD24, symSize: 0x50 }
  - { offsetInCU: 0x172EA, offset: 0x43C45, size: 0x8, addend: 0x0, symName: __ZNSt3__110__loadwordB8ue170006ImEET_PKv, symObjAddr: 0x14E30, symBinAddr: 0x10002C750, symSize: 0x214 }
  - { offsetInCU: 0x17332, offset: 0x43C8D, size: 0x8, addend: 0x0, symName: __ZNSt3__14swapB8ue170006ImEENS_9enable_ifIXaasr21is_move_constructibleIT_EE5valuesr18is_move_assignableIS2_EE5valueEvE4typeERS2_S5_, symObjAddr: 0x154CC, symBinAddr: 0x10002CDEC, symSize: 0x134 }
  - { offsetInCU: 0x17383, offset: 0x43CDE, size: 0x8, addend: 0x0, symName: __ZNSt3__110__loadwordB8ue170006IjEET_PKv, symObjAddr: 0x15654, symBinAddr: 0x10002CF74, symSize: 0x240 }
  - { offsetInCU: 0x173CB, offset: 0x43D26, size: 0x8, addend: 0x0, symName: __ZNSt3__17launderB8ue170006IKNS_4pairIKP4NodeiEEEEPT_S8_, symObjAddr: 0x15FF4, symBinAddr: 0x10002D914, symSize: 0x24 }
  - { offsetInCU: 0x17402, offset: 0x43D5D, size: 0x8, addend: 0x0, symName: __ZNSt3__19__launderB8ue170006IKNS_4pairIKP4NodeiEEEEPT_S8_, symObjAddr: 0x16018, symBinAddr: 0x10002D938, symSize: 0x14 }
  - { offsetInCU: 0x17463, offset: 0x43DBE, size: 0x8, addend: 0x0, symName: __ZNSt3__13getB8ue170006ILm0EJRKP4NodeEEERNS_13tuple_elementIXT_ENS_5tupleIJDpT0_EEEE4typeERS9_, symObjAddr: 0x16C04, symBinAddr: 0x10002E524, symSize: 0x24 }
  - { offsetInCU: 0x174A6, offset: 0x43E01, size: 0x8, addend: 0x0, symName: __ZNSt3__116__next_hash_pow2B8ue170006Em, symObjAddr: 0x17A60, symBinAddr: 0x10002F380, symSize: 0x6C }
  - { offsetInCU: 0x174D2, offset: 0x43E2D, size: 0x8, addend: 0x0, symName: __ZNSt3__112__libcpp_clzB8ue170006Em, symObjAddr: 0x17C9C, symBinAddr: 0x10002F5BC, symSize: 0x1C }
  - { offsetInCU: 0x17555, offset: 0x43EB0, size: 0x8, addend: 0x0, symName: __ZNSt3__1neB8ue170006ERKNS_15__hash_iteratorIPNS_11__hash_nodeINS_17__hash_value_typeIP4NodeiEEPvEEEESB_, symObjAddr: 0x18AFC, symBinAddr: 0x10003041C, symSize: 0x34 }
  - { offsetInCU: 0x17592, offset: 0x43EED, size: 0x8, addend: 0x0, symName: __ZNSt3__1eqB8ue170006ERKNS_15__hash_iteratorIPNS_11__hash_nodeINS_17__hash_value_typeIP4NodeiEEPvEEEESB_, symObjAddr: 0x18B30, symBinAddr: 0x100030450, symSize: 0xB8 }
  - { offsetInCU: 0x1892B, offset: 0x45286, size: 0x8, addend: 0x0, symName: __ZNSt3__16vectorIP6CliqueNS_9allocatorIS2_EEE26__swap_out_circular_bufferERNS_14__split_bufferIS2_RS4_EE, symObjAddr: 0x67A0, symBinAddr: 0x10001F3BC, symSize: 0x56C }
  - { offsetInCU: 0x1B0D0, offset: 0x47A2B, size: 0x8, addend: 0x0, symName: __ZN6ECC_CF3runEv, symObjAddr: 0x0, symBinAddr: 0x100018FF0, symSize: 0x454 }
  - { offsetInCU: 0x1B158, offset: 0x47AB3, size: 0x8, addend: 0x0, symName: __ZNSt3__16vectorIP6CliqueNS_9allocatorIS2_EEE9push_backB8ue170006ERKS2_, symObjAddr: 0x454, symBinAddr: 0x100019444, symSize: 0xE0 }
  - { offsetInCU: 0x1B18F, offset: 0x47AEA, size: 0x8, addend: 0x0, symName: __ZN6ECC_CFC2ENSt3__112basic_stringIcNS0_11char_traitsIcEENS0_9allocatorIcEEEE, symObjAddr: 0x534, symBinAddr: 0x100019524, symSize: 0x4BC }
  - { offsetInCU: 0x1B1CC, offset: 0x47B27, size: 0x8, addend: 0x0, symName: __ZNSt3__16vectorImNS_9allocatorImEEEC1B8ue170006Ev, symObjAddr: 0x9F0, symBinAddr: 0x1000199E0, symSize: 0x2C }
  - { offsetInCU: 0x1B1F6, offset: 0x47B51, size: 0x8, addend: 0x0, symName: __ZNSt3__16vectorImNS_9allocatorImEEEC1EmRKm, symObjAddr: 0xACC, symBinAddr: 0x100019A0C, symSize: 0x3C }
  - { offsetInCU: 0x1B240, offset: 0x47B9B, size: 0x8, addend: 0x0, symName: __ZNSt3__16vectorImNS_9allocatorImEEEaSB8ue170006EOS3_, symObjAddr: 0xB08, symBinAddr: 0x100019A48, symSize: 0x34 }
  - { offsetInCU: 0x1B277, offset: 0x47BD2, size: 0x8, addend: 0x0, symName: __ZNSt3__16vectorImNS_9allocatorImEEED1B8ue170006Ev, symObjAddr: 0xB3C, symBinAddr: 0x100019A7C, symSize: 0x2C }
  - { offsetInCU: 0x1B2A1, offset: 0x47BFC, size: 0x8, addend: 0x0, symName: __ZNSt3__112basic_stringIcNS_11char_traitsIcEENS_9allocatorIcEEEaSB8ue170006EPKc, symObjAddr: 0xB68, symBinAddr: 0x100019AA8, symSize: 0x2C }
  - { offsetInCU: 0x1B2D6, offset: 0x47C31, size: 0x8, addend: 0x0, symName: __ZN6ECC_FSD2Ev, symObjAddr: 0xB94, symBinAddr: 0x100019AD4, symSize: 0x2C }
  - { offsetInCU: 0x1B302, offset: 0x47C5D, size: 0x8, addend: 0x0, symName: __ZN6ECC_CFC1ENSt3__112basic_stringIcNS0_11char_traitsIcEENS0_9allocatorIcEEEE, symObjAddr: 0xBC0, symBinAddr: 0x100019B00, symSize: 0x34 }
  - { offsetInCU: 0x1B33D, offset: 0x47C98, size: 0x8, addend: 0x0, symName: __ZN6ECC_CFC2ER5Graph, symObjAddr: 0xBF4, symBinAddr: 0x100019B34, symSize: 0x430 }
  - { offsetInCU: 0x1B379, offset: 0x47CD4, size: 0x8, addend: 0x0, symName: __ZN6ECC_CFC1ER5Graph, symObjAddr: 0x1024, symBinAddr: 0x100019F64, symSize: 0x34 }
  - { offsetInCU: 0x1B3B3, offset: 0x47D0E, size: 0x8, addend: 0x0, symName: __ZN6ECC_CF21select_uncovered_edgeERi, symObjAddr: 0x1058, symBinAddr: 0x100019F98, symSize: 0x300 }
  - { offsetInCU: 0x1B405, offset: 0x47D60, size: 0x8, addend: 0x0, symName: __ZNKSt3__16vectorIP4EdgeNS_9allocatorIS2_EEEixB8ue170006Em, symObjAddr: 0x13C4, symBinAddr: 0x10001A298, symSize: 0x6C }
  - { offsetInCU: 0x1B43C, offset: 0x47D97, size: 0x8, addend: 0x0, symName: __ZN6ECC_CF14find_clique_ofEP4Edge, symObjAddr: 0x1430, symBinAddr: 0x10001A304, symSize: 0x734 }
  - { offsetInCU: 0x1B4C2, offset: 0x47E1D, size: 0x8, addend: 0x0, symName: __ZN6ECC_CF12extract_nodeERNSt3__16vectorIP4NodeNS0_9allocatorIS3_EEEEP6Clique, symObjAddr: 0x1B90, symBinAddr: 0x10001AA38, symSize: 0xB30 }
  - { offsetInCU: 0x1B679, offset: 0x47FD4, size: 0x8, addend: 0x0, symName: __ZNKSt3__16vectorIP4NodeNS_9allocatorIS2_EEE5emptyB8ue170006Ev, symObjAddr: 0x26C0, symBinAddr: 0x10001B568, symSize: 0xB0 }
  - { offsetInCU: 0x1B744, offset: 0x4809F, size: 0x8, addend: 0x0, symName: __ZNSt3__113unordered_mapIP4NodeiNS_4hashIS2_EENS_8equal_toIS2_EENS_9allocatorINS_4pairIKS2_iEEEEEC1B8ue170006Ev, symObjAddr: 0x2770, symBinAddr: 0x10001B618, symSize: 0x2C }
  - { offsetInCU: 0x1B76E, offset: 0x480C9, size: 0x8, addend: 0x0, symName: __ZNSt3__16vectorIP4NodeNS_9allocatorIS2_EEE5beginB8ue170006Ev, symObjAddr: 0x279C, symBinAddr: 0x10001B644, symSize: 0x268 }
  - { offsetInCU: 0x1B797, offset: 0x480F2, size: 0x8, addend: 0x0, symName: __ZNSt3__16vectorIP4NodeNS_9allocatorIS2_EEE3endB8ue170006Ev, symObjAddr: 0x2A04, symBinAddr: 0x10001B8AC, symSize: 0x26C }
  - { offsetInCU: 0x1B7C0, offset: 0x4811B, size: 0x8, addend: 0x0, symName: __ZNKSt3__111__wrap_iterIPP4NodeEdeB8ue170006Ev, symObjAddr: 0x2CA4, symBinAddr: 0x10001BB4C, symSize: 0x60 }
  - { offsetInCU: 0x1B7E6, offset: 0x48141, size: 0x8, addend: 0x0, symName: __ZNSt3__113unordered_mapIP4NodeiNS_4hashIS2_EENS_8equal_toIS2_EENS_9allocatorINS_4pairIKS2_iEEEEEixERS9_, symObjAddr: 0x2D04, symBinAddr: 0x10001BBAC, symSize: 0x314 }
  - { offsetInCU: 0x1B81F, offset: 0x4817A, size: 0x8, addend: 0x0, symName: __ZNSt3__111__wrap_iterIPP4NodeEppB8ue170006Ev, symObjAddr: 0x3018, symBinAddr: 0x10001BEC0, symSize: 0x68 }
  - { offsetInCU: 0x1B845, offset: 0x481A0, size: 0x8, addend: 0x0, symName: __ZNSt3__113unordered_mapIP4NodeiNS_4hashIS2_EENS_8equal_toIS2_EENS_9allocatorINS_4pairIKS2_iEEEEE5beginB8ue170006Ev, symObjAddr: 0x3080, symBinAddr: 0x10001BF28, symSize: 0x2B4 }
  - { offsetInCU: 0x1B86C, offset: 0x481C7, size: 0x8, addend: 0x0, symName: __ZNSt3__113unordered_mapIP4NodeiNS_4hashIS2_EENS_8equal_toIS2_EENS_9allocatorINS_4pairIKS2_iEEEEE3endB8ue170006Ev, symObjAddr: 0x3334, symBinAddr: 0x10001C1DC, symSize: 0x2B4 }
  - { offsetInCU: 0x1B893, offset: 0x481EE, size: 0x8, addend: 0x0, symName: __ZNKSt3__119__hash_map_iteratorINS_15__hash_iteratorIPNS_11__hash_nodeINS_17__hash_value_typeIP4NodeiEEPvEEEEEdeB8ue170006Ev, symObjAddr: 0x3618, symBinAddr: 0x10001C4C0, symSize: 0x28 }
  - { offsetInCU: 0x1B8B9, offset: 0x48214, size: 0x8, addend: 0x0, symName: __ZNSt3__119__hash_map_iteratorINS_15__hash_iteratorIPNS_11__hash_nodeINS_17__hash_value_typeIP4NodeiEEPvEEEEEppB8ue170006Ev, symObjAddr: 0x3688, symBinAddr: 0x10001C530, symSize: 0x2C }
  - { offsetInCU: 0x1B8DF, offset: 0x4823A, size: 0x8, addend: 0x0, symName: __ZNSt3__113unordered_mapIP4NodeiNS_4hashIS2_EENS_8equal_toIS2_EENS_9allocatorINS_4pairIKS2_iEEEEED1B8ue170006Ev, symObjAddr: 0x36B4, symBinAddr: 0x10001C55C, symSize: 0x2C }
  - { offsetInCU: 0x1B909, offset: 0x48264, size: 0x8, addend: 0x0, symName: __ZN6ECC_CF14check_solutionEv, symObjAddr: 0x36E0, symBinAddr: 0x10001C588, symSize: 0x160 }
  - { offsetInCU: 0x1B94D, offset: 0x482A8, size: 0x8, addend: 0x0, symName: __ZN6ECC_CF20check_solution_debugEv, symObjAddr: 0x3840, symBinAddr: 0x10001C6E8, symSize: 0x988 }
  - { offsetInCU: 0x1BA35, offset: 0x48390, size: 0x8, addend: 0x0, symName: __ZNKSt3__16vectorIP4EdgeNS_9allocatorIS2_EEE5beginB8ue170006Ev, symObjAddr: 0x41F4, symBinAddr: 0x10001D070, symSize: 0x268 }
  - { offsetInCU: 0x1BA5E, offset: 0x483B9, size: 0x8, addend: 0x0, symName: __ZNKSt3__16vectorIP4EdgeNS_9allocatorIS2_EEE3endB8ue170006Ev, symObjAddr: 0x445C, symBinAddr: 0x10001D2D8, symSize: 0x26C }
  - { offsetInCU: 0x1BA87, offset: 0x483E2, size: 0x8, addend: 0x0, symName: __ZNKSt3__111__wrap_iterIPKP4EdgeEdeB8ue170006Ev, symObjAddr: 0x46FC, symBinAddr: 0x10001D578, symSize: 0x60 }
  - { offsetInCU: 0x1BAAD, offset: 0x48408, size: 0x8, addend: 0x0, symName: __ZNSt3__111__wrap_iterIPKP4EdgeEppB8ue170006Ev, symObjAddr: 0x483C, symBinAddr: 0x10001D5D8, symSize: 0x68 }
  - { offsetInCU: 0x1BAD3, offset: 0x4842E, size: 0x8, addend: 0x0, symName: __ZNSt3__16vectorIP4EdgeNS_9allocatorIS2_EEE5beginB8ue170006Ev, symObjAddr: 0x49EC, symBinAddr: 0x10001D640, symSize: 0x268 }
  - { offsetInCU: 0x1BAFC, offset: 0x48457, size: 0x8, addend: 0x0, symName: __ZNSt3__16vectorIP4EdgeNS_9allocatorIS2_EEE3endB8ue170006Ev, symObjAddr: 0x4C54, symBinAddr: 0x10001D8A8, symSize: 0x26C }
  - { offsetInCU: 0x1BB25, offset: 0x48480, size: 0x8, addend: 0x0, symName: __ZNKSt3__111__wrap_iterIPP4EdgeEdeB8ue170006Ev, symObjAddr: 0x4EF4, symBinAddr: 0x10001DB48, symSize: 0x60 }
  - { offsetInCU: 0x1BB4B, offset: 0x484A6, size: 0x8, addend: 0x0, symName: __ZNSt3__111__wrap_iterIPP4EdgeEppB8ue170006Ev, symObjAddr: 0x4F54, symBinAddr: 0x10001DBA8, symSize: 0x68 }
  - { offsetInCU: 0x1BB71, offset: 0x484CC, size: 0x8, addend: 0x0, symName: __ZNKSt3__111__wrap_iterIPP4NodeE4baseB8ue170006Ev, symObjAddr: 0x5030, symBinAddr: 0x10001DC58, symSize: 0x60 }
  - { offsetInCU: 0x1BB97, offset: 0x484F2, size: 0x8, addend: 0x0, symName: __ZNSt3__110__get_pairILm0EE3getB8ue170006IKP4NodeiEERKT_RKNS_4pairIS6_T0_EE, symObjAddr: 0x5090, symBinAddr: 0x10001DCB8, symSize: 0x14 }
  - { offsetInCU: 0x1BBCD, offset: 0x48528, size: 0x8, addend: 0x0, symName: __ZNSt3__110__get_pairILm1EE3getB8ue170006IKP4NodeiEERKT0_RKNS_4pairIT_S6_EE, symObjAddr: 0x50A4, symBinAddr: 0x10001DCCC, symSize: 0x18 }
  - { offsetInCU: 0x1BC03, offset: 0x4855E, size: 0x8, addend: 0x0, symName: __ZNKSt3__111__wrap_iterIPKP4EdgeE4baseB8ue170006Ev, symObjAddr: 0x5104, symBinAddr: 0x10001DD2C, symSize: 0x60 }
  - { offsetInCU: 0x1BC29, offset: 0x48584, size: 0x8, addend: 0x0, symName: __ZNKSt3__111__wrap_iterIPP4EdgeE4baseB8ue170006Ev, symObjAddr: 0x51AC, symBinAddr: 0x10001DDD4, symSize: 0x60 }
  - { offsetInCU: 0x1BC4F, offset: 0x485AA, size: 0x8, addend: 0x0, symName: __ZNSt3__16vectorIP6CliqueNS_9allocatorIS2_EEE9__end_capB8ue170006Ev, symObjAddr: 0x520C, symBinAddr: 0x10001DE34, symSize: 0x28 }
  - { offsetInCU: 0x1BC75, offset: 0x485D0, size: 0x8, addend: 0x0, symName: __ZNSt3__16vectorIP6CliqueNS_9allocatorIS2_EEE22__construct_one_at_endB8ue170006IJRKS2_EEEvDpOT_, symObjAddr: 0x5234, symBinAddr: 0x10001DE5C, symSize: 0x36C }
  - { offsetInCU: 0x1BCCA, offset: 0x48625, size: 0x8, addend: 0x0, symName: __ZNSt3__16vectorIP6CliqueNS_9allocatorIS2_EEE21__push_back_slow_pathIRKS2_EEvOT_, symObjAddr: 0x55A0, symBinAddr: 0x10001E1C8, symSize: 0x3C0 }
  - { offsetInCU: 0x1BD2F, offset: 0x4868A, size: 0x8, addend: 0x0, symName: __ZNSt3__117__compressed_pairIPP6CliqueNS_9allocatorIS2_EEE5firstB8ue170006Ev, symObjAddr: 0x5960, symBinAddr: 0x10001E588, symSize: 0x24 }
  - { offsetInCU: 0x1BD55, offset: 0x486B0, size: 0x8, addend: 0x0, symName: __ZNSt3__122__compressed_pair_elemIPP6CliqueLi0ELb0EE5__getB8ue170006Ev, symObjAddr: 0x5984, symBinAddr: 0x10001E5AC, symSize: 0x14 }
  - { offsetInCU: 0x1BD94, offset: 0x486EF, size: 0x8, addend: 0x0, symName: __ZNSt3__16vectorIP6CliqueNS_9allocatorIS2_EEE21_ConstructTransactionC1B8ue170006ERS5_m, symObjAddr: 0x5998, symBinAddr: 0x10001E5C0, symSize: 0x3C }
  - { offsetInCU: 0x1BDDC, offset: 0x48737, size: 0x8, addend: 0x0, symName: __ZNSt3__116allocator_traitsINS_9allocatorIP6CliqueEEE9constructB8ue170006IS3_JRKS3_EvEEvRS4_PT_DpOT0_, symObjAddr: 0x59D4, symBinAddr: 0x10001E5FC, symSize: 0x34 }
  - { offsetInCU: 0x1BE33, offset: 0x4878E, size: 0x8, addend: 0x0, symName: __ZNSt3__16vectorIP6CliqueNS_9allocatorIS2_EEE7__allocB8ue170006Ev, symObjAddr: 0x5A08, symBinAddr: 0x10001E630, symSize: 0x28 }
  - { offsetInCU: 0x1BE59, offset: 0x487B4, size: 0x8, addend: 0x0, symName: __ZNSt3__16vectorIP6CliqueNS_9allocatorIS2_EEE21_ConstructTransactionD1B8ue170006Ev, symObjAddr: 0x5A44, symBinAddr: 0x10001E66C, symSize: 0x2C }
  - { offsetInCU: 0x1BE83, offset: 0x487DE, size: 0x8, addend: 0x0, symName: __ZNSt3__16vectorIP6CliqueNS_9allocatorIS2_EEE21_ConstructTransactionC2B8ue170006ERS5_m, symObjAddr: 0x5A70, symBinAddr: 0x10001E698, symSize: 0x1D0 }
  - { offsetInCU: 0x1BECB, offset: 0x48826, size: 0x8, addend: 0x0, symName: __ZNKSt3__16vectorIP6CliqueNS_9allocatorIS2_EEE19__annotate_increaseB8ue170006Em, symObjAddr: 0x5C40, symBinAddr: 0x10001E868, symSize: 0xD8 }
  - { offsetInCU: 0x1BF00, offset: 0x4885B, size: 0x8, addend: 0x0, symName: __ZNKSt3__16vectorIP6CliqueNS_9allocatorIS2_EEE31__annotate_contiguous_containerEPKvS7_S7_S7_, symObjAddr: 0x5D18, symBinAddr: 0x10001E940, symSize: 0x58 }
  - { offsetInCU: 0x1BF62, offset: 0x488BD, size: 0x8, addend: 0x0, symName: __ZNKSt3__16vectorIP6CliqueNS_9allocatorIS2_EEE4dataB8ue170006Ev, symObjAddr: 0x5D70, symBinAddr: 0x10001E998, symSize: 0x64 }
  - { offsetInCU: 0x1BF88, offset: 0x488E3, size: 0x8, addend: 0x0, symName: __ZNKSt3__16vectorIP6CliqueNS_9allocatorIS2_EEE8capacityB8ue170006Ev, symObjAddr: 0x5DD4, symBinAddr: 0x10001E9FC, symSize: 0xBC }
  - { offsetInCU: 0x1BFAE, offset: 0x48909, size: 0x8, addend: 0x0, symName: __ZNKSt3__16vectorIP6CliqueNS_9allocatorIS2_EEE4sizeB8ue170006Ev, symObjAddr: 0x5E90, symBinAddr: 0x10001EAB8, symSize: 0xB0 }
  - { offsetInCU: 0x1BFD4, offset: 0x4892F, size: 0x8, addend: 0x0, symName: __ZNKSt3__16vectorIP6CliqueNS_9allocatorIS2_EEE9__end_capB8ue170006Ev, symObjAddr: 0x5F4C, symBinAddr: 0x10001EB68, symSize: 0x28 }
  - { offsetInCU: 0x1BFFA, offset: 0x48955, size: 0x8, addend: 0x0, symName: __ZNKSt3__117__compressed_pairIPP6CliqueNS_9allocatorIS2_EEE5firstB8ue170006Ev, symObjAddr: 0x5F74, symBinAddr: 0x10001EB90, symSize: 0x24 }
  - { offsetInCU: 0x1C020, offset: 0x4897B, size: 0x8, addend: 0x0, symName: __ZNKSt3__122__compressed_pair_elemIPP6CliqueLi0ELb0EE5__getB8ue170006Ev, symObjAddr: 0x5F98, symBinAddr: 0x10001EBB4, symSize: 0x14 }
  - { offsetInCU: 0x1C046, offset: 0x489A1, size: 0x8, addend: 0x0, symName: __ZNSt3__19allocatorIP6CliqueE9constructB8ue170006IS2_JRKS2_EEEvPT_DpOT0_, symObjAddr: 0x5FAC, symBinAddr: 0x10001EBC8, symSize: 0xB4 }
  - { offsetInCU: 0x1C09C, offset: 0x489F7, size: 0x8, addend: 0x0, symName: __ZNSt3__117__compressed_pairIPP6CliqueNS_9allocatorIS2_EEE6secondB8ue170006Ev, symObjAddr: 0x6060, symBinAddr: 0x10001EC7C, symSize: 0x24 }
  - { offsetInCU: 0x1C0C2, offset: 0x48A1D, size: 0x8, addend: 0x0, symName: __ZNSt3__122__compressed_pair_elemINS_9allocatorIP6CliqueEELi1ELb1EE5__getB8ue170006Ev, symObjAddr: 0x6084, symBinAddr: 0x10001ECA0, symSize: 0x14 }
  - { offsetInCU: 0x1C0E8, offset: 0x48A43, size: 0x8, addend: 0x0, symName: __ZNSt3__16vectorIP6CliqueNS_9allocatorIS2_EEE21_ConstructTransactionD2B8ue170006Ev, symObjAddr: 0x6098, symBinAddr: 0x10001ECB4, symSize: 0x278 }
  - { offsetInCU: 0x1C112, offset: 0x48A6D, size: 0x8, addend: 0x0, symName: __ZNKSt3__16vectorIP6CliqueNS_9allocatorIS2_EEE17__annotate_shrinkB8ue170006Em, symObjAddr: 0x6310, symBinAddr: 0x10001EF2C, symSize: 0xC8 }
  - { offsetInCU: 0x1C147, offset: 0x48AA2, size: 0x8, addend: 0x0, symName: __ZNKSt3__16vectorIP6CliqueNS_9allocatorIS2_EEE11__recommendB8ue170006Em, symObjAddr: 0x63D8, symBinAddr: 0x10001EFF4, symSize: 0x384 }
  - { offsetInCU: 0x1C1A3, offset: 0x48AFE, size: 0x8, addend: 0x0, symName: __ZNSt3__114__split_bufferIP6CliqueRNS_9allocatorIS2_EEEC1EmmS5_, symObjAddr: 0x675C, symBinAddr: 0x10001F378, symSize: 0x44 }
  - { offsetInCU: 0x1C1F9, offset: 0x48B54, size: 0x8, addend: 0x0, symName: __ZNSt3__114__split_bufferIP6CliqueRNS_9allocatorIS2_EEED1Ev, symObjAddr: 0x6D0C, symBinAddr: 0x10001F928, symSize: 0x2C }
  - { offsetInCU: 0x1C225, offset: 0x48B80, size: 0x8, addend: 0x0, symName: __ZNKSt3__16vectorIP6CliqueNS_9allocatorIS2_EEE8max_sizeEv, symObjAddr: 0x6D38, symBinAddr: 0x10001F954, symSize: 0x2FC }
  - { offsetInCU: 0x1C24E, offset: 0x48BA9, size: 0x8, addend: 0x0, symName: __ZNKSt3__16vectorIP6CliqueNS_9allocatorIS2_EEE20__throw_length_errorB8ue170006Ev, symObjAddr: 0x7034, symBinAddr: 0x10001FC50, symSize: 0x20 }
  - { offsetInCU: 0x1C27E, offset: 0x48BD9, size: 0x8, addend: 0x0, symName: __ZNSt3__116allocator_traitsINS_9allocatorIP6CliqueEEE8max_sizeB8ue170006IS4_vEEmRKS4_, symObjAddr: 0x70AC, symBinAddr: 0x10001FC70, symSize: 0x24 }
  - { offsetInCU: 0x1C2AC, offset: 0x48C07, size: 0x8, addend: 0x0, symName: __ZNKSt3__16vectorIP6CliqueNS_9allocatorIS2_EEE7__allocB8ue170006Ev, symObjAddr: 0x70D0, symBinAddr: 0x10001FC94, symSize: 0x28 }
  - { offsetInCU: 0x1C2D2, offset: 0x48C2D, size: 0x8, addend: 0x0, symName: __ZNKSt3__19allocatorIP6CliqueE8max_sizeB8ue170006Ev, symObjAddr: 0x73B0, symBinAddr: 0x10001FCBC, symSize: 0x14 }
  - { offsetInCU: 0x1C2F8, offset: 0x48C53, size: 0x8, addend: 0x0, symName: __ZNKSt3__117__compressed_pairIPP6CliqueNS_9allocatorIS2_EEE6secondB8ue170006Ev, symObjAddr: 0x73C4, symBinAddr: 0x10001FCD0, symSize: 0x24 }
  - { offsetInCU: 0x1C31E, offset: 0x48C79, size: 0x8, addend: 0x0, symName: __ZNKSt3__122__compressed_pair_elemINS_9allocatorIP6CliqueEELi1ELb1EE5__getB8ue170006Ev, symObjAddr: 0x73E8, symBinAddr: 0x10001FCF4, symSize: 0x14 }
  - { offsetInCU: 0x1C344, offset: 0x48C9F, size: 0x8, addend: 0x0, symName: __ZNSt3__114__split_bufferIP6CliqueRNS_9allocatorIS2_EEEC2EmmS5_, symObjAddr: 0x7714, symBinAddr: 0x10001FD08, symSize: 0x520 }
  - { offsetInCU: 0x1C3C4, offset: 0x48D1F, size: 0x8, addend: 0x0, symName: __ZNSt3__117__compressed_pairIPP6CliqueRNS_9allocatorIS2_EEEC1B8ue170006IDnS6_EEOT_OT0_, symObjAddr: 0x7C34, symBinAddr: 0x100020228, symSize: 0x3C }
  - { offsetInCU: 0x1C41C, offset: 0x48D77, size: 0x8, addend: 0x0, symName: __ZNSt3__114__split_bufferIP6CliqueRNS_9allocatorIS2_EEE7__allocB8ue170006Ev, symObjAddr: 0x7EFC, symBinAddr: 0x1000204F0, symSize: 0x28 }
  - { offsetInCU: 0x1C442, offset: 0x48D9D, size: 0x8, addend: 0x0, symName: __ZNSt3__114__split_bufferIP6CliqueRNS_9allocatorIS2_EEE9__end_capB8ue170006Ev, symObjAddr: 0x7F24, symBinAddr: 0x100020518, symSize: 0x28 }
  - { offsetInCU: 0x1C468, offset: 0x48DC3, size: 0x8, addend: 0x0, symName: __ZNSt3__117__compressed_pairIPP6CliqueRNS_9allocatorIS2_EEEC2B8ue170006IDnS6_EEOT_OT0_, symObjAddr: 0x7F4C, symBinAddr: 0x100020540, symSize: 0x48 }
  - { offsetInCU: 0x1C4C0, offset: 0x48E1B, size: 0x8, addend: 0x0, symName: __ZNSt3__122__compressed_pair_elemIPP6CliqueLi0ELb0EEC2B8ue170006IDnvEEOT_, symObjAddr: 0x7F94, symBinAddr: 0x100020588, symSize: 0x64 }
  - { offsetInCU: 0x1C502, offset: 0x48E5D, size: 0x8, addend: 0x0, symName: __ZNSt3__122__compressed_pair_elemIRNS_9allocatorIP6CliqueEELi1ELb0EEC2B8ue170006IS5_vEEOT_, symObjAddr: 0x7FF8, symBinAddr: 0x1000205EC, symSize: 0x70 }
  - { offsetInCU: 0x1C544, offset: 0x48E9F, size: 0x8, addend: 0x0, symName: __ZNSt3__19allocatorIP6CliqueE8allocateB8ue170006Em, symObjAddr: 0x8068, symBinAddr: 0x10002065C, symSize: 0x5C }
  - { offsetInCU: 0x1C578, offset: 0x48ED3, size: 0x8, addend: 0x0, symName: __ZNSt3__117__compressed_pairIPP6CliqueRNS_9allocatorIS2_EEE6secondB8ue170006Ev, symObjAddr: 0x81CC, symBinAddr: 0x1000206B8, symSize: 0x28 }
  - { offsetInCU: 0x1C59E, offset: 0x48EF9, size: 0x8, addend: 0x0, symName: __ZNSt3__122__compressed_pair_elemIRNS_9allocatorIP6CliqueEELi1ELb0EE5__getB8ue170006Ev, symObjAddr: 0x81F4, symBinAddr: 0x1000206E0, symSize: 0x60 }
  - { offsetInCU: 0x1C5C4, offset: 0x48F1F, size: 0x8, addend: 0x0, symName: __ZNSt3__117__compressed_pairIPP6CliqueRNS_9allocatorIS2_EEE5firstB8ue170006Ev, symObjAddr: 0x8254, symBinAddr: 0x100020740, symSize: 0x24 }
  - { offsetInCU: 0x1C5EA, offset: 0x48F45, size: 0x8, addend: 0x0, symName: __ZNKSt3__16vectorIP6CliqueNS_9allocatorIS2_EEE17__annotate_deleteB8ue170006Ev, symObjAddr: 0x8278, symBinAddr: 0x100020764, symSize: 0xCC }
  - { offsetInCU: 0x1C610, offset: 0x48F6B, size: 0x8, addend: 0x0, symName: __ZNSt3__116reverse_iteratorIPP6CliqueEC1B8ue170006ES3_, symObjAddr: 0x87EC, symBinAddr: 0x100020CD8, symSize: 0x34 }
  - { offsetInCU: 0x1C648, offset: 0x48FA3, size: 0x8, addend: 0x0, symName: __ZNKSt3__116reverse_iteratorIPP6CliqueE4baseB8ue170006Ev, symObjAddr: 0x8820, symBinAddr: 0x100020D0C, symSize: 0x64 }
  - { offsetInCU: 0x1C66E, offset: 0x48FC9, size: 0x8, addend: 0x0, symName: __ZNKSt3__16vectorIP6CliqueNS_9allocatorIS2_EEE14__annotate_newB8ue170006Em, symObjAddr: 0x89B8, symBinAddr: 0x100020EA4, symSize: 0xC0 }
  - { offsetInCU: 0x1C6C6, offset: 0x49021, size: 0x8, addend: 0x0, symName: __ZNKSt3__111__move_loopINS_17_ClassicAlgPolicyEEclB8ue170006INS_16reverse_iteratorIPP6CliqueEES8_S8_EENS_4pairIT_T1_EESA_T0_SB_, symObjAddr: 0xA438, symBinAddr: 0x100022924, symSize: 0x3A8 }
  - { offsetInCU: 0x1C743, offset: 0x4909E, size: 0x8, addend: 0x0, symName: __ZNSt3__18_IterOpsINS_17_ClassicAlgPolicyEE11__iter_moveB8ue170006IRNS_16reverse_iteratorIPP6CliqueEEEENS_9enable_ifIXsr12is_referenceIDTdeclsr3stdE7declvalIRT_EEEEE5valueEDTclsr3stdE4movedeclsr3stdE7declvalISC_EEEEE4typeEOSB_, symObjAddr: 0xB308, symBinAddr: 0x1000237F4, symSize: 0x28 }
  - { offsetInCU: 0x1C76F, offset: 0x490CA, size: 0x8, addend: 0x0, symName: __ZNKSt3__116reverse_iteratorIPP6CliqueEdeB8ue170006Ev, symObjAddr: 0xB330, symBinAddr: 0x10002381C, symSize: 0x74 }
  - { offsetInCU: 0x1C7A3, offset: 0x490FE, size: 0x8, addend: 0x0, symName: __ZNSt3__116reverse_iteratorIPP6CliqueEppB8ue170006Ev, symObjAddr: 0xB3A4, symBinAddr: 0x100023890, symSize: 0x6C }
  - { offsetInCU: 0x1C7C9, offset: 0x49124, size: 0x8, addend: 0x0, symName: __ZNSt3__18_IterOpsINS_17_ClassicAlgPolicyEE25__validate_iter_referenceB8ue170006IRNS_16reverse_iteratorIPP6CliqueEEEEvv, symObjAddr: 0xB410, symBinAddr: 0x1000238FC, symSize: 0x4 }
  - { offsetInCU: 0x1C7E7, offset: 0x49142, size: 0x8, addend: 0x0, symName: __ZNSt3__118__unwrap_iter_implINS_16reverse_iteratorIPP6CliqueEELb0EE8__unwrapB8ue170006ES5_, symObjAddr: 0xB414, symBinAddr: 0x100023900, symSize: 0x274 }
  - { offsetInCU: 0x1C813, offset: 0x4916E, size: 0x8, addend: 0x0, symName: __ZNSt3__14pairINS_16reverse_iteratorIPP6CliqueEES5_EC1B8ue170006IS5_S5_LPv0EEEOT_OT0_, symObjAddr: 0xB688, symBinAddr: 0x100023B74, symSize: 0x3C }
  - { offsetInCU: 0x1C871, offset: 0x491CC, size: 0x8, addend: 0x0, symName: __ZNSt3__14pairINS_16reverse_iteratorIPP6CliqueEES5_EC2B8ue170006IS5_S5_LPv0EEEOT_OT0_, symObjAddr: 0xB6C4, symBinAddr: 0x100023BB0, symSize: 0x54 }
  - { offsetInCU: 0x1C8CF, offset: 0x4922A, size: 0x8, addend: 0x0, symName: __ZNSt3__118__unwrap_iter_implINS_16reverse_iteratorIPP6CliqueEELb0EE8__rewrapB8ue170006ES5_S5_, symObjAddr: 0xB718, symBinAddr: 0x100023C04, symSize: 0x2E0 }
  - { offsetInCU: 0x1C904, offset: 0x4925F, size: 0x8, addend: 0x0, symName: __ZNSt3__116reverse_iteratorIPP6CliqueEC2B8ue170006ES3_, symObjAddr: 0xB9F8, symBinAddr: 0x100023EE4, symSize: 0xB8 }
  - { offsetInCU: 0x1C93C, offset: 0x49297, size: 0x8, addend: 0x0, symName: __ZNSt3__114__split_bufferIP6CliqueRNS_9allocatorIS2_EEED2Ev, symObjAddr: 0xBAB0, symBinAddr: 0x100023F9C, symSize: 0x104 }
  - { offsetInCU: 0x1C968, offset: 0x492C3, size: 0x8, addend: 0x0, symName: __ZNSt3__114__split_bufferIP6CliqueRNS_9allocatorIS2_EEE5clearB8ue170006Ev, symObjAddr: 0xBBB4, symBinAddr: 0x1000240A0, symSize: 0x68 }
  - { offsetInCU: 0x1C98E, offset: 0x492E9, size: 0x8, addend: 0x0, symName: __ZNSt3__116allocator_traitsINS_9allocatorIP6CliqueEEE10deallocateB8ue170006ERS4_PS3_m, symObjAddr: 0xBC1C, symBinAddr: 0x100024108, symSize: 0x34 }
  - { offsetInCU: 0x1C9D0, offset: 0x4932B, size: 0x8, addend: 0x0, symName: __ZNKSt3__114__split_bufferIP6CliqueRNS_9allocatorIS2_EEE8capacityB8ue170006Ev, symObjAddr: 0xBC50, symBinAddr: 0x10002413C, symSize: 0xBC }
  - { offsetInCU: 0x1C9F6, offset: 0x49351, size: 0x8, addend: 0x0, symName: __ZNSt3__114__split_bufferIP6CliqueRNS_9allocatorIS2_EEE17__destruct_at_endB8ue170006EPS2_, symObjAddr: 0xBD0C, symBinAddr: 0x1000241F8, symSize: 0x2C }
  - { offsetInCU: 0x1CA2A, offset: 0x49385, size: 0x8, addend: 0x0, symName: __ZNSt3__114__split_bufferIP6CliqueRNS_9allocatorIS2_EEE17__destruct_at_endB8ue170006EPS2_NS_17integral_constantIbLb0EEE, symObjAddr: 0xBD38, symBinAddr: 0x100024224, symSize: 0x10C }
  - { offsetInCU: 0x1CA6A, offset: 0x493C5, size: 0x8, addend: 0x0, symName: __ZNSt3__116allocator_traitsINS_9allocatorIP6CliqueEEE7destroyB8ue170006IS3_vEEvRS4_PT_, symObjAddr: 0xBE44, symBinAddr: 0x100024330, symSize: 0x2C }
  - { offsetInCU: 0x1CAA7, offset: 0x49402, size: 0x8, addend: 0x0, symName: __ZNSt3__19allocatorIP6CliqueE7destroyB8ue170006EPS2_, symObjAddr: 0xBE70, symBinAddr: 0x10002435C, symSize: 0x14 }
  - { offsetInCU: 0x1CADB, offset: 0x49436, size: 0x8, addend: 0x0, symName: __ZNSt3__19allocatorIP6CliqueE10deallocateB8ue170006EPS2_m, symObjAddr: 0xBE84, symBinAddr: 0x100024370, symSize: 0x4C }
  - { offsetInCU: 0x1CB1D, offset: 0x49478, size: 0x8, addend: 0x0, symName: __ZNKSt3__114__split_bufferIP6CliqueRNS_9allocatorIS2_EEE9__end_capB8ue170006Ev, symObjAddr: 0xBFD8, symBinAddr: 0x1000243BC, symSize: 0x28 }
  - { offsetInCU: 0x1CB43, offset: 0x4949E, size: 0x8, addend: 0x0, symName: __ZNKSt3__117__compressed_pairIPP6CliqueRNS_9allocatorIS2_EEE5firstB8ue170006Ev, symObjAddr: 0xC000, symBinAddr: 0x1000243E4, symSize: 0x24 }
  - { offsetInCU: 0x1CB69, offset: 0x494C4, size: 0x8, addend: 0x0, symName: __ZNSt3__16vectorImNS_9allocatorImEEEC2B8ue170006Ev, symObjAddr: 0xC024, symBinAddr: 0x100024408, symSize: 0x2E8 }
  - { offsetInCU: 0x1CB99, offset: 0x494F4, size: 0x8, addend: 0x0, symName: __ZNSt3__117__compressed_pairIPmNS_9allocatorImEEEC1B8ue170006IDnNS_18__default_init_tagEEEOT_OT0_, symObjAddr: 0xC30C, symBinAddr: 0x1000246F0, symSize: 0x3C }
  - { offsetInCU: 0x1CBF1, offset: 0x4954C, size: 0x8, addend: 0x0, symName: __ZNSt3__117__compressed_pairIPmNS_9allocatorImEEEC2B8ue170006IDnNS_18__default_init_tagEEEOT_OT0_, symObjAddr: 0xC348, symBinAddr: 0x10002472C, symSize: 0x40 }
  - { offsetInCU: 0x1CC49, offset: 0x495A4, size: 0x8, addend: 0x0, symName: __ZNSt3__122__compressed_pair_elemIPmLi0ELb0EEC2B8ue170006IDnvEEOT_, symObjAddr: 0xC388, symBinAddr: 0x10002476C, symSize: 0x64 }
  - { offsetInCU: 0x1CC8B, offset: 0x495E6, size: 0x8, addend: 0x0, symName: __ZNSt3__122__compressed_pair_elemINS_9allocatorImEELi1ELb1EEC2B8ue170006ENS_18__default_init_tagE, symObjAddr: 0xC3EC, symBinAddr: 0x1000247D0, symSize: 0x2C }
  - { offsetInCU: 0x1CCBF, offset: 0x4961A, size: 0x8, addend: 0x0, symName: __ZNSt3__19allocatorImEC2B8ue170006Ev, symObjAddr: 0xC418, symBinAddr: 0x1000247FC, symSize: 0x2C }
  - { offsetInCU: 0x1CCE9, offset: 0x49644, size: 0x8, addend: 0x0, symName: __ZNSt3__116__non_trivial_ifILb1ENS_9allocatorImEEEC2B8ue170006Ev, symObjAddr: 0xC444, symBinAddr: 0x100024828, symSize: 0x14 }
  - { offsetInCU: 0x1CD13, offset: 0x4966E, size: 0x8, addend: 0x0, symName: __ZNSt3__16vectorImNS_9allocatorImEEED2B8ue170006Ev, symObjAddr: 0xC458, symBinAddr: 0x10002483C, symSize: 0x1F8 }
  - { offsetInCU: 0x1CD3E, offset: 0x49699, size: 0x8, addend: 0x0, symName: __ZNSt3__16vectorImNS_9allocatorImEEE16__destroy_vectorC1B8ue170006ERS3_, symObjAddr: 0xC650, symBinAddr: 0x100024A34, symSize: 0x34 }
  - { offsetInCU: 0x1CD77, offset: 0x496D2, size: 0x8, addend: 0x0, symName: __ZNSt3__16vectorImNS_9allocatorImEEE16__destroy_vectorclB8ue170006Ev, symObjAddr: 0xC684, symBinAddr: 0x100024A68, symSize: 0x228 }
  - { offsetInCU: 0x1CD9D, offset: 0x496F8, size: 0x8, addend: 0x0, symName: __ZNSt3__16vectorImNS_9allocatorImEEE16__destroy_vectorC2B8ue170006ERS3_, symObjAddr: 0xC8AC, symBinAddr: 0x100024C90, symSize: 0x70 }
  - { offsetInCU: 0x1CDD6, offset: 0x49731, size: 0x8, addend: 0x0, symName: __ZNSt3__16vectorImNS_9allocatorImEEE7__clearB8ue170006Ev, symObjAddr: 0xC91C, symBinAddr: 0x100024D00, symSize: 0x64 }
  - { offsetInCU: 0x1CDFC, offset: 0x49757, size: 0x8, addend: 0x0, symName: __ZNKSt3__16vectorImNS_9allocatorImEEE17__annotate_deleteB8ue170006Ev, symObjAddr: 0xC980, symBinAddr: 0x100024D64, symSize: 0xCC }
  - { offsetInCU: 0x1CE22, offset: 0x4977D, size: 0x8, addend: 0x0, symName: __ZNSt3__116allocator_traitsINS_9allocatorImEEE10deallocateB8ue170006ERS2_Pmm, symObjAddr: 0xCA4C, symBinAddr: 0x100024E30, symSize: 0x34 }
  - { offsetInCU: 0x1CE64, offset: 0x497BF, size: 0x8, addend: 0x0, symName: __ZNSt3__16vectorImNS_9allocatorImEEE7__allocB8ue170006Ev, symObjAddr: 0xCA80, symBinAddr: 0x100024E64, symSize: 0x28 }
  - { offsetInCU: 0x1CE8A, offset: 0x497E5, size: 0x8, addend: 0x0, symName: __ZNKSt3__16vectorImNS_9allocatorImEEE8capacityB8ue170006Ev, symObjAddr: 0xCAA8, symBinAddr: 0x100024E8C, symSize: 0xBC }
  - { offsetInCU: 0x1CEB0, offset: 0x4980B, size: 0x8, addend: 0x0, symName: __ZNSt3__16vectorImNS_9allocatorImEEE22__base_destruct_at_endB8ue170006EPm, symObjAddr: 0xCB64, symBinAddr: 0x100024F48, symSize: 0x114 }
  - { offsetInCU: 0x1CEF4, offset: 0x4984F, size: 0x8, addend: 0x0, symName: __ZNSt3__116allocator_traitsINS_9allocatorImEEE7destroyB8ue170006ImvEEvRS2_PT_, symObjAddr: 0xCC78, symBinAddr: 0x10002505C, symSize: 0x2C }
  - { offsetInCU: 0x1CF31, offset: 0x4988C, size: 0x8, addend: 0x0, symName: __ZNSt3__19allocatorImE7destroyB8ue170006EPm, symObjAddr: 0xCCB8, symBinAddr: 0x10002509C, symSize: 0x14 }
  - { offsetInCU: 0x1CF65, offset: 0x498C0, size: 0x8, addend: 0x0, symName: __ZNKSt3__16vectorImNS_9allocatorImEEE31__annotate_contiguous_containerEPKvS5_S5_S5_, symObjAddr: 0xCCCC, symBinAddr: 0x1000250B0, symSize: 0x58 }
  - { offsetInCU: 0x1CFC7, offset: 0x49922, size: 0x8, addend: 0x0, symName: __ZNKSt3__16vectorImNS_9allocatorImEEE4dataB8ue170006Ev, symObjAddr: 0xCD24, symBinAddr: 0x100025108, symSize: 0x64 }
  - { offsetInCU: 0x1CFED, offset: 0x49948, size: 0x8, addend: 0x0, symName: __ZNKSt3__16vectorImNS_9allocatorImEEE4sizeB8ue170006Ev, symObjAddr: 0xCD88, symBinAddr: 0x10002516C, symSize: 0xB0 }
  - { offsetInCU: 0x1D013, offset: 0x4996E, size: 0x8, addend: 0x0, symName: __ZNSt3__19allocatorImE10deallocateB8ue170006EPmm, symObjAddr: 0xCE38, symBinAddr: 0x10002521C, symSize: 0x4C }
  - { offsetInCU: 0x1D055, offset: 0x499B0, size: 0x8, addend: 0x0, symName: __ZNSt3__117__compressed_pairIPmNS_9allocatorImEEE6secondB8ue170006Ev, symObjAddr: 0xCE84, symBinAddr: 0x100025268, symSize: 0x24 }
  - { offsetInCU: 0x1D07B, offset: 0x499D6, size: 0x8, addend: 0x0, symName: __ZNSt3__122__compressed_pair_elemINS_9allocatorImEELi1ELb1EE5__getB8ue170006Ev, symObjAddr: 0xCEA8, symBinAddr: 0x10002528C, symSize: 0x14 }
  - { offsetInCU: 0x1D0A1, offset: 0x499FC, size: 0x8, addend: 0x0, symName: __ZNKSt3__16vectorImNS_9allocatorImEEE9__end_capB8ue170006Ev, symObjAddr: 0xCEBC, symBinAddr: 0x1000252A0, symSize: 0x28 }
  - { offsetInCU: 0x1D0C7, offset: 0x49A22, size: 0x8, addend: 0x0, symName: __ZNKSt3__117__compressed_pairIPmNS_9allocatorImEEE5firstB8ue170006Ev, symObjAddr: 0xCEE4, symBinAddr: 0x1000252C8, symSize: 0x24 }
  - { offsetInCU: 0x1D0ED, offset: 0x49A48, size: 0x8, addend: 0x0, symName: __ZNKSt3__122__compressed_pair_elemIPmLi0ELb0EE5__getB8ue170006Ev, symObjAddr: 0xCF08, symBinAddr: 0x1000252EC, symSize: 0x14 }
  - { offsetInCU: 0x1D113, offset: 0x49A6E, size: 0x8, addend: 0x0, symName: __ZNSt3__16vectorImNS_9allocatorImEEEC2EmRKm, symObjAddr: 0xCF1C, symBinAddr: 0x100025300, symSize: 0x498 }
  - { offsetInCU: 0x1D179, offset: 0x49AD4, size: 0x8, addend: 0x0, symName: __ZNSt3__16vectorImNS_9allocatorImEEE11__vallocateB8ue170006Em, symObjAddr: 0xD62C, symBinAddr: 0x100025A10, symSize: 0x420 }
  - { offsetInCU: 0x1D1C3, offset: 0x49B1E, size: 0x8, addend: 0x0, symName: __ZNSt3__16vectorImNS_9allocatorImEEE18__construct_at_endEmRKm, symObjAddr: 0xDA4C, symBinAddr: 0x100025E30, symSize: 0x3EC }
  - { offsetInCU: 0x1D24D, offset: 0x49BA8, size: 0x8, addend: 0x0, symName: __ZNSt3__128__exception_guard_exceptionsINS_6vectorImNS_9allocatorImEEE16__destroy_vectorEE10__completeB8ue170006Ev, symObjAddr: 0xDE38, symBinAddr: 0x10002621C, symSize: 0x8C }
  - { offsetInCU: 0x1D273, offset: 0x49BCE, size: 0x8, addend: 0x0, symName: __ZNSt3__128__exception_guard_exceptionsINS_6vectorImNS_9allocatorImEEE16__destroy_vectorEED1B8ue170006Ev, symObjAddr: 0xDEC4, symBinAddr: 0x1000262A8, symSize: 0x2C }
  - { offsetInCU: 0x1D29D, offset: 0x49BF8, size: 0x8, addend: 0x0, symName: __ZNSt3__128__exception_guard_exceptionsINS_6vectorImNS_9allocatorImEEE16__destroy_vectorEEC1B8ue170006ES5_, symObjAddr: 0xDEF0, symBinAddr: 0x1000262D4, symSize: 0x238 }
  - { offsetInCU: 0x1D2DA, offset: 0x49C35, size: 0x8, addend: 0x0, symName: __ZNSt3__128__exception_guard_exceptionsINS_6vectorImNS_9allocatorImEEE16__destroy_vectorEEC2B8ue170006ES5_, symObjAddr: 0xE128, symBinAddr: 0x10002650C, symSize: 0x264 }
  - { offsetInCU: 0x1D317, offset: 0x49C72, size: 0x8, addend: 0x0, symName: __ZNKSt3__16vectorImNS_9allocatorImEEE8max_sizeEv, symObjAddr: 0xE38C, symBinAddr: 0x100026770, symSize: 0x2FC }
  - { offsetInCU: 0x1D340, offset: 0x49C9B, size: 0x8, addend: 0x0, symName: __ZNKSt3__16vectorImNS_9allocatorImEEE20__throw_length_errorB8ue170006Ev, symObjAddr: 0xE688, symBinAddr: 0x100026A6C, symSize: 0x20 }
  - { offsetInCU: 0x1D366, offset: 0x49CC1, size: 0x8, addend: 0x0, symName: __ZNSt3__16vectorImNS_9allocatorImEEE9__end_capB8ue170006Ev, symObjAddr: 0xE934, symBinAddr: 0x100026D18, symSize: 0x28 }
  - { offsetInCU: 0x1D38C, offset: 0x49CE7, size: 0x8, addend: 0x0, symName: __ZNKSt3__16vectorImNS_9allocatorImEEE14__annotate_newB8ue170006Em, symObjAddr: 0xE95C, symBinAddr: 0x100026D40, symSize: 0xC0 }
  - { offsetInCU: 0x1D3CB, offset: 0x49D26, size: 0x8, addend: 0x0, symName: __ZNSt3__116allocator_traitsINS_9allocatorImEEE8max_sizeB8ue170006IS2_vEEmRKS2_, symObjAddr: 0xEA1C, symBinAddr: 0x100026E00, symSize: 0x24 }
  - { offsetInCU: 0x1D3F9, offset: 0x49D54, size: 0x8, addend: 0x0, symName: __ZNKSt3__16vectorImNS_9allocatorImEEE7__allocB8ue170006Ev, symObjAddr: 0xEA40, symBinAddr: 0x100026E24, symSize: 0x28 }
  - { offsetInCU: 0x1D41F, offset: 0x49D7A, size: 0x8, addend: 0x0, symName: __ZNKSt3__19allocatorImE8max_sizeB8ue170006Ev, symObjAddr: 0xEA68, symBinAddr: 0x100026E4C, symSize: 0x14 }
  - { offsetInCU: 0x1D445, offset: 0x49DA0, size: 0x8, addend: 0x0, symName: __ZNKSt3__117__compressed_pairIPmNS_9allocatorImEEE6secondB8ue170006Ev, symObjAddr: 0xEA7C, symBinAddr: 0x100026E60, symSize: 0x24 }
  - { offsetInCU: 0x1D46B, offset: 0x49DC6, size: 0x8, addend: 0x0, symName: __ZNKSt3__122__compressed_pair_elemINS_9allocatorImEELi1ELb1EE5__getB8ue170006Ev, symObjAddr: 0xEAA0, symBinAddr: 0x100026E84, symSize: 0x14 }
  - { offsetInCU: 0x1D491, offset: 0x49DEC, size: 0x8, addend: 0x0, symName: __ZNSt3__19allocatorImE8allocateB8ue170006Em, symObjAddr: 0xEAB4, symBinAddr: 0x100026E98, symSize: 0x5C }
  - { offsetInCU: 0x1D4C5, offset: 0x49E20, size: 0x8, addend: 0x0, symName: __ZNSt3__117__compressed_pairIPmNS_9allocatorImEEE5firstB8ue170006Ev, symObjAddr: 0xEB10, symBinAddr: 0x100026EF4, symSize: 0x24 }
  - { offsetInCU: 0x1D4EB, offset: 0x49E46, size: 0x8, addend: 0x0, symName: __ZNSt3__122__compressed_pair_elemIPmLi0ELb0EE5__getB8ue170006Ev, symObjAddr: 0xEB34, symBinAddr: 0x100026F18, symSize: 0x14 }
  - { offsetInCU: 0x1D52A, offset: 0x49E85, size: 0x8, addend: 0x0, symName: __ZNSt3__16vectorImNS_9allocatorImEEE21_ConstructTransactionC1B8ue170006ERS3_m, symObjAddr: 0xEB48, symBinAddr: 0x100026F2C, symSize: 0x3C }
  - { offsetInCU: 0x1D572, offset: 0x49ECD, size: 0x8, addend: 0x0, symName: __ZNSt3__116allocator_traitsINS_9allocatorImEEE9constructB8ue170006ImJRKmEvEEvRS2_PT_DpOT0_, symObjAddr: 0xEB84, symBinAddr: 0x100026F68, symSize: 0x34 }
  - { offsetInCU: 0x1D5C9, offset: 0x49F24, size: 0x8, addend: 0x0, symName: __ZNSt3__16vectorImNS_9allocatorImEEE21_ConstructTransactionD1B8ue170006Ev, symObjAddr: 0xEBB8, symBinAddr: 0x100026F9C, symSize: 0x2C }
  - { offsetInCU: 0x1D5F3, offset: 0x49F4E, size: 0x8, addend: 0x0, symName: __ZNSt3__16vectorImNS_9allocatorImEEE21_ConstructTransactionC2B8ue170006ERS3_m, symObjAddr: 0xEBE4, symBinAddr: 0x100026FC8, symSize: 0x1D0 }
  - { offsetInCU: 0x1D63B, offset: 0x49F96, size: 0x8, addend: 0x0, symName: __ZNKSt3__16vectorImNS_9allocatorImEEE19__annotate_increaseB8ue170006Em, symObjAddr: 0xEDB4, symBinAddr: 0x100027198, symSize: 0xD8 }
  - { offsetInCU: 0x1D670, offset: 0x49FCB, size: 0x8, addend: 0x0, symName: __ZNSt3__19allocatorImE9constructB8ue170006ImJRKmEEEvPT_DpOT0_, symObjAddr: 0xEE8C, symBinAddr: 0x100027270, symSize: 0xB4 }
  - { offsetInCU: 0x1D6C6, offset: 0x4A021, size: 0x8, addend: 0x0, symName: __ZNSt3__16vectorImNS_9allocatorImEEE21_ConstructTransactionD2B8ue170006Ev, symObjAddr: 0xEF40, symBinAddr: 0x100027324, symSize: 0x278 }
  - { offsetInCU: 0x1D6F0, offset: 0x4A04B, size: 0x8, addend: 0x0, symName: __ZNKSt3__16vectorImNS_9allocatorImEEE17__annotate_shrinkB8ue170006Em, symObjAddr: 0xF1B8, symBinAddr: 0x10002759C, symSize: 0xC8 }
  - { offsetInCU: 0x1D725, offset: 0x4A080, size: 0x8, addend: 0x0, symName: __ZNSt3__128__exception_guard_exceptionsINS_6vectorImNS_9allocatorImEEE16__destroy_vectorEED2B8ue170006Ev, symObjAddr: 0xF280, symBinAddr: 0x100027664, symSize: 0xA8 }
  - { offsetInCU: 0x1D74F, offset: 0x4A0AA, size: 0x8, addend: 0x0, symName: __ZNSt3__16vectorImNS_9allocatorImEEE13__move_assignERS3_NS_17integral_constantIbLb1EEE, symObjAddr: 0xF328, symBinAddr: 0x10002770C, symSize: 0x28C }
  - { offsetInCU: 0x1D791, offset: 0x4A0EC, size: 0x8, addend: 0x0, symName: __ZNSt3__16vectorImNS_9allocatorImEEE13__vdeallocateEv, symObjAddr: 0xF5B4, symBinAddr: 0x100027998, symSize: 0x194 }
  - { offsetInCU: 0x1D7B9, offset: 0x4A114, size: 0x8, addend: 0x0, symName: __ZNSt3__16vectorImNS_9allocatorImEEE19__move_assign_allocB8ue170006ERS3_, symObjAddr: 0xF748, symBinAddr: 0x100027B2C, symSize: 0x2C }
  - { offsetInCU: 0x1D7EE, offset: 0x4A149, size: 0x8, addend: 0x0, symName: __ZNSt3__16vectorImNS_9allocatorImEEE5clearB8ue170006Ev, symObjAddr: 0xF774, symBinAddr: 0x100027B58, symSize: 0x44 }
  - { offsetInCU: 0x1D823, offset: 0x4A17E, size: 0x8, addend: 0x0, symName: __ZNSt3__16vectorImNS_9allocatorImEEE19__move_assign_allocB8ue170006ERS3_NS_17integral_constantIbLb1EEE, symObjAddr: 0xF7B8, symBinAddr: 0x100027B9C, symSize: 0x38 }
  - { offsetInCU: 0x1D863, offset: 0x4A1BE, size: 0x8, addend: 0x0, symName: __ZNSt3__113unordered_mapIP4NodeiNS_4hashIS2_EENS_8equal_toIS2_EENS_9allocatorINS_4pairIKS2_iEEEEEC2B8ue170006Ev, symObjAddr: 0x102B4, symBinAddr: 0x100027BD4, symSize: 0x2C }
  - { offsetInCU: 0x1D88D, offset: 0x4A1E8, size: 0x8, addend: 0x0, symName: __ZNSt3__112__hash_tableINS_17__hash_value_typeIP4NodeiEENS_22__unordered_map_hasherIS3_S4_NS_4hashIS3_EENS_8equal_toIS3_EELb1EEENS_21__unordered_map_equalIS3_S4_S9_S7_Lb1EEENS_9allocatorIS4_EEEC1Ev, symObjAddr: 0x102E0, symBinAddr: 0x100027C00, symSize: 0x2C }
  - { offsetInCU: 0x1D8B9, offset: 0x4A214, size: 0x8, addend: 0x0, symName: __ZNSt3__112__hash_tableINS_17__hash_value_typeIP4NodeiEENS_22__unordered_map_hasherIS3_S4_NS_4hashIS3_EENS_8equal_toIS3_EELb1EEENS_21__unordered_map_equalIS3_S4_S9_S7_Lb1EEENS_9allocatorIS4_EEEC2Ev, symObjAddr: 0x1030C, symBinAddr: 0x100027C2C, symSize: 0x38C }
  - { offsetInCU: 0x1D8E6, offset: 0x4A241, size: 0x8, addend: 0x0, symName: __ZNSt3__110unique_ptrIA_PNS_16__hash_node_baseIPNS_11__hash_nodeINS_17__hash_value_typeIP4NodeiEEPvEEEENS_25__bucket_list_deallocatorINS_9allocatorISB_EEEEEC1B8ue170006ILb1EvEEv, symObjAddr: 0x10698, symBinAddr: 0x100027FB8, symSize: 0x2C }
  - { offsetInCU: 0x1D91B, offset: 0x4A276, size: 0x8, addend: 0x0, symName: __ZNSt3__117__compressed_pairINS_16__hash_node_baseIPNS_11__hash_nodeINS_17__hash_value_typeIP4NodeiEEPvEEEENS_9allocatorIS8_EEEC1B8ue170006ILb1EvEEv, symObjAddr: 0x106C4, symBinAddr: 0x100027FE4, symSize: 0x2C }
  - { offsetInCU: 0x1D955, offset: 0x4A2B0, size: 0x8, addend: 0x0, symName: __ZNSt3__117__compressed_pairImNS_22__unordered_map_hasherIP4NodeNS_17__hash_value_typeIS3_iEENS_4hashIS3_EENS_8equal_toIS3_EELb1EEEEC1B8ue170006IiNS_18__default_init_tagEEEOT_OT0_, symObjAddr: 0x106F0, symBinAddr: 0x100028010, symSize: 0x3C }
  - { offsetInCU: 0x1D9B2, offset: 0x4A30D, size: 0x8, addend: 0x0, symName: __ZNSt3__117__compressed_pairIfNS_21__unordered_map_equalIP4NodeNS_17__hash_value_typeIS3_iEENS_8equal_toIS3_EENS_4hashIS3_EELb1EEEEC1B8ue170006IfNS_18__default_init_tagEEEOT_OT0_, symObjAddr: 0x1072C, symBinAddr: 0x10002804C, symSize: 0x3C }
  - { offsetInCU: 0x1DA0A, offset: 0x4A365, size: 0x8, addend: 0x0, symName: __ZNSt3__110unique_ptrIA_PNS_16__hash_node_baseIPNS_11__hash_nodeINS_17__hash_value_typeIP4NodeiEEPvEEEENS_25__bucket_list_deallocatorINS_9allocatorISB_EEEEEC2B8ue170006ILb1EvEEv, symObjAddr: 0x10768, symBinAddr: 0x100028088, symSize: 0x200 }
  - { offsetInCU: 0x1DA45, offset: 0x4A3A0, size: 0x8, addend: 0x0, symName: __ZNSt3__117__compressed_pairIPPNS_16__hash_node_baseIPNS_11__hash_nodeINS_17__hash_value_typeIP4NodeiEEPvEEEENS_25__bucket_list_deallocatorINS_9allocatorISB_EEEEEC1B8ue170006INS_16__value_init_tagESJ_EEOT_OT0_, symObjAddr: 0x10968, symBinAddr: 0x100028288, symSize: 0x3C }
  - { offsetInCU: 0x1DA9D, offset: 0x4A3F8, size: 0x8, addend: 0x0, symName: __ZNSt3__117__compressed_pairIPPNS_16__hash_node_baseIPNS_11__hash_nodeINS_17__hash_value_typeIP4NodeiEEPvEEEENS_25__bucket_list_deallocatorINS_9allocatorISB_EEEEEC2B8ue170006INS_16__value_init_tagESJ_EEOT_OT0_, symObjAddr: 0x109A4, symBinAddr: 0x1000282C4, symSize: 0x40 }
  - { offsetInCU: 0x1DAF5, offset: 0x4A450, size: 0x8, addend: 0x0, symName: __ZNSt3__122__compressed_pair_elemIPPNS_16__hash_node_baseIPNS_11__hash_nodeINS_17__hash_value_typeIP4NodeiEEPvEEEELi0ELb0EEC2B8ue170006ENS_16__value_init_tagE, symObjAddr: 0x109E4, symBinAddr: 0x100028304, symSize: 0x60 }
  - { offsetInCU: 0x1DB29, offset: 0x4A484, size: 0x8, addend: 0x0, symName: __ZNSt3__122__compressed_pair_elemINS_25__bucket_list_deallocatorINS_9allocatorIPNS_16__hash_node_baseIPNS_11__hash_nodeINS_17__hash_value_typeIP4NodeiEEPvEEEEEEEELi1ELb0EEC2B8ue170006ENS_16__value_init_tagE, symObjAddr: 0x10A44, symBinAddr: 0x100028364, symSize: 0x2C }
  - { offsetInCU: 0x1DB5D, offset: 0x4A4B8, size: 0x8, addend: 0x0, symName: __ZNSt3__125__bucket_list_deallocatorINS_9allocatorIPNS_16__hash_node_baseIPNS_11__hash_nodeINS_17__hash_value_typeIP4NodeiEEPvEEEEEEEC1B8ue170006Ev, symObjAddr: 0x10A70, symBinAddr: 0x100028390, symSize: 0x2C }
  - { offsetInCU: 0x1DB87, offset: 0x4A4E2, size: 0x8, addend: 0x0, symName: __ZNSt3__125__bucket_list_deallocatorINS_9allocatorIPNS_16__hash_node_baseIPNS_11__hash_nodeINS_17__hash_value_typeIP4NodeiEEPvEEEEEEEC2B8ue170006Ev, symObjAddr: 0x10A9C, symBinAddr: 0x1000283BC, symSize: 0x270 }
  - { offsetInCU: 0x1DBB2, offset: 0x4A50D, size: 0x8, addend: 0x0, symName: __ZNSt3__117__compressed_pairImNS_9allocatorIPNS_16__hash_node_baseIPNS_11__hash_nodeINS_17__hash_value_typeIP4NodeiEEPvEEEEEEEC1B8ue170006IiNS_18__default_init_tagEEEOT_OT0_, symObjAddr: 0x10D0C, symBinAddr: 0x10002862C, symSize: 0x3C }
  - { offsetInCU: 0x1DC0A, offset: 0x4A565, size: 0x8, addend: 0x0, symName: __ZNSt3__117__compressed_pairImNS_9allocatorIPNS_16__hash_node_baseIPNS_11__hash_nodeINS_17__hash_value_typeIP4NodeiEEPvEEEEEEEC2B8ue170006IiNS_18__default_init_tagEEEOT_OT0_, symObjAddr: 0x10D48, symBinAddr: 0x100028668, symSize: 0x40 }
  - { offsetInCU: 0x1DC62, offset: 0x4A5BD, size: 0x8, addend: 0x0, symName: __ZNSt3__122__compressed_pair_elemImLi0ELb0EEC2B8ue170006IivEEOT_, symObjAddr: 0x10D88, symBinAddr: 0x1000286A8, symSize: 0xD8 }
  - { offsetInCU: 0x1DCA4, offset: 0x4A5FF, size: 0x8, addend: 0x0, symName: __ZNSt3__122__compressed_pair_elemINS_9allocatorIPNS_16__hash_node_baseIPNS_11__hash_nodeINS_17__hash_value_typeIP4NodeiEEPvEEEEEELi1ELb1EEC2B8ue170006ENS_18__default_init_tagE, symObjAddr: 0x10E60, symBinAddr: 0x100028780, symSize: 0x2C }
  - { offsetInCU: 0x1DCD8, offset: 0x4A633, size: 0x8, addend: 0x0, symName: __ZNSt3__19allocatorIPNS_16__hash_node_baseIPNS_11__hash_nodeINS_17__hash_value_typeIP4NodeiEEPvEEEEEC2B8ue170006Ev, symObjAddr: 0x10E8C, symBinAddr: 0x1000287AC, symSize: 0x2C }
  - { offsetInCU: 0x1DD02, offset: 0x4A65D, size: 0x8, addend: 0x0, symName: __ZNSt3__116__non_trivial_ifILb1ENS_9allocatorIPNS_16__hash_node_baseIPNS_11__hash_nodeINS_17__hash_value_typeIP4NodeiEEPvEEEEEEEC2B8ue170006Ev, symObjAddr: 0x10EB8, symBinAddr: 0x1000287D8, symSize: 0x14 }
  - { offsetInCU: 0x1DD2C, offset: 0x4A687, size: 0x8, addend: 0x0, symName: __ZNSt3__117__compressed_pairINS_16__hash_node_baseIPNS_11__hash_nodeINS_17__hash_value_typeIP4NodeiEEPvEEEENS_9allocatorIS8_EEEC2B8ue170006ILb1EvEEv, symObjAddr: 0x10ECC, symBinAddr: 0x1000287EC, symSize: 0x34 }
  - { offsetInCU: 0x1DD61, offset: 0x4A6BC, size: 0x8, addend: 0x0, symName: __ZNSt3__122__compressed_pair_elemINS_16__hash_node_baseIPNS_11__hash_nodeINS_17__hash_value_typeIP4NodeiEEPvEEEELi0ELb0EEC2B8ue170006ENS_16__value_init_tagE, symObjAddr: 0x10F00, symBinAddr: 0x100028820, symSize: 0x2C }
  - { offsetInCU: 0x1DD95, offset: 0x4A6F0, size: 0x8, addend: 0x0, symName: __ZNSt3__122__compressed_pair_elemINS_9allocatorINS_11__hash_nodeINS_17__hash_value_typeIP4NodeiEEPvEEEELi1ELb1EEC2B8ue170006ENS_16__value_init_tagE, symObjAddr: 0x10F2C, symBinAddr: 0x10002884C, symSize: 0x2C }
  - { offsetInCU: 0x1DDC9, offset: 0x4A724, size: 0x8, addend: 0x0, symName: __ZNSt3__116__hash_node_baseIPNS_11__hash_nodeINS_17__hash_value_typeIP4NodeiEEPvEEEC1B8ue170006Ev, symObjAddr: 0x10F58, symBinAddr: 0x100028878, symSize: 0x2C }
  - { offsetInCU: 0x1DDF3, offset: 0x4A74E, size: 0x8, addend: 0x0, symName: __ZNSt3__116__hash_node_baseIPNS_11__hash_nodeINS_17__hash_value_typeIP4NodeiEEPvEEEC2B8ue170006Ev, symObjAddr: 0x10F84, symBinAddr: 0x1000288A4, symSize: 0x60 }
  - { offsetInCU: 0x1DE1D, offset: 0x4A778, size: 0x8, addend: 0x0, symName: __ZNSt3__19allocatorINS_11__hash_nodeINS_17__hash_value_typeIP4NodeiEEPvEEEC2B8ue170006Ev, symObjAddr: 0x10FE4, symBinAddr: 0x100028904, symSize: 0x2C }
  - { offsetInCU: 0x1DE47, offset: 0x4A7A2, size: 0x8, addend: 0x0, symName: __ZNSt3__116__non_trivial_ifILb1ENS_9allocatorINS_11__hash_nodeINS_17__hash_value_typeIP4NodeiEEPvEEEEEC2B8ue170006Ev, symObjAddr: 0x11010, symBinAddr: 0x100028930, symSize: 0x14 }
  - { offsetInCU: 0x1DE71, offset: 0x4A7CC, size: 0x8, addend: 0x0, symName: __ZNSt3__117__compressed_pairImNS_22__unordered_map_hasherIP4NodeNS_17__hash_value_typeIS3_iEENS_4hashIS3_EENS_8equal_toIS3_EELb1EEEEC2B8ue170006IiNS_18__default_init_tagEEEOT_OT0_, symObjAddr: 0x11024, symBinAddr: 0x100028944, symSize: 0x40 }
  - { offsetInCU: 0x1DEC9, offset: 0x4A824, size: 0x8, addend: 0x0, symName: __ZNSt3__122__compressed_pair_elemINS_22__unordered_map_hasherIP4NodeNS_17__hash_value_typeIS3_iEENS_4hashIS3_EENS_8equal_toIS3_EELb1EEELi1ELb1EEC2B8ue170006ENS_18__default_init_tagE, symObjAddr: 0x11064, symBinAddr: 0x100028984, symSize: 0x2C }
  - { offsetInCU: 0x1DEFD, offset: 0x4A858, size: 0x8, addend: 0x0, symName: __ZNSt3__122__unordered_map_hasherIP4NodeNS_17__hash_value_typeIS2_iEENS_4hashIS2_EENS_8equal_toIS2_EELb1EEC2B8ue170006Ev, symObjAddr: 0x11090, symBinAddr: 0x1000289B0, symSize: 0x14 }
  - { offsetInCU: 0x1DF27, offset: 0x4A882, size: 0x8, addend: 0x0, symName: __ZNSt3__117__compressed_pairIfNS_21__unordered_map_equalIP4NodeNS_17__hash_value_typeIS3_iEENS_8equal_toIS3_EENS_4hashIS3_EELb1EEEEC2B8ue170006IfNS_18__default_init_tagEEEOT_OT0_, symObjAddr: 0x110A4, symBinAddr: 0x1000289C4, symSize: 0x40 }
  - { offsetInCU: 0x1DF7F, offset: 0x4A8DA, size: 0x8, addend: 0x0, symName: __ZNSt3__122__compressed_pair_elemIfLi0ELb0EEC2B8ue170006IfvEEOT_, symObjAddr: 0x110E4, symBinAddr: 0x100028A04, symSize: 0x100 }
  - { offsetInCU: 0x1DFC1, offset: 0x4A91C, size: 0x8, addend: 0x0, symName: __ZNSt3__122__compressed_pair_elemINS_21__unordered_map_equalIP4NodeNS_17__hash_value_typeIS3_iEENS_8equal_toIS3_EENS_4hashIS3_EELb1EEELi1ELb1EEC2B8ue170006ENS_18__default_init_tagE, symObjAddr: 0x111E4, symBinAddr: 0x100028B04, symSize: 0x2C }
  - { offsetInCU: 0x1DFF5, offset: 0x4A950, size: 0x8, addend: 0x0, symName: __ZNSt3__121__unordered_map_equalIP4NodeNS_17__hash_value_typeIS2_iEENS_8equal_toIS2_EENS_4hashIS2_EELb1EEC2B8ue170006Ev, symObjAddr: 0x11210, symBinAddr: 0x100028B30, symSize: 0x14 }
  - { offsetInCU: 0x1E01F, offset: 0x4A97A, size: 0x8, addend: 0x0, symName: __ZNSt3__113unordered_mapIP4NodeiNS_4hashIS2_EENS_8equal_toIS2_EENS_9allocatorINS_4pairIKS2_iEEEEED2B8ue170006Ev, symObjAddr: 0x11224, symBinAddr: 0x100028B44, symSize: 0x2C }
  - { offsetInCU: 0x1E049, offset: 0x4A9A4, size: 0x8, addend: 0x0, symName: __ZNSt3__112__hash_tableINS_17__hash_value_typeIP4NodeiEENS_22__unordered_map_hasherIS3_S4_NS_4hashIS3_EENS_8equal_toIS3_EELb1EEENS_21__unordered_map_equalIS3_S4_S9_S7_Lb1EEENS_9allocatorIS4_EEED1Ev, symObjAddr: 0x11250, symBinAddr: 0x100028B70, symSize: 0x2C }
  - { offsetInCU: 0x1E075, offset: 0x4A9D0, size: 0x8, addend: 0x0, symName: __ZNSt3__112__hash_tableINS_17__hash_value_typeIP4NodeiEENS_22__unordered_map_hasherIS3_S4_NS_4hashIS3_EENS_8equal_toIS3_EELb1EEENS_21__unordered_map_equalIS3_S4_S9_S7_Lb1EEENS_9allocatorIS4_EEED2Ev, symObjAddr: 0x1127C, symBinAddr: 0x100028B9C, symSize: 0x88 }
  - { offsetInCU: 0x1E0A1, offset: 0x4A9FC, size: 0x8, addend: 0x0, symName: __ZNSt3__112__hash_tableINS_17__hash_value_typeIP4NodeiEENS_22__unordered_map_hasherIS3_S4_NS_4hashIS3_EENS_8equal_toIS3_EELb1EEENS_21__unordered_map_equalIS3_S4_S9_S7_Lb1EEENS_9allocatorIS4_EEE17__deallocate_nodeEPNS_16__hash_node_baseIPNS_11__hash_nodeIS4_PvEEEE, symObjAddr: 0x11304, symBinAddr: 0x100028C24, symSize: 0xF8 }
  - { offsetInCU: 0x1E10B, offset: 0x4AA66, size: 0x8, addend: 0x0, symName: __ZNSt3__117__compressed_pairINS_16__hash_node_baseIPNS_11__hash_nodeINS_17__hash_value_typeIP4NodeiEEPvEEEENS_9allocatorIS8_EEE5firstB8ue170006Ev, symObjAddr: 0x113FC, symBinAddr: 0x100028D1C, symSize: 0x24 }
  - { offsetInCU: 0x1E131, offset: 0x4AA8C, size: 0x8, addend: 0x0, symName: __ZNSt3__110unique_ptrIA_PNS_16__hash_node_baseIPNS_11__hash_nodeINS_17__hash_value_typeIP4NodeiEEPvEEEENS_25__bucket_list_deallocatorINS_9allocatorISB_EEEEED1B8ue170006Ev, symObjAddr: 0x11420, symBinAddr: 0x100028D40, symSize: 0x2C }
  - { offsetInCU: 0x1E15B, offset: 0x4AAB6, size: 0x8, addend: 0x0, symName: __ZNSt3__112__hash_tableINS_17__hash_value_typeIP4NodeiEENS_22__unordered_map_hasherIS3_S4_NS_4hashIS3_EENS_8equal_toIS3_EELb1EEENS_21__unordered_map_equalIS3_S4_S9_S7_Lb1EEENS_9allocatorIS4_EEE12__node_allocB8ue170006Ev, symObjAddr: 0x1144C, symBinAddr: 0x100028D6C, symSize: 0x28 }
  - { offsetInCU: 0x1E181, offset: 0x4AADC, size: 0x8, addend: 0x0, symName: __ZNSt3__116__hash_node_baseIPNS_11__hash_nodeINS_17__hash_value_typeIP4NodeiEEPvEEE8__upcastB8ue170006Ev, symObjAddr: 0x11474, symBinAddr: 0x100028D94, symSize: 0x24 }
  - { offsetInCU: 0x1E1A7, offset: 0x4AB02, size: 0x8, addend: 0x0, symName: __ZNSt3__116allocator_traitsINS_9allocatorINS_11__hash_nodeINS_17__hash_value_typeIP4NodeiEEPvEEEEE7destroyB8ue170006INS_4pairIKS5_iEEvvEEvRS9_PT_, symObjAddr: 0x11498, symBinAddr: 0x100028DB8, symSize: 0x14 }
  - { offsetInCU: 0x1E1E1, offset: 0x4AB3C, size: 0x8, addend: 0x0, symName: __ZNSt3__122__hash_key_value_typesINS_17__hash_value_typeIP4NodeiEEE9__get_ptrB8ue170006ERS4_, symObjAddr: 0x114AC, symBinAddr: 0x100028DCC, symSize: 0x24 }
  - { offsetInCU: 0x1E204, offset: 0x4AB5F, size: 0x8, addend: 0x0, symName: __ZNSt3__116allocator_traitsINS_9allocatorINS_11__hash_nodeINS_17__hash_value_typeIP4NodeiEEPvEEEEE10deallocateB8ue170006ERS9_PS8_m, symObjAddr: 0x114D0, symBinAddr: 0x100028DF0, symSize: 0x34 }
  - { offsetInCU: 0x1E246, offset: 0x4ABA1, size: 0x8, addend: 0x0, symName: __ZNSt3__117__compressed_pairINS_16__hash_node_baseIPNS_11__hash_nodeINS_17__hash_value_typeIP4NodeiEEPvEEEENS_9allocatorIS8_EEE6secondB8ue170006Ev, symObjAddr: 0x11504, symBinAddr: 0x100028E24, symSize: 0x24 }
  - { offsetInCU: 0x1E26C, offset: 0x4ABC7, size: 0x8, addend: 0x0, symName: __ZNSt3__122__compressed_pair_elemINS_9allocatorINS_11__hash_nodeINS_17__hash_value_typeIP4NodeiEEPvEEEELi1ELb1EE5__getB8ue170006Ev, symObjAddr: 0x11528, symBinAddr: 0x100028E48, symSize: 0x14 }
  - { offsetInCU: 0x1E292, offset: 0x4ABED, size: 0x8, addend: 0x0, symName: __ZNSt3__114pointer_traitsIPNS_16__hash_node_baseIPNS_11__hash_nodeINS_17__hash_value_typeIP4NodeiEEPvEEEEE10pointer_toB8ue170006ERSA_, symObjAddr: 0x1153C, symBinAddr: 0x100028E5C, symSize: 0x14 }
  - { offsetInCU: 0x1E2B5, offset: 0x4AC10, size: 0x8, addend: 0x0, symName: __ZNSt3__117__hash_value_typeIP4NodeiE11__get_valueB8ue170006Ev, symObjAddr: 0x11550, symBinAddr: 0x100028E70, symSize: 0x24 }
  - { offsetInCU: 0x1E2DB, offset: 0x4AC36, size: 0x8, addend: 0x0, symName: __ZNSt3__19allocatorINS_11__hash_nodeINS_17__hash_value_typeIP4NodeiEEPvEEE10deallocateB8ue170006EPS7_m, symObjAddr: 0x115AC, symBinAddr: 0x100028ECC, symSize: 0x4C }
  - { offsetInCU: 0x1E31D, offset: 0x4AC78, size: 0x8, addend: 0x0, symName: __ZNSt3__122__compressed_pair_elemINS_16__hash_node_baseIPNS_11__hash_nodeINS_17__hash_value_typeIP4NodeiEEPvEEEELi0ELb0EE5__getB8ue170006Ev, symObjAddr: 0x115F8, symBinAddr: 0x100028F18, symSize: 0x14 }
  - { offsetInCU: 0x1E343, offset: 0x4AC9E, size: 0x8, addend: 0x0, symName: __ZNSt3__110unique_ptrIA_PNS_16__hash_node_baseIPNS_11__hash_nodeINS_17__hash_value_typeIP4NodeiEEPvEEEENS_25__bucket_list_deallocatorINS_9allocatorISB_EEEEED2B8ue170006Ev, symObjAddr: 0x1160C, symBinAddr: 0x100028F2C, symSize: 0x30 }
  - { offsetInCU: 0x1E36D, offset: 0x4ACC8, size: 0x8, addend: 0x0, symName: __ZNSt3__110unique_ptrIA_PNS_16__hash_node_baseIPNS_11__hash_nodeINS_17__hash_value_typeIP4NodeiEEPvEEEENS_25__bucket_list_deallocatorINS_9allocatorISB_EEEEE5resetB8ue170006EDn, symObjAddr: 0x1163C, symBinAddr: 0x100028F5C, symSize: 0xE0 }
  - { offsetInCU: 0x1E3AD, offset: 0x4AD08, size: 0x8, addend: 0x0, symName: __ZNSt3__117__compressed_pairIPPNS_16__hash_node_baseIPNS_11__hash_nodeINS_17__hash_value_typeIP4NodeiEEPvEEEENS_25__bucket_list_deallocatorINS_9allocatorISB_EEEEE5firstB8ue170006Ev, symObjAddr: 0x1171C, symBinAddr: 0x10002903C, symSize: 0x24 }
  - { offsetInCU: 0x1E3D3, offset: 0x4AD2E, size: 0x8, addend: 0x0, symName: __ZNSt3__117__compressed_pairIPPNS_16__hash_node_baseIPNS_11__hash_nodeINS_17__hash_value_typeIP4NodeiEEPvEEEENS_25__bucket_list_deallocatorINS_9allocatorISB_EEEEE6secondB8ue170006Ev, symObjAddr: 0x11740, symBinAddr: 0x100029060, symSize: 0x28 }
  - { offsetInCU: 0x1E3F9, offset: 0x4AD54, size: 0x8, addend: 0x0, symName: __ZNSt3__125__bucket_list_deallocatorINS_9allocatorIPNS_16__hash_node_baseIPNS_11__hash_nodeINS_17__hash_value_typeIP4NodeiEEPvEEEEEEEclB8ue170006EPSC_, symObjAddr: 0x11768, symBinAddr: 0x100029088, symSize: 0x98 }
  - { offsetInCU: 0x1E42E, offset: 0x4AD89, size: 0x8, addend: 0x0, symName: __ZNSt3__122__compressed_pair_elemIPPNS_16__hash_node_baseIPNS_11__hash_nodeINS_17__hash_value_typeIP4NodeiEEPvEEEELi0ELb0EE5__getB8ue170006Ev, symObjAddr: 0x11800, symBinAddr: 0x100029120, symSize: 0x14 }
  - { offsetInCU: 0x1E454, offset: 0x4ADAF, size: 0x8, addend: 0x0, symName: __ZNSt3__122__compressed_pair_elemINS_25__bucket_list_deallocatorINS_9allocatorIPNS_16__hash_node_baseIPNS_11__hash_nodeINS_17__hash_value_typeIP4NodeiEEPvEEEEEEEELi1ELb0EE5__getB8ue170006Ev, symObjAddr: 0x11814, symBinAddr: 0x100029134, symSize: 0x14 }
  - { offsetInCU: 0x1E47A, offset: 0x4ADD5, size: 0x8, addend: 0x0, symName: __ZNSt3__116allocator_traitsINS_9allocatorIPNS_16__hash_node_baseIPNS_11__hash_nodeINS_17__hash_value_typeIP4NodeiEEPvEEEEEEE10deallocateB8ue170006ERSD_PSC_m, symObjAddr: 0x11828, symBinAddr: 0x100029148, symSize: 0x34 }
  - { offsetInCU: 0x1E4BC, offset: 0x4AE17, size: 0x8, addend: 0x0, symName: __ZNSt3__125__bucket_list_deallocatorINS_9allocatorIPNS_16__hash_node_baseIPNS_11__hash_nodeINS_17__hash_value_typeIP4NodeiEEPvEEEEEEE7__allocB8ue170006Ev, symObjAddr: 0x1185C, symBinAddr: 0x10002917C, symSize: 0x24 }
  - { offsetInCU: 0x1E4E2, offset: 0x4AE3D, size: 0x8, addend: 0x0, symName: __ZNSt3__125__bucket_list_deallocatorINS_9allocatorIPNS_16__hash_node_baseIPNS_11__hash_nodeINS_17__hash_value_typeIP4NodeiEEPvEEEEEEE4sizeB8ue170006Ev, symObjAddr: 0x11880, symBinAddr: 0x1000291A0, symSize: 0x24 }
  - { offsetInCU: 0x1E508, offset: 0x4AE63, size: 0x8, addend: 0x0, symName: __ZNSt3__19allocatorIPNS_16__hash_node_baseIPNS_11__hash_nodeINS_17__hash_value_typeIP4NodeiEEPvEEEEE10deallocateB8ue170006EPSB_m, symObjAddr: 0x118A4, symBinAddr: 0x1000291C4, symSize: 0x4C }
  - { offsetInCU: 0x1E54A, offset: 0x4AEA5, size: 0x8, addend: 0x0, symName: __ZNSt3__117__compressed_pairImNS_9allocatorIPNS_16__hash_node_baseIPNS_11__hash_nodeINS_17__hash_value_typeIP4NodeiEEPvEEEEEEE6secondB8ue170006Ev, symObjAddr: 0x118F0, symBinAddr: 0x100029210, symSize: 0x24 }
  - { offsetInCU: 0x1E570, offset: 0x4AECB, size: 0x8, addend: 0x0, symName: __ZNSt3__122__compressed_pair_elemINS_9allocatorIPNS_16__hash_node_baseIPNS_11__hash_nodeINS_17__hash_value_typeIP4NodeiEEPvEEEEEELi1ELb1EE5__getB8ue170006Ev, symObjAddr: 0x11914, symBinAddr: 0x100029234, symSize: 0x14 }
  - { offsetInCU: 0x1E596, offset: 0x4AEF1, size: 0x8, addend: 0x0, symName: __ZNSt3__117__compressed_pairImNS_9allocatorIPNS_16__hash_node_baseIPNS_11__hash_nodeINS_17__hash_value_typeIP4NodeiEEPvEEEEEEE5firstB8ue170006Ev, symObjAddr: 0x11928, symBinAddr: 0x100029248, symSize: 0x24 }
  - { offsetInCU: 0x1E5BC, offset: 0x4AF17, size: 0x8, addend: 0x0, symName: __ZNSt3__122__compressed_pair_elemImLi0ELb0EE5__getB8ue170006Ev, symObjAddr: 0x1194C, symBinAddr: 0x10002926C, symSize: 0x14 }
  - { offsetInCU: 0x1E5E2, offset: 0x4AF3D, size: 0x8, addend: 0x0, symName: __ZNSt3__16vectorIP4NodeNS_9allocatorIS2_EEE11__make_iterB8ue170006EPS2_, symObjAddr: 0x11960, symBinAddr: 0x100029280, symSize: 0x1FC }
  - { offsetInCU: 0x1E619, offset: 0x4AF74, size: 0x8, addend: 0x0, symName: __ZNSt3__111__wrap_iterIPP4NodeEC1B8ue170006ES3_, symObjAddr: 0x11B5C, symBinAddr: 0x10002947C, symSize: 0x34 }
  - { offsetInCU: 0x1E651, offset: 0x4AFAC, size: 0x8, addend: 0x0, symName: __ZNSt3__111__wrap_iterIPP4NodeEC2B8ue170006ES3_, symObjAddr: 0x11B90, symBinAddr: 0x1000294B0, symSize: 0x70 }
  - { offsetInCU: 0x1E69D, offset: 0x4AFF8, size: 0x8, addend: 0x0, symName: __ZNSt3__112__hash_tableINS_17__hash_value_typeIP4NodeiEENS_22__unordered_map_hasherIS3_S4_NS_4hashIS3_EENS_8equal_toIS3_EELb1EEENS_21__unordered_map_equalIS3_S4_S9_S7_Lb1EEENS_9allocatorIS4_EEE25__emplace_unique_key_argsIS3_JRKNS_21piecewise_construct_tENS_5tupleIJRKS3_EEENSK_IJEEEEEENS_4pairINS_15__hash_iteratorIPNS_11__hash_nodeIS4_PvEEEEbEERKT_DpOT0_, symObjAddr: 0x11C00, symBinAddr: 0x100029520, symSize: 0xE50 }
  - { offsetInCU: 0x1E7B1, offset: 0x4B10C, size: 0x8, addend: 0x0, symName: __ZNKSt3__115__hash_iteratorIPNS_11__hash_nodeINS_17__hash_value_typeIP4NodeiEEPvEEEptB8ue170006Ev, symObjAddr: 0x12C4C, symBinAddr: 0x10002A56C, symSize: 0x6C }
  - { offsetInCU: 0x1E7D7, offset: 0x4B132, size: 0x8, addend: 0x0, symName: __ZNSt3__112__hash_tableINS_17__hash_value_typeIP4NodeiEENS_22__unordered_map_hasherIS3_S4_NS_4hashIS3_EENS_8equal_toIS3_EELb1EEENS_21__unordered_map_equalIS3_S4_S9_S7_Lb1EEENS_9allocatorIS4_EEE13hash_functionB8ue170006Ev, symObjAddr: 0x12CB8, symBinAddr: 0x10002A5D8, symSize: 0x28 }
  - { offsetInCU: 0x1E7FD, offset: 0x4B158, size: 0x8, addend: 0x0, symName: __ZNKSt3__122__unordered_map_hasherIP4NodeNS_17__hash_value_typeIS2_iEENS_4hashIS2_EENS_8equal_toIS2_EELb1EEclB8ue170006ERKS2_, symObjAddr: 0x12CE0, symBinAddr: 0x10002A600, symSize: 0x74 }
  - { offsetInCU: 0x1E832, offset: 0x4B18D, size: 0x8, addend: 0x0, symName: __ZNKSt3__112__hash_tableINS_17__hash_value_typeIP4NodeiEENS_22__unordered_map_hasherIS3_S4_NS_4hashIS3_EENS_8equal_toIS3_EELb1EEENS_21__unordered_map_equalIS3_S4_S9_S7_Lb1EEENS_9allocatorIS4_EEE12bucket_countB8ue170006Ev, symObjAddr: 0x12D54, symBinAddr: 0x10002A674, symSize: 0x28 }
  - { offsetInCU: 0x1E858, offset: 0x4B1B3, size: 0x8, addend: 0x0, symName: __ZNKSt3__110unique_ptrIA_PNS_16__hash_node_baseIPNS_11__hash_nodeINS_17__hash_value_typeIP4NodeiEEPvEEEENS_25__bucket_list_deallocatorINS_9allocatorISB_EEEEEixB8ue170006Em, symObjAddr: 0x12E14, symBinAddr: 0x10002A734, symSize: 0x78 }
  - { offsetInCU: 0x1E88D, offset: 0x4B1E8, size: 0x8, addend: 0x0, symName: __ZNKSt3__116__hash_node_baseIPNS_11__hash_nodeINS_17__hash_value_typeIP4NodeiEEPvEEE6__hashB8ue170006Ev, symObjAddr: 0x12E8C, symBinAddr: 0x10002A7AC, symSize: 0x64 }
  - { offsetInCU: 0x1E8B3, offset: 0x4B20E, size: 0x8, addend: 0x0, symName: __ZNSt3__112__hash_tableINS_17__hash_value_typeIP4NodeiEENS_22__unordered_map_hasherIS3_S4_NS_4hashIS3_EENS_8equal_toIS3_EELb1EEENS_21__unordered_map_equalIS3_S4_S9_S7_Lb1EEENS_9allocatorIS4_EEE6key_eqB8ue170006Ev, symObjAddr: 0x12EF0, symBinAddr: 0x10002A810, symSize: 0x28 }
  - { offsetInCU: 0x1E8D9, offset: 0x4B234, size: 0x8, addend: 0x0, symName: __ZNKSt3__121__unordered_map_equalIP4NodeNS_17__hash_value_typeIS2_iEENS_8equal_toIS2_EENS_4hashIS2_EELb1EEclB8ue170006ERKS4_RKS2_, symObjAddr: 0x12F18, symBinAddr: 0x10002A838, symSize: 0x48 }
  - { offsetInCU: 0x1E91D, offset: 0x4B278, size: 0x8, addend: 0x0, symName: __ZNSt3__112__hash_tableINS_17__hash_value_typeIP4NodeiEENS_22__unordered_map_hasherIS3_S4_NS_4hashIS3_EENS_8equal_toIS3_EELb1EEENS_21__unordered_map_equalIS3_S4_S9_S7_Lb1EEENS_9allocatorIS4_EEE21__construct_node_hashIRKNS_21piecewise_construct_tEJNS_5tupleIJRKS3_EEENSK_IJEEEEEENS_10unique_ptrINS_11__hash_nodeIS4_PvEENS_22__hash_node_destructorINSD_ISS_EEEEEEmOT_DpOT0_, symObjAddr: 0x12F60, symBinAddr: 0x10002A880, symSize: 0x428 }
  - { offsetInCU: 0x1E9C0, offset: 0x4B31B, size: 0x8, addend: 0x0, symName: __ZNSt3__112__hash_tableINS_17__hash_value_typeIP4NodeiEENS_22__unordered_map_hasherIS3_S4_NS_4hashIS3_EENS_8equal_toIS3_EELb1EEENS_21__unordered_map_equalIS3_S4_S9_S7_Lb1EEENS_9allocatorIS4_EEE4sizeB8ue170006Ev, symObjAddr: 0x13388, symBinAddr: 0x10002ACA8, symSize: 0x28 }
  - { offsetInCU: 0x1E9E6, offset: 0x4B341, size: 0x8, addend: 0x0, symName: __ZNSt3__112__hash_tableINS_17__hash_value_typeIP4NodeiEENS_22__unordered_map_hasherIS3_S4_NS_4hashIS3_EENS_8equal_toIS3_EELb1EEENS_21__unordered_map_equalIS3_S4_S9_S7_Lb1EEENS_9allocatorIS4_EEE15max_load_factorB8ue170006Ev, symObjAddr: 0x133B0, symBinAddr: 0x10002ACD0, symSize: 0x28 }
  - { offsetInCU: 0x1EA0C, offset: 0x4B367, size: 0x8, addend: 0x0, symName: __ZNSt3__112__hash_tableINS_17__hash_value_typeIP4NodeiEENS_22__unordered_map_hasherIS3_S4_NS_4hashIS3_EENS_8equal_toIS3_EELb1EEENS_21__unordered_map_equalIS3_S4_S9_S7_Lb1EEENS_9allocatorIS4_EEE15__rehash_uniqueB8ue170006Em, symObjAddr: 0x133D8, symBinAddr: 0x10002ACF8, symSize: 0x2C }
  - { offsetInCU: 0x1EA40, offset: 0x4B39B, size: 0x8, addend: 0x0, symName: __Z4ceilB8ue170006f, symObjAddr: 0x13454, symBinAddr: 0x10002AD74, symSize: 0x18 }
  - { offsetInCU: 0x1EA6F, offset: 0x4B3CA, size: 0x8, addend: 0x0, symName: __ZNSt3__116__hash_node_baseIPNS_11__hash_nodeINS_17__hash_value_typeIP4NodeiEEPvEEE5__ptrB8ue170006Ev, symObjAddr: 0x1346C, symBinAddr: 0x10002AD8C, symSize: 0x24 }
  - { offsetInCU: 0x1EA95, offset: 0x4B3F0, size: 0x8, addend: 0x0, symName: __ZNKSt3__110unique_ptrINS_11__hash_nodeINS_17__hash_value_typeIP4NodeiEEPvEENS_22__hash_node_destructorINS_9allocatorIS7_EEEEEptB8ue170006Ev, symObjAddr: 0x13490, symBinAddr: 0x10002ADB0, symSize: 0x6C }
  - { offsetInCU: 0x1EABB, offset: 0x4B416, size: 0x8, addend: 0x0, symName: __ZNKSt3__110unique_ptrINS_11__hash_nodeINS_17__hash_value_typeIP4NodeiEEPvEENS_22__hash_node_destructorINS_9allocatorIS7_EEEEE3getB8ue170006Ev, symObjAddr: 0x134FC, symBinAddr: 0x10002AE1C, symSize: 0x6C }
  - { offsetInCU: 0x1EAE1, offset: 0x4B43C, size: 0x8, addend: 0x0, symName: __ZNSt3__110unique_ptrINS_11__hash_nodeINS_17__hash_value_typeIP4NodeiEEPvEENS_22__hash_node_destructorINS_9allocatorIS7_EEEEE7releaseB8ue170006Ev, symObjAddr: 0x13568, symBinAddr: 0x10002AE88, symSize: 0xB8 }
  - { offsetInCU: 0x1EB16, offset: 0x4B471, size: 0x8, addend: 0x0, symName: __ZNSt3__110unique_ptrINS_11__hash_nodeINS_17__hash_value_typeIP4NodeiEEPvEENS_22__hash_node_destructorINS_9allocatorIS7_EEEEED1B8ue170006Ev, symObjAddr: 0x13620, symBinAddr: 0x10002AF40, symSize: 0x2C }
  - { offsetInCU: 0x1EB40, offset: 0x4B49B, size: 0x8, addend: 0x0, symName: __ZNSt3__115__hash_iteratorIPNS_11__hash_nodeINS_17__hash_value_typeIP4NodeiEEPvEEEC1B8ue170006EPNS_16__hash_node_baseIS8_EE, symObjAddr: 0x1364C, symBinAddr: 0x10002AF6C, symSize: 0x34 }
  - { offsetInCU: 0x1EB7E, offset: 0x4B4D9, size: 0x8, addend: 0x0, symName: __ZNSt3__14pairINS_15__hash_iteratorIPNS_11__hash_nodeINS_17__hash_value_typeIP4NodeiEEPvEEEEbEC1B8ue170006ISA_RbLS7_0EEEOT_OT0_, symObjAddr: 0x13680, symBinAddr: 0x10002AFA0, symSize: 0x3C }
  - { offsetInCU: 0x1EBDC, offset: 0x4B537, size: 0x8, addend: 0x0, symName: __ZNSt3__117__compressed_pairImNS_22__unordered_map_hasherIP4NodeNS_17__hash_value_typeIS3_iEENS_4hashIS3_EENS_8equal_toIS3_EELb1EEEE6secondB8ue170006Ev, symObjAddr: 0x136BC, symBinAddr: 0x10002AFDC, symSize: 0x24 }
  - { offsetInCU: 0x1EC02, offset: 0x4B55D, size: 0x8, addend: 0x0, symName: __ZNSt3__122__compressed_pair_elemINS_22__unordered_map_hasherIP4NodeNS_17__hash_value_typeIS3_iEENS_4hashIS3_EENS_8equal_toIS3_EELb1EEELi1ELb1EE5__getB8ue170006Ev, symObjAddr: 0x136E0, symBinAddr: 0x10002B000, symSize: 0x14 }
  - { offsetInCU: 0x1EC28, offset: 0x4B583, size: 0x8, addend: 0x0, symName: __ZNKSt3__14hashIP4NodeEclB8ue170006ES2_, symObjAddr: 0x136F4, symBinAddr: 0x10002B014, symSize: 0x278 }
  - { offsetInCU: 0x1EC94, offset: 0x4B5EF, size: 0x8, addend: 0x0, symName: __ZNKSt3__121__murmur2_or_cityhashImLm64EEclB8ue170006EPKvm, symObjAddr: 0x1396C, symBinAddr: 0x10002B28C, symSize: 0xE04 }
  - { offsetInCU: 0x1ED40, offset: 0x4B69B, size: 0x8, addend: 0x0, symName: __ZNSt3__121__murmur2_or_cityhashImLm64EE18__hash_len_0_to_16B8ue170006EPKcm, symObjAddr: 0x14770, symBinAddr: 0x10002C090, symSize: 0x2D8 }
  - { offsetInCU: 0x1EE19, offset: 0x4B774, size: 0x8, addend: 0x0, symName: __ZNSt3__121__murmur2_or_cityhashImLm64EE19__hash_len_17_to_32B8ue170006EPKcm, symObjAddr: 0x14A48, symBinAddr: 0x10002C368, symSize: 0x130 }
  - { offsetInCU: 0x1EE82, offset: 0x4B7DD, size: 0x8, addend: 0x0, symName: __ZNSt3__121__murmur2_or_cityhashImLm64EE19__hash_len_33_to_64B8ue170006EPKcm, symObjAddr: 0x14B78, symBinAddr: 0x10002C498, symSize: 0x2B8 }
  - { offsetInCU: 0x1EF37, offset: 0x4B892, size: 0x8, addend: 0x0, symName: __ZNSt3__121__murmur2_or_cityhashImLm64EE13__hash_len_16B8ue170006Emm, symObjAddr: 0x15044, symBinAddr: 0x10002C964, symSize: 0x80 }
  - { offsetInCU: 0x1EF92, offset: 0x4B8ED, size: 0x8, addend: 0x0, symName: __ZNSt3__121__murmur2_or_cityhashImLm64EE29__weak_hash_len_32_with_seedsB8ue170006EPKcmm, symObjAddr: 0x150C4, symBinAddr: 0x10002C9E4, symSize: 0x270 }
  - { offsetInCU: 0x1EFD4, offset: 0x4B92F, size: 0x8, addend: 0x0, symName: __ZNSt3__121__murmur2_or_cityhashImLm64EE8__rotateB8ue170006Emi, symObjAddr: 0x15334, symBinAddr: 0x10002CC54, symSize: 0x64 }
  - { offsetInCU: 0x1F005, offset: 0x4B960, size: 0x8, addend: 0x0, symName: __ZNSt3__14pairImmEaSB8ue170006EOS1_, symObjAddr: 0x15398, symBinAddr: 0x10002CCB8, symSize: 0x134 }
  - { offsetInCU: 0x1F03A, offset: 0x4B995, size: 0x8, addend: 0x0, symName: __ZNSt3__121__murmur2_or_cityhashImLm64EE11__shift_mixB8ue170006Em, symObjAddr: 0x15600, symBinAddr: 0x10002CF20, symSize: 0x1C }
  - { offsetInCU: 0x1F05D, offset: 0x4B9B8, size: 0x8, addend: 0x0, symName: __ZNSt3__121__murmur2_or_cityhashImLm64EE22__rotate_by_at_least_1B8ue170006Emi, symObjAddr: 0x1561C, symBinAddr: 0x10002CF3C, symSize: 0x38 }
  - { offsetInCU: 0x1F08E, offset: 0x4B9E9, size: 0x8, addend: 0x0, symName: __ZNSt3__121__murmur2_or_cityhashImLm64EE29__weak_hash_len_32_with_seedsB8ue170006Emmmmmm, symObjAddr: 0x15894, symBinAddr: 0x10002D1B4, symSize: 0x398 }
  - { offsetInCU: 0x1F111, offset: 0x4BA6C, size: 0x8, addend: 0x0, symName: __ZNSt3__14pairImmEC1B8ue170006ImmLPv0EEEOT_OT0_, symObjAddr: 0x15C2C, symBinAddr: 0x10002D54C, symSize: 0x3C }
  - { offsetInCU: 0x1F16F, offset: 0x4BACA, size: 0x8, addend: 0x0, symName: __ZNSt3__14pairImmEC2B8ue170006ImmLPv0EEEOT_OT0_, symObjAddr: 0x15C68, symBinAddr: 0x10002D588, symSize: 0x138 }
  - { offsetInCU: 0x1F1CD, offset: 0x4BB28, size: 0x8, addend: 0x0, symName: __ZNKSt3__110unique_ptrIA_PNS_16__hash_node_baseIPNS_11__hash_nodeINS_17__hash_value_typeIP4NodeiEEPvEEEENS_25__bucket_list_deallocatorINS_9allocatorISB_EEEEE11get_deleterB8ue170006Ev, symObjAddr: 0x15DA0, symBinAddr: 0x10002D6C0, symSize: 0x24 }
  - { offsetInCU: 0x1F1F3, offset: 0x4BB4E, size: 0x8, addend: 0x0, symName: __ZNKSt3__125__bucket_list_deallocatorINS_9allocatorIPNS_16__hash_node_baseIPNS_11__hash_nodeINS_17__hash_value_typeIP4NodeiEEPvEEEEEEE4sizeB8ue170006Ev, symObjAddr: 0x15DC4, symBinAddr: 0x10002D6E4, symSize: 0x6C }
  - { offsetInCU: 0x1F219, offset: 0x4BB74, size: 0x8, addend: 0x0, symName: __ZNKSt3__117__compressed_pairIPPNS_16__hash_node_baseIPNS_11__hash_nodeINS_17__hash_value_typeIP4NodeiEEPvEEEENS_25__bucket_list_deallocatorINS_9allocatorISB_EEEEE6secondB8ue170006Ev, symObjAddr: 0x15E30, symBinAddr: 0x10002D750, symSize: 0x28 }
  - { offsetInCU: 0x1F23F, offset: 0x4BB9A, size: 0x8, addend: 0x0, symName: __ZNKSt3__122__compressed_pair_elemINS_25__bucket_list_deallocatorINS_9allocatorIPNS_16__hash_node_baseIPNS_11__hash_nodeINS_17__hash_value_typeIP4NodeiEEPvEEEEEEEELi1ELb0EE5__getB8ue170006Ev, symObjAddr: 0x15E58, symBinAddr: 0x10002D778, symSize: 0x14 }
  - { offsetInCU: 0x1F265, offset: 0x4BBC0, size: 0x8, addend: 0x0, symName: __ZNKSt3__117__compressed_pairImNS_9allocatorIPNS_16__hash_node_baseIPNS_11__hash_nodeINS_17__hash_value_typeIP4NodeiEEPvEEEEEEE5firstB8ue170006Ev, symObjAddr: 0x15E6C, symBinAddr: 0x10002D78C, symSize: 0x24 }
  - { offsetInCU: 0x1F28B, offset: 0x4BBE6, size: 0x8, addend: 0x0, symName: __ZNKSt3__122__compressed_pair_elemImLi0ELb0EE5__getB8ue170006Ev, symObjAddr: 0x15E90, symBinAddr: 0x10002D7B0, symSize: 0x14 }
  - { offsetInCU: 0x1F2B1, offset: 0x4BC0C, size: 0x8, addend: 0x0, symName: __ZNKSt3__117__compressed_pairIPPNS_16__hash_node_baseIPNS_11__hash_nodeINS_17__hash_value_typeIP4NodeiEEPvEEEENS_25__bucket_list_deallocatorINS_9allocatorISB_EEEEE5firstB8ue170006Ev, symObjAddr: 0x15EA4, symBinAddr: 0x10002D7C4, symSize: 0x24 }
  - { offsetInCU: 0x1F2D7, offset: 0x4BC32, size: 0x8, addend: 0x0, symName: __ZNKSt3__122__compressed_pair_elemIPPNS_16__hash_node_baseIPNS_11__hash_nodeINS_17__hash_value_typeIP4NodeiEEPvEEEELi0ELb0EE5__getB8ue170006Ev, symObjAddr: 0x15EC8, symBinAddr: 0x10002D7E8, symSize: 0x14 }
  - { offsetInCU: 0x1F2FD, offset: 0x4BC58, size: 0x8, addend: 0x0, symName: __ZNSt3__117__compressed_pairIfNS_21__unordered_map_equalIP4NodeNS_17__hash_value_typeIS3_iEENS_8equal_toIS3_EENS_4hashIS3_EELb1EEEE6secondB8ue170006Ev, symObjAddr: 0x15EDC, symBinAddr: 0x10002D7FC, symSize: 0x24 }
  - { offsetInCU: 0x1F323, offset: 0x4BC7E, size: 0x8, addend: 0x0, symName: __ZNSt3__122__compressed_pair_elemINS_21__unordered_map_equalIP4NodeNS_17__hash_value_typeIS3_iEENS_8equal_toIS3_EENS_4hashIS3_EELb1EEELi1ELb1EE5__getB8ue170006Ev, symObjAddr: 0x15F00, symBinAddr: 0x10002D820, symSize: 0x14 }
  - { offsetInCU: 0x1F349, offset: 0x4BCA4, size: 0x8, addend: 0x0, symName: __ZNKSt3__18equal_toIP4NodeEclB8ue170006ERKS2_S5_, symObjAddr: 0x15F14, symBinAddr: 0x10002D834, symSize: 0xBC }
  - { offsetInCU: 0x1F38D, offset: 0x4BCE8, size: 0x8, addend: 0x0, symName: __ZNKSt3__117__hash_value_typeIP4NodeiE11__get_valueB8ue170006Ev, symObjAddr: 0x15FD0, symBinAddr: 0x10002D8F0, symSize: 0x24 }
  - { offsetInCU: 0x1F3B3, offset: 0x4BD0E, size: 0x8, addend: 0x0, symName: __ZNSt3__116allocator_traitsINS_9allocatorINS_11__hash_nodeINS_17__hash_value_typeIP4NodeiEEPvEEEEE8allocateB8ue170006ERS9_m, symObjAddr: 0x1602C, symBinAddr: 0x10002D94C, symSize: 0x2C }
  - { offsetInCU: 0x1F3E6, offset: 0x4BD41, size: 0x8, addend: 0x0, symName: __ZNSt3__122__hash_node_destructorINS_9allocatorINS_11__hash_nodeINS_17__hash_value_typeIP4NodeiEEPvEEEEEC1B8ue170006ERS9_b, symObjAddr: 0x16058, symBinAddr: 0x10002D978, symSize: 0x48 }
  - { offsetInCU: 0x1F433, offset: 0x4BD8E, size: 0x8, addend: 0x0, symName: __ZNSt3__110unique_ptrINS_11__hash_nodeINS_17__hash_value_typeIP4NodeiEEPvEENS_22__hash_node_destructorINS_9allocatorIS7_EEEEEC1B8ue170006ILb1EvEEPS7_NS_16__dependent_typeINS_27__unique_ptr_deleter_sfinaeISB_EEXT_EE20__good_rval_ref_typeE, symObjAddr: 0x160A0, symBinAddr: 0x10002D9C0, symSize: 0x3C }
  - { offsetInCU: 0x1F484, offset: 0x4BDDF, size: 0x8, addend: 0x0, symName: __ZNSt3__116allocator_traitsINS_9allocatorINS_11__hash_nodeINS_17__hash_value_typeIP4NodeiEEPvEEEEE9constructB8ue170006INS_4pairIKS5_iEEJRKNS_21piecewise_construct_tENS_5tupleIJRSD_EEENSI_IJEEEEvEEvRS9_PT_DpOT0_, symObjAddr: 0x160DC, symBinAddr: 0x10002D9FC, symSize: 0x44 }
  - { offsetInCU: 0x1F503, offset: 0x4BE5E, size: 0x8, addend: 0x0, symName: __ZNSt3__110unique_ptrINS_11__hash_nodeINS_17__hash_value_typeIP4NodeiEEPvEENS_22__hash_node_destructorINS_9allocatorIS7_EEEEE11get_deleterB8ue170006Ev, symObjAddr: 0x16120, symBinAddr: 0x10002DA40, symSize: 0x24 }
  - { offsetInCU: 0x1F529, offset: 0x4BE84, size: 0x8, addend: 0x0, symName: __ZNSt3__19allocatorINS_11__hash_nodeINS_17__hash_value_typeIP4NodeiEEPvEEE8allocateB8ue170006Em, symObjAddr: 0x16144, symBinAddr: 0x10002DA64, symSize: 0x5C }
  - { offsetInCU: 0x1F567, offset: 0x4BEC2, size: 0x8, addend: 0x0, symName: __ZNSt3__116allocator_traitsINS_9allocatorINS_11__hash_nodeINS_17__hash_value_typeIP4NodeiEEPvEEEEE8max_sizeB8ue170006IS9_vEEmRKS9_, symObjAddr: 0x161A0, symBinAddr: 0x10002DAC0, symSize: 0x24 }
  - { offsetInCU: 0x1F595, offset: 0x4BEF0, size: 0x8, addend: 0x0, symName: __ZNKSt3__19allocatorINS_11__hash_nodeINS_17__hash_value_typeIP4NodeiEEPvEEE8max_sizeB8ue170006Ev, symObjAddr: 0x161C4, symBinAddr: 0x10002DAE4, symSize: 0x14 }
  - { offsetInCU: 0x1F5BB, offset: 0x4BF16, size: 0x8, addend: 0x0, symName: __ZNSt3__122__hash_node_destructorINS_9allocatorINS_11__hash_nodeINS_17__hash_value_typeIP4NodeiEEPvEEEEEC2B8ue170006ERS9_b, symObjAddr: 0x161D8, symBinAddr: 0x10002DAF8, symSize: 0xF0 }
  - { offsetInCU: 0x1F603, offset: 0x4BF5E, size: 0x8, addend: 0x0, symName: __ZNSt3__110unique_ptrINS_11__hash_nodeINS_17__hash_value_typeIP4NodeiEEPvEENS_22__hash_node_destructorINS_9allocatorIS7_EEEEEC2B8ue170006ILb1EvEEPS7_NS_16__dependent_typeINS_27__unique_ptr_deleter_sfinaeISB_EEXT_EE20__good_rval_ref_typeE, symObjAddr: 0x162C8, symBinAddr: 0x10002DBE8, symSize: 0x21C }
  - { offsetInCU: 0x1F65A, offset: 0x4BFB5, size: 0x8, addend: 0x0, symName: __ZNSt3__117__compressed_pairIPNS_11__hash_nodeINS_17__hash_value_typeIP4NodeiEEPvEENS_22__hash_node_destructorINS_9allocatorIS7_EEEEEC1B8ue170006IRS8_SC_EEOT_OT0_, symObjAddr: 0x164E4, symBinAddr: 0x10002DE04, symSize: 0x3C }
  - { offsetInCU: 0x1F6B2, offset: 0x4C00D, size: 0x8, addend: 0x0, symName: __ZNSt3__117__compressed_pairIPNS_11__hash_nodeINS_17__hash_value_typeIP4NodeiEEPvEENS_22__hash_node_destructorINS_9allocatorIS7_EEEEEC2B8ue170006IRS8_SC_EEOT_OT0_, symObjAddr: 0x16520, symBinAddr: 0x10002DE40, symSize: 0x48 }
  - { offsetInCU: 0x1F70A, offset: 0x4C065, size: 0x8, addend: 0x0, symName: __ZNSt3__122__compressed_pair_elemIPNS_11__hash_nodeINS_17__hash_value_typeIP4NodeiEEPvEELi0ELb0EEC2B8ue170006IRS8_vEEOT_, symObjAddr: 0x16568, symBinAddr: 0x10002DE88, symSize: 0xB0 }
  - { offsetInCU: 0x1F74C, offset: 0x4C0A7, size: 0x8, addend: 0x0, symName: __ZNSt3__122__compressed_pair_elemINS_22__hash_node_destructorINS_9allocatorINS_11__hash_nodeINS_17__hash_value_typeIP4NodeiEEPvEEEEEELi1ELb0EEC2B8ue170006ISB_vEEOT_, symObjAddr: 0x16618, symBinAddr: 0x10002DF38, symSize: 0x38 }
  - { offsetInCU: 0x1F78E, offset: 0x4C0E9, size: 0x8, addend: 0x0, symName: __ZNSt3__19allocatorINS_11__hash_nodeINS_17__hash_value_typeIP4NodeiEEPvEEE9constructB8ue170006INS_4pairIKS4_iEEJRKNS_21piecewise_construct_tENS_5tupleIJRSB_EEENSG_IJEEEEEEvPT_DpOT0_, symObjAddr: 0x16650, symBinAddr: 0x10002DF70, symSize: 0x214 }
  - { offsetInCU: 0x1F80F, offset: 0x4C16A, size: 0x8, addend: 0x0, symName: __ZNSt3__14pairIKP4NodeiEC1B8ue170006IJRS3_EJEEENS_21piecewise_construct_tENS_5tupleIJDpT_EEENS8_IJDpT0_EEE, symObjAddr: 0x16864, symBinAddr: 0x10002E184, symSize: 0x248 }
  - { offsetInCU: 0x1F880, offset: 0x4C1DB, size: 0x8, addend: 0x0, symName: __ZNSt3__14pairIKP4NodeiEC1B8ue170006IJRS3_EJEJLm0EEJEEENS_21piecewise_construct_tERNS_5tupleIJDpT_EEERNS8_IJDpT0_EEENS_15__tuple_indicesIJXspT1_EEEENSH_IJXspT2_EEEE, symObjAddr: 0x16AAC, symBinAddr: 0x10002E3CC, symSize: 0x3C }
  - { offsetInCU: 0x1F90D, offset: 0x4C268, size: 0x8, addend: 0x0, symName: __ZNSt3__14pairIKP4NodeiEC2B8ue170006IJRS3_EJEJLm0EEJEEENS_21piecewise_construct_tERNS_5tupleIJDpT_EEERNS8_IJDpT0_EEENS_15__tuple_indicesIJXspT1_EEEENSH_IJXspT2_EEEE, symObjAddr: 0x16AE8, symBinAddr: 0x10002E408, symSize: 0x11C }
  - { offsetInCU: 0x1F99A, offset: 0x4C2F5, size: 0x8, addend: 0x0, symName: __ZNSt3__112__tuple_leafILm0ERKP4NodeLb0EE3getB8ue170006Ev, symObjAddr: 0x16C28, symBinAddr: 0x10002E548, symSize: 0x60 }
  - { offsetInCU: 0x1F9C0, offset: 0x4C31B, size: 0x8, addend: 0x0, symName: __ZNSt3__117__compressed_pairIPNS_11__hash_nodeINS_17__hash_value_typeIP4NodeiEEPvEENS_22__hash_node_destructorINS_9allocatorIS7_EEEEE6secondB8ue170006Ev, symObjAddr: 0x16C88, symBinAddr: 0x10002E5A8, symSize: 0x28 }
  - { offsetInCU: 0x1F9E6, offset: 0x4C341, size: 0x8, addend: 0x0, symName: __ZNSt3__122__compressed_pair_elemINS_22__hash_node_destructorINS_9allocatorINS_11__hash_nodeINS_17__hash_value_typeIP4NodeiEEPvEEEEEELi1ELb0EE5__getB8ue170006Ev, symObjAddr: 0x16CB0, symBinAddr: 0x10002E5D0, symSize: 0x14 }
  - { offsetInCU: 0x1FA0C, offset: 0x4C367, size: 0x8, addend: 0x0, symName: __ZNSt3__117__compressed_pairImNS_22__unordered_map_hasherIP4NodeNS_17__hash_value_typeIS3_iEENS_4hashIS3_EENS_8equal_toIS3_EELb1EEEE5firstB8ue170006Ev, symObjAddr: 0x16CC4, symBinAddr: 0x10002E5E4, symSize: 0x24 }
  - { offsetInCU: 0x1FA32, offset: 0x4C38D, size: 0x8, addend: 0x0, symName: __ZNSt3__117__compressed_pairIfNS_21__unordered_map_equalIP4NodeNS_17__hash_value_typeIS3_iEENS_8equal_toIS3_EENS_4hashIS3_EELb1EEEE5firstB8ue170006Ev, symObjAddr: 0x16CE8, symBinAddr: 0x10002E608, symSize: 0x24 }
  - { offsetInCU: 0x1FA58, offset: 0x4C3B3, size: 0x8, addend: 0x0, symName: __ZNSt3__122__compressed_pair_elemIfLi0ELb0EE5__getB8ue170006Ev, symObjAddr: 0x16D0C, symBinAddr: 0x10002E62C, symSize: 0x14 }
  - { offsetInCU: 0x1FA7E, offset: 0x4C3D9, size: 0x8, addend: 0x0, symName: __ZNSt3__112__hash_tableINS_17__hash_value_typeIP4NodeiEENS_22__unordered_map_hasherIS3_S4_NS_4hashIS3_EENS_8equal_toIS3_EELb1EEENS_21__unordered_map_equalIS3_S4_S9_S7_Lb1EEENS_9allocatorIS4_EEE8__rehashILb1EEEvm, symObjAddr: 0x16D20, symBinAddr: 0x10002E640, symSize: 0x784 }
  - { offsetInCU: 0x1FAD4, offset: 0x4C42F, size: 0x8, addend: 0x0, symName: __ZNSt3__112__hash_tableINS_17__hash_value_typeIP4NodeiEENS_22__unordered_map_hasherIS3_S4_NS_4hashIS3_EENS_8equal_toIS3_EELb1EEENS_21__unordered_map_equalIS3_S4_S9_S7_Lb1EEENS_9allocatorIS4_EEE11__do_rehashILb1EEEvm, symObjAddr: 0x174A4, symBinAddr: 0x10002EDC4, symSize: 0x5BC }
  - { offsetInCU: 0x1FBB9, offset: 0x4C514, size: 0x8, addend: 0x0, symName: __ZNSt3__110unique_ptrIA_PNS_16__hash_node_baseIPNS_11__hash_nodeINS_17__hash_value_typeIP4NodeiEEPvEEEENS_25__bucket_list_deallocatorINS_9allocatorISB_EEEEE11get_deleterB8ue170006Ev, symObjAddr: 0x17ACC, symBinAddr: 0x10002F3EC, symSize: 0x24 }
  - { offsetInCU: 0x1FBDF, offset: 0x4C53A, size: 0x8, addend: 0x0, symName: __ZNSt3__110unique_ptrIA_PNS_16__hash_node_baseIPNS_11__hash_nodeINS_17__hash_value_typeIP4NodeiEEPvEEEENS_25__bucket_list_deallocatorINS_9allocatorISB_EEEEE5resetB8ue170006IPSB_EENS_9enable_ifIXsr28_CheckArrayPointerConversionIT_EE5valueEvE4typeESL_, symObjAddr: 0x17AF0, symBinAddr: 0x10002F410, symSize: 0xEC }
  - { offsetInCU: 0x1FC2C, offset: 0x4C587, size: 0x8, addend: 0x0, symName: __ZNSt3__116allocator_traitsINS_9allocatorIPNS_16__hash_node_baseIPNS_11__hash_nodeINS_17__hash_value_typeIP4NodeiEEPvEEEEEEE8allocateB8ue170006ERSD_m, symObjAddr: 0x17BDC, symBinAddr: 0x10002F4FC, symSize: 0x2C }
  - { offsetInCU: 0x1FC5F, offset: 0x4C5BA, size: 0x8, addend: 0x0, symName: __ZNSt3__19allocatorIPNS_16__hash_node_baseIPNS_11__hash_nodeINS_17__hash_value_typeIP4NodeiEEPvEEEEE8allocateB8ue170006Em, symObjAddr: 0x17C08, symBinAddr: 0x10002F528, symSize: 0x5C }
  - { offsetInCU: 0x1FC9D, offset: 0x4C5F8, size: 0x8, addend: 0x0, symName: __ZNSt3__116allocator_traitsINS_9allocatorIPNS_16__hash_node_baseIPNS_11__hash_nodeINS_17__hash_value_typeIP4NodeiEEPvEEEEEEE8max_sizeB8ue170006ISD_vEEmRKSD_, symObjAddr: 0x17C64, symBinAddr: 0x10002F584, symSize: 0x24 }
  - { offsetInCU: 0x1FCCB, offset: 0x4C626, size: 0x8, addend: 0x0, symName: __ZNKSt3__19allocatorIPNS_16__hash_node_baseIPNS_11__hash_nodeINS_17__hash_value_typeIP4NodeiEEPvEEEEE8max_sizeB8ue170006Ev, symObjAddr: 0x17C88, symBinAddr: 0x10002F5A8, symSize: 0x14 }
  - { offsetInCU: 0x1FCF1, offset: 0x4C64C, size: 0x8, addend: 0x0, symName: __ZNKSt3__117__compressed_pairIPNS_11__hash_nodeINS_17__hash_value_typeIP4NodeiEEPvEENS_22__hash_node_destructorINS_9allocatorIS7_EEEEE5firstB8ue170006Ev, symObjAddr: 0x17CB8, symBinAddr: 0x10002F5D8, symSize: 0x24 }
  - { offsetInCU: 0x1FD17, offset: 0x4C672, size: 0x8, addend: 0x0, symName: __ZNKSt3__122__compressed_pair_elemIPNS_11__hash_nodeINS_17__hash_value_typeIP4NodeiEEPvEELi0ELb0EE5__getB8ue170006Ev, symObjAddr: 0x17CDC, symBinAddr: 0x10002F5FC, symSize: 0x14 }
  - { offsetInCU: 0x1FD3D, offset: 0x4C698, size: 0x8, addend: 0x0, symName: __ZNSt3__117__compressed_pairIPNS_11__hash_nodeINS_17__hash_value_typeIP4NodeiEEPvEENS_22__hash_node_destructorINS_9allocatorIS7_EEEEE5firstB8ue170006Ev, symObjAddr: 0x17CF0, symBinAddr: 0x10002F610, symSize: 0x24 }
  - { offsetInCU: 0x1FD63, offset: 0x4C6BE, size: 0x8, addend: 0x0, symName: __ZNSt3__122__compressed_pair_elemIPNS_11__hash_nodeINS_17__hash_value_typeIP4NodeiEEPvEELi0ELb0EE5__getB8ue170006Ev, symObjAddr: 0x17D14, symBinAddr: 0x10002F634, symSize: 0x14 }
  - { offsetInCU: 0x1FD89, offset: 0x4C6E4, size: 0x8, addend: 0x0, symName: __ZNSt3__110unique_ptrINS_11__hash_nodeINS_17__hash_value_typeIP4NodeiEEPvEENS_22__hash_node_destructorINS_9allocatorIS7_EEEEED2B8ue170006Ev, symObjAddr: 0x17D28, symBinAddr: 0x10002F648, symSize: 0x30 }
  - { offsetInCU: 0x1FDB3, offset: 0x4C70E, size: 0x8, addend: 0x0, symName: __ZNSt3__110unique_ptrINS_11__hash_nodeINS_17__hash_value_typeIP4NodeiEEPvEENS_22__hash_node_destructorINS_9allocatorIS7_EEEEE5resetB8ue170006EPS7_, symObjAddr: 0x17D58, symBinAddr: 0x10002F678, symSize: 0xEC }
  - { offsetInCU: 0x1FDF7, offset: 0x4C752, size: 0x8, addend: 0x0, symName: __ZNSt3__122__hash_node_destructorINS_9allocatorINS_11__hash_nodeINS_17__hash_value_typeIP4NodeiEEPvEEEEEclB8ue170006EPS8_, symObjAddr: 0x17E44, symBinAddr: 0x10002F764, symSize: 0x164 }
  - { offsetInCU: 0x1FE2C, offset: 0x4C787, size: 0x8, addend: 0x0, symName: __ZNSt3__115__hash_iteratorIPNS_11__hash_nodeINS_17__hash_value_typeIP4NodeiEEPvEEEC2B8ue170006EPNS_16__hash_node_baseIS8_EE, symObjAddr: 0x17FA8, symBinAddr: 0x10002F8C8, symSize: 0x70 }
  - { offsetInCU: 0x1FE65, offset: 0x4C7C0, size: 0x8, addend: 0x0, symName: __ZNSt3__14pairINS_15__hash_iteratorIPNS_11__hash_nodeINS_17__hash_value_typeIP4NodeiEEPvEEEEbEC2B8ue170006ISA_RbLS7_0EEEOT_OT0_, symObjAddr: 0x18018, symBinAddr: 0x10002F938, symSize: 0x120 }
  - { offsetInCU: 0x1FEC3, offset: 0x4C81E, size: 0x8, addend: 0x0, symName: __ZNSt3__15tupleIJRKP4NodeEEC1B8ue170006INS_4_AndELi0EEES4_, symObjAddr: 0x18138, symBinAddr: 0x10002FA58, symSize: 0x34 }
  - { offsetInCU: 0x1FF0C, offset: 0x4C867, size: 0x8, addend: 0x0, symName: __ZNSt3__15tupleIJRKP4NodeEEC2B8ue170006INS_4_AndELi0EEES4_, symObjAddr: 0x1816C, symBinAddr: 0x10002FA8C, symSize: 0x34 }
  - { offsetInCU: 0x1FF55, offset: 0x4C8B0, size: 0x8, addend: 0x0, symName: __ZNSt3__112__tuple_implINS_15__tuple_indicesIJLm0EEEEJRKP4NodeEEC1B8ue170006IJLm0EEJS6_EJEJEJS6_EEENS1_IJXspT_EEEENS_13__tuple_typesIJDpT0_EEENS1_IJXspT1_EEEENSA_IJDpT2_EEEDpOT3_, symObjAddr: 0x181A0, symBinAddr: 0x10002FAC0, symSize: 0x34 }
  - { offsetInCU: 0x1FFE6, offset: 0x4C941, size: 0x8, addend: 0x0, symName: __ZNSt3__112__tuple_implINS_15__tuple_indicesIJLm0EEEEJRKP4NodeEEC2B8ue170006IJLm0EEJS6_EJEJEJS6_EEENS1_IJXspT_EEEENS_13__tuple_typesIJDpT0_EEENS1_IJXspT1_EEEENSA_IJDpT2_EEEDpOT3_, symObjAddr: 0x181D4, symBinAddr: 0x10002FAF4, symSize: 0x34 }
  - { offsetInCU: 0x20077, offset: 0x4C9D2, size: 0x8, addend: 0x0, symName: __ZNSt3__112__tuple_leafILm0ERKP4NodeLb0EEC2B8ue170006IS4_vEEOT_, symObjAddr: 0x18208, symBinAddr: 0x10002FB28, symSize: 0x70 }
  - { offsetInCU: 0x200BA, offset: 0x4CA15, size: 0x8, addend: 0x0, symName: __ZNSt3__114pointer_traitsIPNS_17__hash_value_typeIP4NodeiEEE10pointer_toB8ue170006ERS4_, symObjAddr: 0x18278, symBinAddr: 0x10002FB98, symSize: 0x14 }
  - { offsetInCU: 0x200DD, offset: 0x4CA38, size: 0x8, addend: 0x0, symName: __ZNSt3__112__hash_tableINS_17__hash_value_typeIP4NodeiEENS_22__unordered_map_hasherIS3_S4_NS_4hashIS3_EENS_8equal_toIS3_EELb1EEENS_21__unordered_map_equalIS3_S4_S9_S7_Lb1EEENS_9allocatorIS4_EEE5beginEv, symObjAddr: 0x1828C, symBinAddr: 0x10002FBAC, symSize: 0x23C }
  - { offsetInCU: 0x20106, offset: 0x4CA61, size: 0x8, addend: 0x0, symName: __ZNSt3__119__hash_map_iteratorINS_15__hash_iteratorIPNS_11__hash_nodeINS_17__hash_value_typeIP4NodeiEEPvEEEEEC1B8ue170006ESA_, symObjAddr: 0x184C8, symBinAddr: 0x10002FDE8, symSize: 0x238 }
  - { offsetInCU: 0x20144, offset: 0x4CA9F, size: 0x8, addend: 0x0, symName: __ZNSt3__119__hash_map_iteratorINS_15__hash_iteratorIPNS_11__hash_nodeINS_17__hash_value_typeIP4NodeiEEPvEEEEEC2B8ue170006ESA_, symObjAddr: 0x18700, symBinAddr: 0x100030020, symSize: 0x204 }
  - { offsetInCU: 0x20182, offset: 0x4CADD, size: 0x8, addend: 0x0, symName: __ZNSt3__112__hash_tableINS_17__hash_value_typeIP4NodeiEENS_22__unordered_map_hasherIS3_S4_NS_4hashIS3_EENS_8equal_toIS3_EELb1EEENS_21__unordered_map_equalIS3_S4_S9_S7_Lb1EEENS_9allocatorIS4_EEE3endEv, symObjAddr: 0x18904, symBinAddr: 0x100030224, symSize: 0x1F8 }
  - { offsetInCU: 0x201AB, offset: 0x4CB06, size: 0x8, addend: 0x0, symName: __ZNSt3__115__hash_iteratorIPNS_11__hash_nodeINS_17__hash_value_typeIP4NodeiEEPvEEEppB8ue170006Ev, symObjAddr: 0x18BE8, symBinAddr: 0x100030508, symSize: 0xDC }
  - { offsetInCU: 0x201D1, offset: 0x4CB2C, size: 0x8, addend: 0x0, symName: __ZNKSt3__16vectorIP4EdgeNS_9allocatorIS2_EEE11__make_iterB8ue170006EPKS2_, symObjAddr: 0x19B0C, symBinAddr: 0x1000305E4, symSize: 0x1FC }
  - { offsetInCU: 0x20208, offset: 0x4CB63, size: 0x8, addend: 0x0, symName: __ZNSt3__111__wrap_iterIPKP4EdgeEC1B8ue170006ES4_, symObjAddr: 0x19D08, symBinAddr: 0x1000307E0, symSize: 0x34 }
  - { offsetInCU: 0x20240, offset: 0x4CB9B, size: 0x8, addend: 0x0, symName: __ZNSt3__111__wrap_iterIPKP4EdgeEC2B8ue170006ES4_, symObjAddr: 0x19D3C, symBinAddr: 0x100030814, symSize: 0x70 }
  - { offsetInCU: 0x20291, offset: 0x4CBEC, size: 0x8, addend: 0x0, symName: __ZNSt3__16vectorIP4EdgeNS_9allocatorIS2_EEE11__make_iterB8ue170006EPS2_, symObjAddr: 0x21E68, symBinAddr: 0x100030884, symSize: 0x1FC }
  - { offsetInCU: 0x202C8, offset: 0x4CC23, size: 0x8, addend: 0x0, symName: __ZNSt3__111__wrap_iterIPP4EdgeEC1B8ue170006ES3_, symObjAddr: 0x22064, symBinAddr: 0x100030A80, symSize: 0x34 }
  - { offsetInCU: 0x20300, offset: 0x4CC5B, size: 0x8, addend: 0x0, symName: __ZNSt3__111__wrap_iterIPP4EdgeEC2B8ue170006ES3_, symObjAddr: 0x22098, symBinAddr: 0x100030AB4, symSize: 0x70 }
  - { offsetInCU: 0x3B, offset: 0x4CE99, size: 0x8, addend: 0x0, symName: _.str, symObjAddr: 0x1B5A0, symBinAddr: 0x1000B4A40, symSize: 0x0 }
  - { offsetInCU: 0x6C, offset: 0x4CECA, size: 0x8, addend: 0x0, symName: _.str.1, symObjAddr: 0x1B5E0, symBinAddr: 0x1000B4A80, symSize: 0x0 }
  - { offsetInCU: 0x12AFE, offset: 0x5F95C, size: 0x8, addend: 0x0, symName: __ZNSt3__1neB8ue170006IPKP4NodeEEbRKNS_11__wrap_iterIT_EES9_, symObjAddr: 0x1A74, symBinAddr: 0x100032528, symSize: 0x34 }
  - { offsetInCU: 0x12B41, offset: 0x5F99F, size: 0x8, addend: 0x0, symName: '__ZNSt3__19remove_ifB8ue170006INS_11__wrap_iterIPP4NodeEEZN6ECC_FS15trim_candidatesERNS_6vectorIS3_NS_9allocatorIS3_EEEERKSA_E3$_0EET_SF_SF_T0_', symObjAddr: 0x2BE8, symBinAddr: 0x100033590, symSize: 0x5C0 }
  - { offsetInCU: 0x134EE, offset: 0x6034C, size: 0x8, addend: 0x0, symName: __ZNSt3__122__make_exception_guardB8ue170006INS_6vectorIiNS_9allocatorIiEEE16__destroy_vectorEEENS_28__exception_guard_exceptionsIT_EES7_, symObjAddr: 0x5B40, symBinAddr: 0x1000354C8, symSize: 0x278 }
  - { offsetInCU: 0x13527, offset: 0x60385, size: 0x8, addend: 0x0, symName: __ZNSt3__119__allocate_at_leastB8ue170006INS_9allocatorIiEEEENS_19__allocation_resultINS_16allocator_traitsIT_E7pointerEEERS5_m, symObjAddr: 0x6FE8, symBinAddr: 0x100036970, symSize: 0x28C }
  - { offsetInCU: 0x1356C, offset: 0x603CA, size: 0x8, addend: 0x0, symName: __ZNSt3__112__to_addressB8ue170006IiEEPT_S2_, symObjAddr: 0x7B88, symBinAddr: 0x100036FE8, symSize: 0x14 }
  - { offsetInCU: 0x135A1, offset: 0x603FF, size: 0x8, addend: 0x0, symName: __ZNSt3__1eqB8ue170006IPKP4NodeEEbRKNS_11__wrap_iterIT_EES9_, symObjAddr: 0x8B90, symBinAddr: 0x100037EE8, symSize: 0x48 }
  - { offsetInCU: 0x135E4, offset: 0x60442, size: 0x8, addend: 0x0, symName: '__ZNSt3__17find_ifB8ue170006INS_11__wrap_iterIPP4NodeEERZN6ECC_FS15trim_candidatesERNS_6vectorIS3_NS_9allocatorIS3_EEEERKSA_E3$_0EET_SG_SG_T0_', symObjAddr: 0x10414, symBinAddr: 0x1000382B4, symSize: 0x368 }
  - { offsetInCU: 0x13648, offset: 0x604A6, size: 0x8, addend: 0x0, symName: __ZNSt3__1miB8ue170006IPKP4NodePS2_EEDTmicldtfp_4baseEcldtfp0_4baseEERKNS_11__wrap_iterIT_EERKNS7_IT0_EE, symObjAddr: 0x10898, symBinAddr: 0x100038738, symSize: 0x48 }
  - { offsetInCU: 0x13694, offset: 0x604F2, size: 0x8, addend: 0x0, symName: __ZNSt3__14moveB8ue170006IPP4NodeS3_EET0_T_S5_S4_, symObjAddr: 0x1092C, symBinAddr: 0x100038780, symSize: 0x26C }
  - { offsetInCU: 0x136F1, offset: 0x6054F, size: 0x8, addend: 0x0, symName: __ZNSt3__1miB8ue170006IPKP4NodeS4_EEDTmicldtfp_4baseEcldtfp0_4baseEERKNS_11__wrap_iterIT_EERKNS6_IT0_EE, symObjAddr: 0x10B98, symBinAddr: 0x1000389EC, symSize: 0x48 }
  - { offsetInCU: 0x1373D, offset: 0x6059B, size: 0x8, addend: 0x0, symName: __ZNSt3__16__moveB8ue170006INS_17_ClassicAlgPolicyEPP4NodeS4_S4_EENS_4pairIT0_T2_EES6_T1_S7_, symObjAddr: 0x10BE0, symBinAddr: 0x100038A34, symSize: 0x22C }
  - { offsetInCU: 0x137AC, offset: 0x6060A, size: 0x8, addend: 0x0, symName: __ZNSt3__123__dispatch_copy_or_moveB8ue170006INS_17_ClassicAlgPolicyENS_11__move_loopIS1_EENS_14__move_trivialEPP4NodeS7_S7_EENS_4pairIT2_T4_EES9_T3_SA_, symObjAddr: 0x10E0C, symBinAddr: 0x100038C60, symSize: 0x22C }
  - { offsetInCU: 0x1382D, offset: 0x6068B, size: 0x8, addend: 0x0, symName: __ZNSt3__121__unwrap_and_dispatchB8ue170006INS_10__overloadINS_11__move_loopINS_17_ClassicAlgPolicyEEENS_14__move_trivialEEEPP4NodeS9_S9_Li0EEENS_4pairIT0_T2_EESB_T1_SC_, symObjAddr: 0x11038, symBinAddr: 0x100038E8C, symSize: 0x5A4 }
  - { offsetInCU: 0x138C6, offset: 0x60724, size: 0x8, addend: 0x0, symName: __ZNSt3__114__unwrap_rangeB8ue170006IPP4NodeS3_EENS_4pairIT0_S5_EET_S7_, symObjAddr: 0x115DC, symBinAddr: 0x100039430, symSize: 0x350 }
  - { offsetInCU: 0x13A5D, offset: 0x608BB, size: 0x8, addend: 0x0, symName: __ZNSt3__19make_pairB8ue170006IPP4NodeS3_EENS_4pairINS_18__unwrap_ref_decayIT_E4typeENS5_IT0_E4typeEEEOS6_OS9_, symObjAddr: 0x11B80, symBinAddr: 0x1000399B0, symSize: 0x20C }
  - { offsetInCU: 0x13AAE, offset: 0x6090C, size: 0x8, addend: 0x0, symName: __ZNSt3__114__rewrap_rangeB8ue170006IPP4NodeS3_EET_S4_T0_, symObjAddr: 0x11D8C, symBinAddr: 0x100039BBC, symSize: 0x2C }
  - { offsetInCU: 0x13AFA, offset: 0x60958, size: 0x8, addend: 0x0, symName: __ZNSt3__119__copy_trivial_implB8ue170006IP4NodeS2_EENS_4pairIPT_PT0_EES5_S5_S7_, symObjAddr: 0x11E00, symBinAddr: 0x100039BE8, symSize: 0x3B4 }
  - { offsetInCU: 0x13B69, offset: 0x609C7, size: 0x8, addend: 0x0, symName: __ZNSt3__119__constexpr_memmoveB8ue170006IP4NodeS2_Li0EEEPT_S4_PT0_NS_15__element_countE, symObjAddr: 0x121B4, symBinAddr: 0x100039F9C, symSize: 0x64 }
  - { offsetInCU: 0x13BD7, offset: 0x60A35, size: 0x8, addend: 0x0, symName: __ZNSt3__19make_pairB8ue170006IRPP4NodeS3_EENS_4pairINS_18__unwrap_ref_decayIT_E4typeENS6_IT0_E4typeEEEOS7_OSA_, symObjAddr: 0x12218, symBinAddr: 0x10003A000, symSize: 0x20C }
  - { offsetInCU: 0x16FB5, offset: 0x63E13, size: 0x8, addend: 0x0, symName: __ZN6ECC_FSC2ENSt3__112basic_stringIcNS0_11char_traitsIcEENS0_9allocatorIcEEEE, symObjAddr: 0x0, symBinAddr: 0x100030BBC, symSize: 0x3DC }
  - { offsetInCU: 0x16FF2, offset: 0x63E50, size: 0x8, addend: 0x0, symName: __ZN8Fast_setC1Ei, symObjAddr: 0x48C, symBinAddr: 0x100030F98, symSize: 0x34 }
  - { offsetInCU: 0x1702A, offset: 0x63E88, size: 0x8, addend: 0x0, symName: __ZN6ECC_FSC1ENSt3__112basic_stringIcNS0_11char_traitsIcEENS0_9allocatorIcEEEE, symObjAddr: 0x4EC, symBinAddr: 0x100030FCC, symSize: 0x34 }
  - { offsetInCU: 0x17065, offset: 0x63EC3, size: 0x8, addend: 0x0, symName: __ZN6ECC_FSC2ER5Graph, symObjAddr: 0x520, symBinAddr: 0x100031000, symSize: 0x18C }
  - { offsetInCU: 0x1709F, offset: 0x63EFD, size: 0x8, addend: 0x0, symName: __ZN6ECC_FSC1ER5Graph, symObjAddr: 0x6AC, symBinAddr: 0x10003118C, symSize: 0x34 }
  - { offsetInCU: 0x170D9, offset: 0x63F37, size: 0x8, addend: 0x0, symName: __ZN6ECC_FS18node_set_intersectERKNSt3__16vectorIP4NodeNS0_9allocatorIS3_EEEES8_, symObjAddr: 0x6E0, symBinAddr: 0x1000311C0, symSize: 0x908 }
  - { offsetInCU: 0x171DB, offset: 0x64039, size: 0x8, addend: 0x0, symName: __ZNSt3__16vectorIP4NodeNS_9allocatorIS2_EEE7reserveEm, symObjAddr: 0x1014, symBinAddr: 0x100031AC8, symSize: 0x364 }
  - { offsetInCU: 0x1723D, offset: 0x6409B, size: 0x8, addend: 0x0, symName: __ZN8Fast_set5clearEv, symObjAddr: 0x1378, symBinAddr: 0x100031E2C, symSize: 0x228 }
  - { offsetInCU: 0x1727F, offset: 0x640DD, size: 0x8, addend: 0x0, symName: __ZNKSt3__16vectorIP4NodeNS_9allocatorIS2_EEE5beginB8ue170006Ev, symObjAddr: 0x15A0, symBinAddr: 0x100032054, symSize: 0x268 }
  - { offsetInCU: 0x172A8, offset: 0x64106, size: 0x8, addend: 0x0, symName: __ZNKSt3__16vectorIP4NodeNS_9allocatorIS2_EEE3endB8ue170006Ev, symObjAddr: 0x1808, symBinAddr: 0x1000322BC, symSize: 0x26C }
  - { offsetInCU: 0x172D1, offset: 0x6412F, size: 0x8, addend: 0x0, symName: __ZNKSt3__111__wrap_iterIPKP4NodeEdeB8ue170006Ev, symObjAddr: 0x1AA8, symBinAddr: 0x10003255C, symSize: 0x60 }
  - { offsetInCU: 0x172F7, offset: 0x64155, size: 0x8, addend: 0x0, symName: __ZN8Fast_set3addEi, symObjAddr: 0x1B08, symBinAddr: 0x1000325BC, symSize: 0x1F8 }
  - { offsetInCU: 0x17339, offset: 0x64197, size: 0x8, addend: 0x0, symName: __ZNSt3__111__wrap_iterIPKP4NodeEppB8ue170006Ev, symObjAddr: 0x1D00, symBinAddr: 0x1000327B4, symSize: 0x68 }
  - { offsetInCU: 0x1735F, offset: 0x641BD, size: 0x8, addend: 0x0, symName: __ZN8Fast_set3getEi, symObjAddr: 0x1D68, symBinAddr: 0x10003281C, symSize: 0x118 }
  - { offsetInCU: 0x17393, offset: 0x641F1, size: 0x8, addend: 0x0, symName: __ZN6ECC_FS15trim_candidatesERNSt3__16vectorIP4NodeNS0_9allocatorIS3_EEEERKS6_, symObjAddr: 0x1F8C, symBinAddr: 0x100032934, symSize: 0x7DC }
  - { offsetInCU: 0x17460, offset: 0x642BE, size: 0x8, addend: 0x0, symName: __ZNSt3__16vectorIP4NodeNS_9allocatorIS2_EEE5eraseENS_11__wrap_iterIPKS2_EES9_, symObjAddr: 0x2768, symBinAddr: 0x100033110, symSize: 0x480 }
  - { offsetInCU: 0x174C9, offset: 0x64327, size: 0x8, addend: 0x0, symName: __ZNSt3__111__wrap_iterIPKP4NodeEC1B8ue170006IPS2_EERKNS0_IT_EEPNS_9enable_ifIXsr14is_convertibleIS8_S4_EE5valueEvE4typeE, symObjAddr: 0x367C, symBinAddr: 0x100033B50, symSize: 0x3C }
  - { offsetInCU: 0x17514, offset: 0x64372, size: 0x8, addend: 0x0, symName: __ZN6ECC_FS14find_clique_ofEP4Edge, symObjAddr: 0x36B8, symBinAddr: 0x100033B8C, symSize: 0x6CC }
  - { offsetInCU: 0x1759A, offset: 0x643F8, size: 0x8, addend: 0x0, symName: __ZN6ECC_FS12extract_nodeERNSt3__16vectorIP4NodeNS0_9allocatorIS3_EEEEP6Clique, symObjAddr: 0x3D84, symBinAddr: 0x100034258, symSize: 0xAB0 }
  - { offsetInCU: 0x177DD, offset: 0x6463B, size: 0x8, addend: 0x0, symName: __ZN8Fast_setC2Ei, symObjAddr: 0x5380, symBinAddr: 0x100034D08, symSize: 0x2B0 }
  - { offsetInCU: 0x17817, offset: 0x64675, size: 0x8, addend: 0x0, symName: __ZNSt3__16vectorIiNS_9allocatorIiEEEC1EmRKi, symObjAddr: 0x5630, symBinAddr: 0x100034FB8, symSize: 0x3C }
  - { offsetInCU: 0x17861, offset: 0x646BF, size: 0x8, addend: 0x0, symName: __ZNSt3__16vectorIiNS_9allocatorIiEEEC2EmRKi, symObjAddr: 0x566C, symBinAddr: 0x100034FF4, symSize: 0x498 }
  - { offsetInCU: 0x178D1, offset: 0x6472F, size: 0x8, addend: 0x0, symName: __ZNSt3__117__compressed_pairIPiNS_9allocatorIiEEEC1B8ue170006IDnNS_18__default_init_tagEEEOT_OT0_, symObjAddr: 0x5B04, symBinAddr: 0x10003548C, symSize: 0x3C }
  - { offsetInCU: 0x17929, offset: 0x64787, size: 0x8, addend: 0x0, symName: __ZNSt3__16vectorIiNS_9allocatorIiEEE16__destroy_vectorC1B8ue170006ERS3_, symObjAddr: 0x5DB8, symBinAddr: 0x100035740, symSize: 0x34 }
  - { offsetInCU: 0x17962, offset: 0x647C0, size: 0x8, addend: 0x0, symName: __ZNSt3__16vectorIiNS_9allocatorIiEEE11__vallocateB8ue170006Em, symObjAddr: 0x5DEC, symBinAddr: 0x100035774, symSize: 0x420 }
  - { offsetInCU: 0x179AC, offset: 0x6480A, size: 0x8, addend: 0x0, symName: __ZNSt3__16vectorIiNS_9allocatorIiEEE18__construct_at_endEmRKi, symObjAddr: 0x620C, symBinAddr: 0x100035B94, symSize: 0x3EC }
  - { offsetInCU: 0x17A36, offset: 0x64894, size: 0x8, addend: 0x0, symName: __ZNSt3__128__exception_guard_exceptionsINS_6vectorIiNS_9allocatorIiEEE16__destroy_vectorEE10__completeB8ue170006Ev, symObjAddr: 0x65F8, symBinAddr: 0x100035F80, symSize: 0x8C }
  - { offsetInCU: 0x17A5C, offset: 0x648BA, size: 0x8, addend: 0x0, symName: __ZNSt3__128__exception_guard_exceptionsINS_6vectorIiNS_9allocatorIiEEE16__destroy_vectorEED1B8ue170006Ev, symObjAddr: 0x6684, symBinAddr: 0x10003600C, symSize: 0x2C }
  - { offsetInCU: 0x17A86, offset: 0x648E4, size: 0x8, addend: 0x0, symName: __ZNSt3__117__compressed_pairIPiNS_9allocatorIiEEEC2B8ue170006IDnNS_18__default_init_tagEEEOT_OT0_, symObjAddr: 0x66B0, symBinAddr: 0x100036038, symSize: 0x40 }
  - { offsetInCU: 0x17ADE, offset: 0x6493C, size: 0x8, addend: 0x0, symName: __ZNSt3__122__compressed_pair_elemIPiLi0ELb0EEC2B8ue170006IDnvEEOT_, symObjAddr: 0x66F0, symBinAddr: 0x100036078, symSize: 0x64 }
  - { offsetInCU: 0x17B20, offset: 0x6497E, size: 0x8, addend: 0x0, symName: __ZNSt3__122__compressed_pair_elemINS_9allocatorIiEELi1ELb1EEC2B8ue170006ENS_18__default_init_tagE, symObjAddr: 0x6754, symBinAddr: 0x1000360DC, symSize: 0x2C }
  - { offsetInCU: 0x17B54, offset: 0x649B2, size: 0x8, addend: 0x0, symName: __ZNSt3__19allocatorIiEC2B8ue170006Ev, symObjAddr: 0x6780, symBinAddr: 0x100036108, symSize: 0x2C }
  - { offsetInCU: 0x17B7E, offset: 0x649DC, size: 0x8, addend: 0x0, symName: __ZNSt3__116__non_trivial_ifILb1ENS_9allocatorIiEEEC2B8ue170006Ev, symObjAddr: 0x67AC, symBinAddr: 0x100036134, symSize: 0x14 }
  - { offsetInCU: 0x17BA8, offset: 0x64A06, size: 0x8, addend: 0x0, symName: __ZNSt3__128__exception_guard_exceptionsINS_6vectorIiNS_9allocatorIiEEE16__destroy_vectorEEC1B8ue170006ES5_, symObjAddr: 0x67C0, symBinAddr: 0x100036148, symSize: 0x238 }
  - { offsetInCU: 0x17BE5, offset: 0x64A43, size: 0x8, addend: 0x0, symName: __ZNSt3__128__exception_guard_exceptionsINS_6vectorIiNS_9allocatorIiEEE16__destroy_vectorEEC2B8ue170006ES5_, symObjAddr: 0x69F8, symBinAddr: 0x100036380, symSize: 0x264 }
  - { offsetInCU: 0x17C22, offset: 0x64A80, size: 0x8, addend: 0x0, symName: __ZNSt3__16vectorIiNS_9allocatorIiEEE16__destroy_vectorC2B8ue170006ERS3_, symObjAddr: 0x6C5C, symBinAddr: 0x1000365E4, symSize: 0x70 }
  - { offsetInCU: 0x17C5B, offset: 0x64AB9, size: 0x8, addend: 0x0, symName: __ZNKSt3__16vectorIiNS_9allocatorIiEEE8max_sizeEv, symObjAddr: 0x6CCC, symBinAddr: 0x100036654, symSize: 0x2FC }
  - { offsetInCU: 0x17C84, offset: 0x64AE2, size: 0x8, addend: 0x0, symName: __ZNKSt3__16vectorIiNS_9allocatorIiEEE20__throw_length_errorB8ue170006Ev, symObjAddr: 0x6FC8, symBinAddr: 0x100036950, symSize: 0x20 }
  - { offsetInCU: 0x17CAA, offset: 0x64B08, size: 0x8, addend: 0x0, symName: __ZNSt3__16vectorIiNS_9allocatorIiEEE7__allocB8ue170006Ev, symObjAddr: 0x7274, symBinAddr: 0x100036BFC, symSize: 0x28 }
  - { offsetInCU: 0x17CD0, offset: 0x64B2E, size: 0x8, addend: 0x0, symName: __ZNSt3__16vectorIiNS_9allocatorIiEEE9__end_capB8ue170006Ev, symObjAddr: 0x729C, symBinAddr: 0x100036C24, symSize: 0x28 }
  - { offsetInCU: 0x17CF6, offset: 0x64B54, size: 0x8, addend: 0x0, symName: __ZNKSt3__16vectorIiNS_9allocatorIiEEE14__annotate_newB8ue170006Em, symObjAddr: 0x72C4, symBinAddr: 0x100036C4C, symSize: 0xC0 }
  - { offsetInCU: 0x17D35, offset: 0x64B93, size: 0x8, addend: 0x0, symName: __ZNSt3__116allocator_traitsINS_9allocatorIiEEE8max_sizeB8ue170006IS2_vEEmRKS2_, symObjAddr: 0x73B0, symBinAddr: 0x100036D0C, symSize: 0x24 }
  - { offsetInCU: 0x17D63, offset: 0x64BC1, size: 0x8, addend: 0x0, symName: __ZNKSt3__16vectorIiNS_9allocatorIiEEE7__allocB8ue170006Ev, symObjAddr: 0x73D4, symBinAddr: 0x100036D30, symSize: 0x28 }
  - { offsetInCU: 0x17D89, offset: 0x64BE7, size: 0x8, addend: 0x0, symName: __ZNKSt3__19allocatorIiE8max_sizeB8ue170006Ev, symObjAddr: 0x76C0, symBinAddr: 0x100036D58, symSize: 0x14 }
  - { offsetInCU: 0x17DAF, offset: 0x64C0D, size: 0x8, addend: 0x0, symName: __ZNKSt3__117__compressed_pairIPiNS_9allocatorIiEEE6secondB8ue170006Ev, symObjAddr: 0x76D4, symBinAddr: 0x100036D6C, symSize: 0x24 }
  - { offsetInCU: 0x17DD5, offset: 0x64C33, size: 0x8, addend: 0x0, symName: __ZNKSt3__122__compressed_pair_elemINS_9allocatorIiEELi1ELb1EE5__getB8ue170006Ev, symObjAddr: 0x76F8, symBinAddr: 0x100036D90, symSize: 0x14 }
  - { offsetInCU: 0x17DFB, offset: 0x64C59, size: 0x8, addend: 0x0, symName: __ZNSt3__19allocatorIiE8allocateB8ue170006Em, symObjAddr: 0x783C, symBinAddr: 0x100036DA4, symSize: 0x5C }
  - { offsetInCU: 0x17E2F, offset: 0x64C8D, size: 0x8, addend: 0x0, symName: __ZNSt3__117__compressed_pairIPiNS_9allocatorIiEEE6secondB8ue170006Ev, symObjAddr: 0x79A0, symBinAddr: 0x100036E00, symSize: 0x24 }
  - { offsetInCU: 0x17E55, offset: 0x64CB3, size: 0x8, addend: 0x0, symName: __ZNSt3__122__compressed_pair_elemINS_9allocatorIiEELi1ELb1EE5__getB8ue170006Ev, symObjAddr: 0x79C4, symBinAddr: 0x100036E24, symSize: 0x14 }
  - { offsetInCU: 0x17E7B, offset: 0x64CD9, size: 0x8, addend: 0x0, symName: __ZNSt3__117__compressed_pairIPiNS_9allocatorIiEEE5firstB8ue170006Ev, symObjAddr: 0x79D8, symBinAddr: 0x100036E38, symSize: 0x24 }
  - { offsetInCU: 0x17EA1, offset: 0x64CFF, size: 0x8, addend: 0x0, symName: __ZNSt3__122__compressed_pair_elemIPiLi0ELb0EE5__getB8ue170006Ev, symObjAddr: 0x79FC, symBinAddr: 0x100036E5C, symSize: 0x14 }
  - { offsetInCU: 0x17EC7, offset: 0x64D25, size: 0x8, addend: 0x0, symName: __ZNKSt3__16vectorIiNS_9allocatorIiEEE31__annotate_contiguous_containerEPKvS5_S5_S5_, symObjAddr: 0x7A10, symBinAddr: 0x100036E70, symSize: 0x58 }
  - { offsetInCU: 0x17F29, offset: 0x64D87, size: 0x8, addend: 0x0, symName: __ZNKSt3__16vectorIiNS_9allocatorIiEEE4dataB8ue170006Ev, symObjAddr: 0x7A68, symBinAddr: 0x100036EC8, symSize: 0x64 }
  - { offsetInCU: 0x17F4F, offset: 0x64DAD, size: 0x8, addend: 0x0, symName: __ZNKSt3__16vectorIiNS_9allocatorIiEEE8capacityB8ue170006Ev, symObjAddr: 0x7ACC, symBinAddr: 0x100036F2C, symSize: 0xBC }
  - { offsetInCU: 0x17F75, offset: 0x64DD3, size: 0x8, addend: 0x0, symName: __ZNKSt3__16vectorIiNS_9allocatorIiEEE9__end_capB8ue170006Ev, symObjAddr: 0x7B9C, symBinAddr: 0x100036FFC, symSize: 0x28 }
  - { offsetInCU: 0x17F9B, offset: 0x64DF9, size: 0x8, addend: 0x0, symName: __ZNKSt3__117__compressed_pairIPiNS_9allocatorIiEEE5firstB8ue170006Ev, symObjAddr: 0x7BC4, symBinAddr: 0x100037024, symSize: 0x24 }
  - { offsetInCU: 0x17FC1, offset: 0x64E1F, size: 0x8, addend: 0x0, symName: __ZNKSt3__122__compressed_pair_elemIPiLi0ELb0EE5__getB8ue170006Ev, symObjAddr: 0x7BE8, symBinAddr: 0x100037048, symSize: 0x14 }
  - { offsetInCU: 0x18000, offset: 0x64E5E, size: 0x8, addend: 0x0, symName: __ZNSt3__16vectorIiNS_9allocatorIiEEE21_ConstructTransactionC1B8ue170006ERS3_m, symObjAddr: 0x7BFC, symBinAddr: 0x10003705C, symSize: 0x3C }
  - { offsetInCU: 0x18048, offset: 0x64EA6, size: 0x8, addend: 0x0, symName: __ZNSt3__116allocator_traitsINS_9allocatorIiEEE9constructB8ue170006IiJRKiEvEEvRS2_PT_DpOT0_, symObjAddr: 0x7C38, symBinAddr: 0x100037098, symSize: 0x34 }
  - { offsetInCU: 0x1809F, offset: 0x64EFD, size: 0x8, addend: 0x0, symName: __ZNSt3__16vectorIiNS_9allocatorIiEEE21_ConstructTransactionD1B8ue170006Ev, symObjAddr: 0x7C6C, symBinAddr: 0x1000370CC, symSize: 0x2C }
  - { offsetInCU: 0x180C9, offset: 0x64F27, size: 0x8, addend: 0x0, symName: __ZNSt3__16vectorIiNS_9allocatorIiEEE21_ConstructTransactionC2B8ue170006ERS3_m, symObjAddr: 0x7C98, symBinAddr: 0x1000370F8, symSize: 0x1D0 }
  - { offsetInCU: 0x18111, offset: 0x64F6F, size: 0x8, addend: 0x0, symName: __ZNKSt3__16vectorIiNS_9allocatorIiEEE19__annotate_increaseB8ue170006Em, symObjAddr: 0x7E68, symBinAddr: 0x1000372C8, symSize: 0xD8 }
  - { offsetInCU: 0x18146, offset: 0x64FA4, size: 0x8, addend: 0x0, symName: __ZNKSt3__16vectorIiNS_9allocatorIiEEE4sizeB8ue170006Ev, symObjAddr: 0x7F40, symBinAddr: 0x1000373A0, symSize: 0xB0 }
  - { offsetInCU: 0x1816C, offset: 0x64FCA, size: 0x8, addend: 0x0, symName: __ZNSt3__19allocatorIiE9constructB8ue170006IiJRKiEEEvPT_DpOT0_, symObjAddr: 0x7FF0, symBinAddr: 0x100037450, symSize: 0x104 }
  - { offsetInCU: 0x181C2, offset: 0x65020, size: 0x8, addend: 0x0, symName: __ZNSt3__16vectorIiNS_9allocatorIiEEE21_ConstructTransactionD2B8ue170006Ev, symObjAddr: 0x80F4, symBinAddr: 0x100037554, symSize: 0x278 }
  - { offsetInCU: 0x181EC, offset: 0x6504A, size: 0x8, addend: 0x0, symName: __ZNKSt3__16vectorIiNS_9allocatorIiEEE17__annotate_shrinkB8ue170006Em, symObjAddr: 0x836C, symBinAddr: 0x1000377CC, symSize: 0xC8 }
  - { offsetInCU: 0x18221, offset: 0x6507F, size: 0x8, addend: 0x0, symName: __ZNSt3__128__exception_guard_exceptionsINS_6vectorIiNS_9allocatorIiEEE16__destroy_vectorEED2B8ue170006Ev, symObjAddr: 0x8434, symBinAddr: 0x100037894, symSize: 0xBC }
  - { offsetInCU: 0x1824B, offset: 0x650A9, size: 0x8, addend: 0x0, symName: __ZNSt3__16vectorIiNS_9allocatorIiEEE16__destroy_vectorclB8ue170006Ev, symObjAddr: 0x84F0, symBinAddr: 0x100037950, symSize: 0x228 }
  - { offsetInCU: 0x18271, offset: 0x650CF, size: 0x8, addend: 0x0, symName: __ZNSt3__16vectorIiNS_9allocatorIiEEE7__clearB8ue170006Ev, symObjAddr: 0x8718, symBinAddr: 0x100037B78, symSize: 0x64 }
  - { offsetInCU: 0x18297, offset: 0x650F5, size: 0x8, addend: 0x0, symName: __ZNKSt3__16vectorIiNS_9allocatorIiEEE17__annotate_deleteB8ue170006Ev, symObjAddr: 0x877C, symBinAddr: 0x100037BDC, symSize: 0xCC }
  - { offsetInCU: 0x182BD, offset: 0x6511B, size: 0x8, addend: 0x0, symName: __ZNSt3__116allocator_traitsINS_9allocatorIiEEE10deallocateB8ue170006ERS2_Pim, symObjAddr: 0x8848, symBinAddr: 0x100037CA8, symSize: 0x34 }
  - { offsetInCU: 0x182FF, offset: 0x6515D, size: 0x8, addend: 0x0, symName: __ZNSt3__16vectorIiNS_9allocatorIiEEE22__base_destruct_at_endB8ue170006EPi, symObjAddr: 0x887C, symBinAddr: 0x100037CDC, symSize: 0x114 }
  - { offsetInCU: 0x18343, offset: 0x651A1, size: 0x8, addend: 0x0, symName: __ZNSt3__116allocator_traitsINS_9allocatorIiEEE7destroyB8ue170006IivEEvRS2_PT_, symObjAddr: 0x8990, symBinAddr: 0x100037DF0, symSize: 0x2C }
  - { offsetInCU: 0x18380, offset: 0x651DE, size: 0x8, addend: 0x0, symName: __ZNSt3__19allocatorIiE7destroyB8ue170006EPi, symObjAddr: 0x89BC, symBinAddr: 0x100037E1C, symSize: 0x14 }
  - { offsetInCU: 0x183B4, offset: 0x65212, size: 0x8, addend: 0x0, symName: __ZNSt3__19allocatorIiE10deallocateB8ue170006EPim, symObjAddr: 0x89D0, symBinAddr: 0x100037E30, symSize: 0x4C }
  - { offsetInCU: 0x183F6, offset: 0x65254, size: 0x8, addend: 0x0, symName: __ZNSt3__16vectorIiNS_9allocatorIiEEEixB8ue170006Em, symObjAddr: 0x8B24, symBinAddr: 0x100037E7C, symSize: 0x6C }
  - { offsetInCU: 0x1842D, offset: 0x6528B, size: 0x8, addend: 0x0, symName: __ZNKSt3__111__wrap_iterIPKP4NodeE4baseB8ue170006Ev, symObjAddr: 0x8BD8, symBinAddr: 0x100037F30, symSize: 0x60 }
  - { offsetInCU: 0x18453, offset: 0x652B1, size: 0x8, addend: 0x0, symName: __ZNSt3__111__wrap_iterIPKP4NodeEC2B8ue170006IPS2_EERKNS0_IT_EEPNS_9enable_ifIXsr14is_convertibleIS8_S4_EE5valueEvE4typeE, symObjAddr: 0x8C38, symBinAddr: 0x100037F90, symSize: 0x84 }
  - { offsetInCU: 0x184A8, offset: 0x65306, size: 0x8, addend: 0x0, symName: __ZNKSt3__16vectorIP4NodeNS_9allocatorIS2_EEE11__make_iterB8ue170006EPKS2_, symObjAddr: 0xEAD8, symBinAddr: 0x100038014, symSize: 0x1FC }
  - { offsetInCU: 0x184DF, offset: 0x6533D, size: 0x8, addend: 0x0, symName: __ZNSt3__111__wrap_iterIPKP4NodeEC1B8ue170006ES4_, symObjAddr: 0xECD4, symBinAddr: 0x100038210, symSize: 0x34 }
  - { offsetInCU: 0x18517, offset: 0x65375, size: 0x8, addend: 0x0, symName: __ZNSt3__111__wrap_iterIPKP4NodeEC2B8ue170006ES4_, symObjAddr: 0xED08, symBinAddr: 0x100038244, symSize: 0x70 }
  - { offsetInCU: 0x18577, offset: 0x653D5, size: 0x8, addend: 0x0, symName: '__ZZN6ECC_FS15trim_candidatesERNSt3__16vectorIP4NodeNS0_9allocatorIS3_EEEERKS6_ENK3$_0clES3_', symObjAddr: 0x1077C, symBinAddr: 0x10003861C, symSize: 0x11C }
  - { offsetInCU: 0x185D2, offset: 0x65430, size: 0x8, addend: 0x0, symName: __ZNKSt3__114__move_trivialclB8ue170006IP4NodeS3_Li0EEENS_4pairIPT_PT0_EES6_S6_S8_, symObjAddr: 0x1192C, symBinAddr: 0x100039780, symSize: 0x230 }
  - { offsetInCU: 0x18643, offset: 0x654A1, size: 0x8, addend: 0x0, symName: __ZNSt3__14pairIPP4NodeS3_EC1B8ue170006IRS3_S3_LPv0EEEOT_OT0_, symObjAddr: 0x12424, symBinAddr: 0x10003A20C, symSize: 0x3C }
  - { offsetInCU: 0x186A1, offset: 0x654FF, size: 0x8, addend: 0x0, symName: __ZNSt3__14pairIPP4NodeS3_EC2B8ue170006IRS3_S3_LPv0EEEOT_OT0_, symObjAddr: 0x12460, symBinAddr: 0x10003A248, symSize: 0x138 }
  - { offsetInCU: 0x186FF, offset: 0x6555D, size: 0x8, addend: 0x0, symName: __ZNSt3__14pairIPP4NodeS3_EC1B8ue170006IS3_S3_LPv0EEEOT_OT0_, symObjAddr: 0x125BC, symBinAddr: 0x10003A380, symSize: 0x3C }
  - { offsetInCU: 0x1875D, offset: 0x655BB, size: 0x8, addend: 0x0, symName: __ZNSt3__14pairIPP4NodeS3_EC2B8ue170006IS3_S3_LPv0EEEOT_OT0_, symObjAddr: 0x125F8, symBinAddr: 0x10003A3BC, symSize: 0x138 }
  - { offsetInCU: 0x3B, offset: 0x656DA, size: 0x8, addend: 0x0, symName: _.str, symObjAddr: 0x20840, symBinAddr: 0x1000B4AA0, symSize: 0x0 }
  - { offsetInCU: 0x6B, offset: 0x6570A, size: 0x8, addend: 0x0, symName: _.str.1, symObjAddr: 0x20860, symBinAddr: 0x1000B4AC0, symSize: 0x0 }
  - { offsetInCU: 0x88, offset: 0x65727, size: 0x8, addend: 0x0, symName: _.str.2, symObjAddr: 0x208A0, symBinAddr: 0x1000B4B00, symSize: 0x0 }
  - { offsetInCU: 0xA5, offset: 0x65744, size: 0x8, addend: 0x0, symName: _.str.3, symObjAddr: 0x208E0, symBinAddr: 0x1000B4B40, symSize: 0x0 }
  - { offsetInCU: 0xC3, offset: 0x65762, size: 0x8, addend: 0x0, symName: _.str.4, symObjAddr: 0x20940, symBinAddr: 0x1000B4BA0, symSize: 0x0 }
  - { offsetInCU: 0x160E3, offset: 0x7B782, size: 0x8, addend: 0x0, symName: __ZN7ECC_QECC2ENSt3__112basic_stringIcNS0_11char_traitsIcEENS0_9allocatorIcEEEE, symObjAddr: 0x0, symBinAddr: 0x10003A58C, symSize: 0x4E4 }
  - { offsetInCU: 0x16120, offset: 0x7B7BF, size: 0x8, addend: 0x0, symName: __ZNSt3__16vectorIiNS_9allocatorIiEEEC1B8ue170006Ev, symObjAddr: 0x4E4, symBinAddr: 0x10003AA70, symSize: 0x2C }
  - { offsetInCU: 0x1614A, offset: 0x7B7E9, size: 0x8, addend: 0x0, symName: __ZNSt3__16vectorIiNS_9allocatorIiEEEaSB8ue170006EOS3_, symObjAddr: 0x5FC, symBinAddr: 0x10003AA9C, symSize: 0x34 }
  - { offsetInCU: 0x16181, offset: 0x7B820, size: 0x8, addend: 0x0, symName: __ZNSt3__16vectorIiNS_9allocatorIiEEED1B8ue170006Ev, symObjAddr: 0x630, symBinAddr: 0x10003AAD0, symSize: 0x2C }
  - { offsetInCU: 0x161AB, offset: 0x7B84A, size: 0x8, addend: 0x0, symName: __ZN7ECC_QECC1ENSt3__112basic_stringIcNS0_11char_traitsIcEENS0_9allocatorIcEEEE, symObjAddr: 0x6B4, symBinAddr: 0x10003AAFC, symSize: 0x34 }
  - { offsetInCU: 0x161E6, offset: 0x7B885, size: 0x8, addend: 0x0, symName: __ZN7ECC_QECC2ER5Graph, symObjAddr: 0x6E8, symBinAddr: 0x10003AB30, symSize: 0x420 }
  - { offsetInCU: 0x16222, offset: 0x7B8C1, size: 0x8, addend: 0x0, symName: __ZN7ECC_QECC1ER5Graph, symObjAddr: 0xB08, symBinAddr: 0x10003AF50, symSize: 0x34 }
  - { offsetInCU: 0x1625C, offset: 0x7B8FB, size: 0x8, addend: 0x0, symName: __ZN7ECC_QEC13add_to_cliqueEP6CliqueP4Node, symObjAddr: 0xB3C, symBinAddr: 0x10003AF84, symSize: 0x378 }
  - { offsetInCU: 0x162A6, offset: 0x7B945, size: 0x8, addend: 0x0, symName: __ZN7ECC_QEC11fill_cliqueEP6Clique, symObjAddr: 0x1000, symBinAddr: 0x10003B2FC, symSize: 0x570 }
  - { offsetInCU: 0x1634D, offset: 0x7B9EC, size: 0x8, addend: 0x0, symName: __ZN7ECC_QEC14find_clique_ofEP4Edge, symObjAddr: 0x1C18, symBinAddr: 0x10003B86C, symSize: 0x8E0 }
  - { offsetInCU: 0x163D3, offset: 0x7BA72, size: 0x8, addend: 0x0, symName: __ZN7ECC_QEC12extract_nodeERNSt3__16vectorIP4NodeNS0_9allocatorIS3_EEEEP6Clique, symObjAddr: 0x25D4, symBinAddr: 0x10003C14C, symSize: 0xE18 }
  - { offsetInCU: 0x1662F, offset: 0x7BCCE, size: 0x8, addend: 0x0, symName: __ZNSt3__16vectorIiNS_9allocatorIiEEED2B8ue170006Ev, symObjAddr: 0x7998, symBinAddr: 0x10003CF64, symSize: 0x1F4 }
  - { offsetInCU: 0x1665A, offset: 0x7BCF9, size: 0x8, addend: 0x0, symName: __ZNSt3__16vectorIiNS_9allocatorIiEEEC2B8ue170006Ev, symObjAddr: 0x7B8C, symBinAddr: 0x10003D158, symSize: 0x2E8 }
  - { offsetInCU: 0x16685, offset: 0x7BD24, size: 0x8, addend: 0x0, symName: __ZNSt3__16vectorIiNS_9allocatorIiEEE13__move_assignERS3_NS_17integral_constantIbLb1EEE, symObjAddr: 0x7E74, symBinAddr: 0x10003D440, symSize: 0x28C }
  - { offsetInCU: 0x166C7, offset: 0x7BD66, size: 0x8, addend: 0x0, symName: __ZNSt3__16vectorIiNS_9allocatorIiEEE13__vdeallocateEv, symObjAddr: 0x8100, symBinAddr: 0x10003D6CC, symSize: 0x194 }
  - { offsetInCU: 0x166EF, offset: 0x7BD8E, size: 0x8, addend: 0x0, symName: __ZNSt3__16vectorIiNS_9allocatorIiEEE19__move_assign_allocB8ue170006ERS3_, symObjAddr: 0x8294, symBinAddr: 0x10003D860, symSize: 0x2C }
  - { offsetInCU: 0x16724, offset: 0x7BDC3, size: 0x8, addend: 0x0, symName: __ZNSt3__16vectorIiNS_9allocatorIiEEE5clearB8ue170006Ev, symObjAddr: 0x82C0, symBinAddr: 0x10003D88C, symSize: 0x44 }
  - { offsetInCU: 0x16759, offset: 0x7BDF8, size: 0x8, addend: 0x0, symName: __ZNSt3__16vectorIiNS_9allocatorIiEEE19__move_assign_allocB8ue170006ERS3_NS_17integral_constantIbLb1EEE, symObjAddr: 0x8304, symBinAddr: 0x10003D8D0, symSize: 0x38 }
  - { offsetInCU: 0x3B, offset: 0x7BEDB, size: 0x8, addend: 0x0, symName: _.str, symObjAddr: 0xF080, symBinAddr: 0x1000B4BC0, symSize: 0x0 }
  - { offsetInCU: 0x6B, offset: 0x7BF0B, size: 0x8, addend: 0x0, symName: _.str.1, symObjAddr: 0xF0A0, symBinAddr: 0x1000B4BE0, symSize: 0x0 }
  - { offsetInCU: 0x88, offset: 0x7BF28, size: 0x8, addend: 0x0, symName: _.str.2, symObjAddr: 0xF0E0, symBinAddr: 0x1000B4C20, symSize: 0x0 }
  - { offsetInCU: 0xA5, offset: 0x7BF45, size: 0x8, addend: 0x0, symName: _.str.3, symObjAddr: 0xF120, symBinAddr: 0x1000B4C60, symSize: 0x0 }
  - { offsetInCU: 0xC3, offset: 0x7BF63, size: 0x8, addend: 0x0, symName: _.str.4, symObjAddr: 0xF180, symBinAddr: 0x1000B4CC0, symSize: 0x0 }
  - { offsetInCU: 0x14239, offset: 0x900D9, size: 0x8, addend: 0x0, symName: __ZN8ECC_QEC1C2ENSt3__112basic_stringIcNS0_11char_traitsIcEENS0_9allocatorIcEEEE, symObjAddr: 0x0, symBinAddr: 0x10003D9A0, symSize: 0x4E4 }
  - { offsetInCU: 0x14276, offset: 0x90116, size: 0x8, addend: 0x0, symName: __ZN8ECC_QEC1C1ENSt3__112basic_stringIcNS0_11char_traitsIcEENS0_9allocatorIcEEEE, symObjAddr: 0x6B4, symBinAddr: 0x10003DE84, symSize: 0x34 }
  - { offsetInCU: 0x142B1, offset: 0x90151, size: 0x8, addend: 0x0, symName: __ZN8ECC_QEC1C2ER5Graph, symObjAddr: 0x6E8, symBinAddr: 0x10003DEB8, symSize: 0x420 }
  - { offsetInCU: 0x142ED, offset: 0x9018D, size: 0x8, addend: 0x0, symName: __ZN8ECC_QEC1C1ER5Graph, symObjAddr: 0xB08, symBinAddr: 0x10003E2D8, symSize: 0x34 }
  - { offsetInCU: 0x14327, offset: 0x901C7, size: 0x8, addend: 0x0, symName: __ZN8ECC_QEC113add_to_cliqueEP6CliqueP4Node, symObjAddr: 0xB3C, symBinAddr: 0x10003E30C, symSize: 0x378 }
  - { offsetInCU: 0x14371, offset: 0x90211, size: 0x8, addend: 0x0, symName: __ZN8ECC_QEC111fill_cliqueEP6Clique, symObjAddr: 0x1000, symBinAddr: 0x10003E684, symSize: 0x2E0 }
  - { offsetInCU: 0x14416, offset: 0x902B6, size: 0x8, addend: 0x0, symName: __Z7coveredP4Edge, symObjAddr: 0x1494, symBinAddr: 0x10003E964, symSize: 0x8C }
  - { offsetInCU: 0x14443, offset: 0x902E3, size: 0x8, addend: 0x0, symName: __Z5coverP4Edge, symObjAddr: 0x1520, symBinAddr: 0x10003E9F0, symSize: 0x8C }
  - { offsetInCU: 0x1446B, offset: 0x9030B, size: 0x8, addend: 0x0, symName: __ZN8ECC_QEC114find_clique_ofEP4Edge, symObjAddr: 0x15AC, symBinAddr: 0x10003EA7C, symSize: 0x8E0 }
  - { offsetInCU: 0x3B, offset: 0x9040C, size: 0x8, addend: 0x0, symName: _.str, symObjAddr: 0x2F4A0, symBinAddr: 0x1000B4CE0, symSize: 0x0 }
  - { offsetInCU: 0x6B, offset: 0x9043C, size: 0x8, addend: 0x0, symName: _.str.1, symObjAddr: 0x2F4C0, symBinAddr: 0x1000B4D00, symSize: 0x0 }
  - { offsetInCU: 0x88, offset: 0x90459, size: 0x8, addend: 0x0, symName: _.str.2, symObjAddr: 0x2F500, symBinAddr: 0x1000B4D40, symSize: 0x0 }
  - { offsetInCU: 0xA5, offset: 0x90476, size: 0x8, addend: 0x0, symName: _.str.3, symObjAddr: 0x2F540, symBinAddr: 0x1000B4D80, symSize: 0x0 }
  - { offsetInCU: 0xC2, offset: 0x90493, size: 0x8, addend: 0x0, symName: _.str.4, symObjAddr: 0x2F560, symBinAddr: 0x1000B4DA0, symSize: 0x0 }
  - { offsetInCU: 0xDF, offset: 0x904B0, size: 0x8, addend: 0x0, symName: _.str.5, symObjAddr: 0x2F580, symBinAddr: 0x1000B4DC0, symSize: 0x0 }
  - { offsetInCU: 0xFC, offset: 0x904CD, size: 0x8, addend: 0x0, symName: _.str.6, symObjAddr: 0x2F5A0, symBinAddr: 0x1000B4DE0, symSize: 0x0 }
  - { offsetInCU: 0x119, offset: 0x904EA, size: 0x8, addend: 0x0, symName: _.str.7, symObjAddr: 0x2F5C0, symBinAddr: 0x1000B4E00, symSize: 0x0 }
  - { offsetInCU: 0x12A, offset: 0x904FB, size: 0x8, addend: 0x0, symName: _.str.8, symObjAddr: 0x2F5E0, symBinAddr: 0x1000B4E20, symSize: 0x0 }
  - { offsetInCU: 0x147, offset: 0x90518, size: 0x8, addend: 0x0, symName: _.str.9, symObjAddr: 0x2F600, symBinAddr: 0x1000B4E40, symSize: 0x0 }
  - { offsetInCU: 0x164, offset: 0x90535, size: 0x8, addend: 0x0, symName: _.str.10, symObjAddr: 0x2F620, symBinAddr: 0x1000B4E60, symSize: 0x0 }
  - { offsetInCU: 0x182, offset: 0x90553, size: 0x8, addend: 0x0, symName: _.str.11, symObjAddr: 0x2F680, symBinAddr: 0x1000B4EC0, symSize: 0x0 }
  - { offsetInCU: 0x1238F, offset: 0xA2760, size: 0x8, addend: 0x0, symName: __ZNSt3__113__fill_n_trueB8ue170006INS_6vectorIbNS_9allocatorIbEEEEEEvNS_14__bit_iteratorIT_Lb0EXLi0EEEENS6_9size_typeE, symObjAddr: 0xC454, symBinAddr: 0x100047268, symSize: 0x804 }
  - { offsetInCU: 0x1245A, offset: 0xA282B, size: 0x8, addend: 0x0, symName: __ZNSt3__114__fill_n_falseB8ue170006INS_6vectorIbNS_9allocatorIbEEEEEEvNS_14__bit_iteratorIT_Lb0EXLi0EEEENS6_9size_typeE, symObjAddr: 0xCC8C, symBinAddr: 0x100047AA0, symSize: 0x82C }
  - { offsetInCU: 0x14788, offset: 0xA4B59, size: 0x8, addend: 0x0, symName: __ZNSt3__1neB8ue170006ERKNS_19__hash_map_iteratorINS_15__hash_iteratorIPNS_11__hash_nodeINS_17__hash_value_typeIP4NodeP4EdgeEEPvEEEEEESF_, symObjAddr: 0x3B38, symBinAddr: 0x100042640, symSize: 0x30 }
  - { offsetInCU: 0x147C5, offset: 0xA4B96, size: 0x8, addend: 0x0, symName: __ZNSt3__13getB8ue170006ILm0EKP4NodeP4EdgeEERKNS_13tuple_elementIXT_ENS_4pairIT0_T1_EEE4typeERKSA_, symObjAddr: 0x3B90, symBinAddr: 0x100042698, symSize: 0x24 }
  - { offsetInCU: 0x1480F, offset: 0xA4BE0, size: 0x8, addend: 0x0, symName: __ZNSt3__13getB8ue170006ILm1EKP4NodeP4EdgeEERKNS_13tuple_elementIXT_ENS_4pairIT0_T1_EEE4typeERKSA_, symObjAddr: 0x3BB4, symBinAddr: 0x1000426BC, symSize: 0x24 }
  - { offsetInCU: 0x14859, offset: 0xA4C2A, size: 0x8, addend: 0x0, symName: '__ZNSt3__19remove_ifB8ue170006INS_11__wrap_iterIPP4NodeEEZN7ECC_RED15trim_candidatesERNS_6vectorIS3_NS_9allocatorIS3_EEEERKSA_E3$_0EET_SF_SF_T0_', symObjAddr: 0x67B4, symBinAddr: 0x100043D50, symSize: 0x5C0 }
  - { offsetInCU: 0x152D0, offset: 0xA56A1, size: 0x8, addend: 0x0, symName: __ZNSt3__16fill_nB8ue170006INS_6vectorIbNS_9allocatorIbEEEEEEvNS_14__bit_iteratorIT_Lb0EXLi0EEEENS6_9size_typeEb, symObjAddr: 0xC16C, symBinAddr: 0x100046F80, symSize: 0x24C }
  - { offsetInCU: 0x15325, offset: 0xA56F6, size: 0x8, addend: 0x0, symName: __ZNSt3__16fill_nB8ue170006IPmmmEET_S2_T0_RKT1_, symObjAddr: 0xD4E4, symBinAddr: 0x1000482CC, symSize: 0x44 }
  - { offsetInCU: 0x15388, offset: 0xA5759, size: 0x8, addend: 0x0, symName: __ZNSt3__18__fill_nB8ue170006IPmmmEET_S2_T0_RKT1_, symObjAddr: 0xD7E0, symBinAddr: 0x100048310, symSize: 0xF0 }
  - { offsetInCU: 0x153EB, offset: 0xA57BC, size: 0x8, addend: 0x0, symName: __ZNSt3__121__convert_to_integralB8ue170006Em, symObjAddr: 0xD8D0, symBinAddr: 0x100048400, symSize: 0x14 }
  - { offsetInCU: 0x15417, offset: 0xA57E8, size: 0x8, addend: 0x0, symName: __ZNSt3__16fill_nB8ue170006IPmmiEET_S2_T0_RKT1_, symObjAddr: 0xDA6C, symBinAddr: 0x10004859C, symSize: 0x44 }
  - { offsetInCU: 0x1547A, offset: 0xA584B, size: 0x8, addend: 0x0, symName: __ZNSt3__18__fill_nB8ue170006IPmmiEET_S2_T0_RKT1_, symObjAddr: 0xDAB0, symBinAddr: 0x1000485E0, symSize: 0x118 }
  - { offsetInCU: 0x154DD, offset: 0xA58AE, size: 0x8, addend: 0x0, symName: __ZNSt3__1neB8ue170006ERKNS_15__hash_iteratorIPNS_11__hash_nodeINS_17__hash_value_typeIP4NodeP4EdgeEEPvEEEESD_, symObjAddr: 0x110B0, symBinAddr: 0x10004996C, symSize: 0x34 }
  - { offsetInCU: 0x1551A, offset: 0xA58EB, size: 0x8, addend: 0x0, symName: __ZNSt3__1eqB8ue170006ERKNS_15__hash_iteratorIPNS_11__hash_nodeINS_17__hash_value_typeIP4NodeP4EdgeEEPvEEEESD_, symObjAddr: 0x110E4, symBinAddr: 0x1000499A0, symSize: 0xB8 }
  - { offsetInCU: 0x155BD, offset: 0xA598E, size: 0x8, addend: 0x0, symName: __ZNSt3__17launderB8ue170006INS_4pairIKP4NodeP4EdgeEEEEPT_S9_, symObjAddr: 0x11354, symBinAddr: 0x100049C10, symSize: 0x24 }
  - { offsetInCU: 0x155F4, offset: 0xA59C5, size: 0x8, addend: 0x0, symName: __ZNSt3__19__launderB8ue170006INS_4pairIKP4NodeP4EdgeEEEEPT_S9_, symObjAddr: 0x11378, symBinAddr: 0x100049C34, symSize: 0x14 }
  - { offsetInCU: 0x1562B, offset: 0xA59FC, size: 0x8, addend: 0x0, symName: '__ZNSt3__17find_ifB8ue170006INS_11__wrap_iterIPP4NodeEERZN7ECC_RED15trim_candidatesERNS_6vectorIS3_NS_9allocatorIS3_EEEERKSA_E3$_0EET_SG_SG_T0_', symObjAddr: 0x1ECB0, symBinAddr: 0x100049C48, symSize: 0x368 }
  - { offsetInCU: 0x1568F, offset: 0xA5A60, size: 0x8, addend: 0x0, symName: __ZNSt3__122__make_exception_guardB8ue170006INS_6vectorIP4EdgeNS_9allocatorIS3_EEE16__destroy_vectorEEENS_28__exception_guard_exceptionsIT_EES9_, symObjAddr: 0x29EF0, symBinAddr: 0x10004A858, symSize: 0x278 }
  - { offsetInCU: 0x156C8, offset: 0xA5A99, size: 0x8, addend: 0x0, symName: __ZNSt3__130__uninitialized_allocator_copyB8ue170006INS_9allocatorIP4EdgeEEPS3_S5_S5_EET2_RT_T0_T1_S6_, symObjAddr: 0x2B8E4, symBinAddr: 0x10004B7C4, symSize: 0x2DC }
  - { offsetInCU: 0x1576E, offset: 0xA5B3F, size: 0x8, addend: 0x0, symName: __ZNSt3__114__unwrap_rangeB8ue170006IPP4EdgeS3_EENS_4pairIT0_S5_EET_S7_, symObjAddr: 0x2BE94, symBinAddr: 0x10004BAA0, symSize: 0x350 }
  - { offsetInCU: 0x157BC, offset: 0xA5B8D, size: 0x8, addend: 0x0, symName: __ZNSt3__135__uninitialized_allocator_copy_implB8ue170006INS_9allocatorIP4EdgeEES3_S3_S3_LPv0EEEPT2_RT_PT0_SB_S7_, symObjAddr: 0x2C1E4, symBinAddr: 0x10004BDF0, symSize: 0x38 }
  - { offsetInCU: 0x1583D, offset: 0xA5C0E, size: 0x8, addend: 0x0, symName: __ZNSt3__113__unwrap_iterB8ue170006IPP4EdgeNS_18__unwrap_iter_implIS3_Lb1EEELi0EEEDTclsrT0_8__unwrapclsr3stdE7declvalIT_EEEES7_, symObjAddr: 0x2C21C, symBinAddr: 0x10004BE28, symSize: 0x24 }
  - { offsetInCU: 0x15881, offset: 0xA5C52, size: 0x8, addend: 0x0, symName: __ZNSt3__113__rewrap_iterB8ue170006IPP4EdgeS3_NS_18__unwrap_iter_implIS3_Lb1EEEEET_S6_T0_, symObjAddr: 0x2C240, symBinAddr: 0x10004BE4C, symSize: 0x48 }
  - { offsetInCU: 0x158D6, offset: 0xA5CA7, size: 0x8, addend: 0x0, symName: __ZNSt3__19make_pairB8ue170006IPP4EdgeS3_EENS_4pairINS_18__unwrap_ref_decayIT_E4typeENS5_IT0_E4typeEEEOS6_OS9_, symObjAddr: 0x2C288, symBinAddr: 0x10004BE94, symSize: 0x20C }
  - { offsetInCU: 0x15A2A, offset: 0xA5DFB, size: 0x8, addend: 0x0, symName: __ZNSt3__14copyB8ue170006IPP4EdgeS3_EET0_T_S5_S4_, symObjAddr: 0x2C608, symBinAddr: 0x10004C214, symSize: 0x26C }
  - { offsetInCU: 0x15A87, offset: 0xA5E58, size: 0x8, addend: 0x0, symName: __ZNSt3__16__copyB8ue170006INS_17_ClassicAlgPolicyEPP4EdgeS4_S4_EENS_4pairIT0_T2_EES6_T1_S7_, symObjAddr: 0x2C874, symBinAddr: 0x10004C480, symSize: 0x22C }
  - { offsetInCU: 0x15AF6, offset: 0xA5EC7, size: 0x8, addend: 0x0, symName: __ZNSt3__123__dispatch_copy_or_moveB8ue170006INS_17_ClassicAlgPolicyENS_11__copy_loopIS1_EENS_14__copy_trivialEPP4EdgeS7_S7_EENS_4pairIT2_T4_EES9_T3_SA_, symObjAddr: 0x2CAA0, symBinAddr: 0x10004C6AC, symSize: 0x22C }
  - { offsetInCU: 0x15B77, offset: 0xA5F48, size: 0x8, addend: 0x0, symName: __ZNSt3__121__unwrap_and_dispatchB8ue170006INS_10__overloadINS_11__copy_loopINS_17_ClassicAlgPolicyEEENS_14__copy_trivialEEEPP4EdgeS9_S9_Li0EEENS_4pairIT0_T2_EESB_T1_SC_, symObjAddr: 0x2CCCC, symBinAddr: 0x10004C8D8, symSize: 0x5A4 }
  - { offsetInCU: 0x15C56, offset: 0xA6027, size: 0x8, addend: 0x0, symName: __ZNSt3__114__rewrap_rangeB8ue170006IPP4EdgeS3_EET_S4_T0_, symObjAddr: 0x2D4A0, symBinAddr: 0x10004D0AC, symSize: 0x2C }
  - { offsetInCU: 0x15CA2, offset: 0xA6073, size: 0x8, addend: 0x0, symName: __ZNSt3__119__copy_trivial_implB8ue170006IP4EdgeS2_EENS_4pairIPT_PT0_EES5_S5_S7_, symObjAddr: 0x2D4CC, symBinAddr: 0x10004D0D8, symSize: 0x3B4 }
  - { offsetInCU: 0x15D11, offset: 0xA60E2, size: 0x8, addend: 0x0, symName: __ZNSt3__119__constexpr_memmoveB8ue170006IP4EdgeS2_Li0EEEPT_S4_PT0_NS_15__element_countE, symObjAddr: 0x2D880, symBinAddr: 0x10004D48C, symSize: 0x64 }
  - { offsetInCU: 0x15D7F, offset: 0xA6150, size: 0x8, addend: 0x0, symName: __ZNSt3__19make_pairB8ue170006IRPP4EdgeS3_EENS_4pairINS_18__unwrap_ref_decayIT_E4typeENS6_IT0_E4typeEEEOS7_OSA_, symObjAddr: 0x2D8E4, symBinAddr: 0x10004D4F0, symSize: 0x20C }
  - { offsetInCU: 0x19789, offset: 0xA9B5A, size: 0x8, addend: 0x0, symName: __ZN7ECC_REDC2ENSt3__112basic_stringIcNS0_11char_traitsIcEENS0_9allocatorIcEEEE, symObjAddr: 0x0, symBinAddr: 0x10003F3F4, symSize: 0x6E4 }
  - { offsetInCU: 0x197C6, offset: 0xA9B97, size: 0x8, addend: 0x0, symName: __ZNSt3__16vectorIbNS_9allocatorIbEEEC1B8ue170006Ev, symObjAddr: 0x6E4, symBinAddr: 0x10003FAD8, symSize: 0x2C }
  - { offsetInCU: 0x197F2, offset: 0xA9BC3, size: 0x8, addend: 0x0, symName: __ZNSt3__16vectorIbNS_9allocatorIbEEEC1EmRKb, symObjAddr: 0x7EC, symBinAddr: 0x10003FB04, symSize: 0x3C }
  - { offsetInCU: 0x1983C, offset: 0xA9C0D, size: 0x8, addend: 0x0, symName: __ZNSt3__16vectorIbNS_9allocatorIbEEEaSB8ue170006EOS3_, symObjAddr: 0x828, symBinAddr: 0x10003FB40, symSize: 0x34 }
  - { offsetInCU: 0x19873, offset: 0xA9C44, size: 0x8, addend: 0x0, symName: __ZNSt3__16vectorIbNS_9allocatorIbEEED1B8ue170006Ev, symObjAddr: 0x85C, symBinAddr: 0x10003FB74, symSize: 0x2C }
  - { offsetInCU: 0x1989D, offset: 0xA9C6E, size: 0x8, addend: 0x0, symName: __ZN8ECC_QEC1D2Ev, symObjAddr: 0x938, symBinAddr: 0x10003FBA0, symSize: 0x88 }
  - { offsetInCU: 0x198C9, offset: 0xA9C9A, size: 0x8, addend: 0x0, symName: __ZN7ECC_REDC1ENSt3__112basic_stringIcNS0_11char_traitsIcEENS0_9allocatorIcEEEE, symObjAddr: 0x9C0, symBinAddr: 0x10003FC28, symSize: 0x34 }
  - { offsetInCU: 0x19904, offset: 0xA9CD5, size: 0x8, addend: 0x0, symName: __ZN7ECC_REDC2ER5Graph, symObjAddr: 0x9F4, symBinAddr: 0x10003FC5C, symSize: 0x60C }
  - { offsetInCU: 0x19940, offset: 0xA9D11, size: 0x8, addend: 0x0, symName: __ZN7ECC_REDC1ER5Graph, symObjAddr: 0x1000, symBinAddr: 0x100040268, symSize: 0x34 }
  - { offsetInCU: 0x1997A, offset: 0xA9D4B, size: 0x8, addend: 0x0, symName: __ZN7ECC_RED3runEv, symObjAddr: 0x1034, symBinAddr: 0x10004029C, symSize: 0x324 }
  - { offsetInCU: 0x199CC, offset: 0xA9D9D, size: 0x8, addend: 0x0, symName: __ZN7ECC_RED14apply_rule_twoEv, symObjAddr: 0x1358, symBinAddr: 0x1000405C0, symSize: 0xEFC }
  - { offsetInCU: 0x19B49, offset: 0xA9F1A, size: 0x8, addend: 0x0, symName: __ZN7ECC_RED14apply_rule_oneEv, symObjAddr: 0x2254, symBinAddr: 0x1000414BC, symSize: 0x90C }
  - { offsetInCU: 0x19C7C, offset: 0xAA04D, size: 0x8, addend: 0x0, symName: __ZNSt3__16vectorIbNS_9allocatorIbEEEixB8ue170006Em, symObjAddr: 0x32C0, symBinAddr: 0x100041DC8, symSize: 0x224 }
  - { offsetInCU: 0x19CB3, offset: 0xAA084, size: 0x8, addend: 0x0, symName: __ZNKSt3__115__bit_referenceINS_6vectorIbNS_9allocatorIbEEEELb1EEcvbB8ue170006Ev, symObjAddr: 0x34E4, symBinAddr: 0x100041FEC, symSize: 0xEC }
  - { offsetInCU: 0x19CD9, offset: 0xAA0AA, size: 0x8, addend: 0x0, symName: __ZNSt3__113unordered_mapIP4NodeP4EdgeNS_4hashIS2_EENS_8equal_toIS2_EENS_9allocatorINS_4pairIKS2_S4_EEEEE5beginB8ue170006Ev, symObjAddr: 0x35D0, symBinAddr: 0x1000420D8, symSize: 0x2B4 }
  - { offsetInCU: 0x19D00, offset: 0xAA0D1, size: 0x8, addend: 0x0, symName: __ZNSt3__113unordered_mapIP4NodeP4EdgeNS_4hashIS2_EENS_8equal_toIS2_EENS_9allocatorINS_4pairIKS2_S4_EEEEE3endB8ue170006Ev, symObjAddr: 0x3884, symBinAddr: 0x10004238C, symSize: 0x2B4 }
  - { offsetInCU: 0x19D27, offset: 0xAA0F8, size: 0x8, addend: 0x0, symName: __ZNKSt3__119__hash_map_iteratorINS_15__hash_iteratorIPNS_11__hash_nodeINS_17__hash_value_typeIP4NodeP4EdgeEEPvEEEEEdeB8ue170006Ev, symObjAddr: 0x3B68, symBinAddr: 0x100042670, symSize: 0x28 }
  - { offsetInCU: 0x19D4D, offset: 0xAA11E, size: 0x8, addend: 0x0, symName: __ZN7ECC_RED9is_cliqueERNSt3__16vectorIP4NodeNS0_9allocatorIS3_EEEE, symObjAddr: 0x3CB8, symBinAddr: 0x1000426E0, symSize: 0x288 }
  - { offsetInCU: 0x19DF8, offset: 0xAA1C9, size: 0x8, addend: 0x0, symName: __ZNSt3__119__hash_map_iteratorINS_15__hash_iteratorIPNS_11__hash_nodeINS_17__hash_value_typeIP4NodeP4EdgeEEPvEEEEEppB8ue170006Ev, symObjAddr: 0x461C, symBinAddr: 0x100042968, symSize: 0x2C }
  - { offsetInCU: 0x19E1E, offset: 0xAA1EF, size: 0x8, addend: 0x0, symName: __ZN7ECC_RED18node_set_intersectERKNSt3__16vectorIP4NodeNS0_9allocatorIS3_EEEES8_, symObjAddr: 0x46B0, symBinAddr: 0x100042994, symSize: 0x92C }
  - { offsetInCU: 0x19F28, offset: 0xAA2F9, size: 0x8, addend: 0x0, symName: __ZN7ECC_RED10is_removedEP4Node, symObjAddr: 0x5594, symBinAddr: 0x1000432C0, symSize: 0x29C }
  - { offsetInCU: 0x19F60, offset: 0xAA331, size: 0x8, addend: 0x0, symName: __ZN7ECC_RED15trim_candidatesERNSt3__16vectorIP4NodeNS0_9allocatorIS3_EEEERKS6_, symObjAddr: 0x5B40, symBinAddr: 0x10004355C, symSize: 0x7F4 }
  - { offsetInCU: 0x1A02D, offset: 0xAA3FE, size: 0x8, addend: 0x0, symName: __ZN7ECC_RED14find_clique_ofEP4Edge, symObjAddr: 0x6DB0, symBinAddr: 0x100044310, symSize: 0x960 }
  - { offsetInCU: 0x1A0B3, offset: 0xAA484, size: 0x8, addend: 0x0, symName: __ZNSt16invalid_argumentC1B8ue170006EPKc, symObjAddr: 0x7710, symBinAddr: 0x100044C70, symSize: 0x34 }
  - { offsetInCU: 0x1A0EB, offset: 0xAA4BC, size: 0x8, addend: 0x0, symName: __ZN7ECC_RED12extract_nodeERNSt3__16vectorIP4NodeNS0_9allocatorIS3_EEEEP6Clique, symObjAddr: 0x7744, symBinAddr: 0x100044CA4, symSize: 0xAB0 }
  - { offsetInCU: 0x1A32E, offset: 0xAA6FF, size: 0x8, addend: 0x0, symName: __ZNSt3__16vectorIP4EdgeNS_9allocatorIS2_EEEC1ERKS5_, symObjAddr: 0x8C44, symBinAddr: 0x100045754, symSize: 0x34 }
  - { offsetInCU: 0x1A369, offset: 0xAA73A, size: 0x8, addend: 0x0, symName: __ZNSt3__115__bit_referenceINS_6vectorIbNS_9allocatorIbEEEELb1EEaSB8ue170006Eb, symObjAddr: 0x9248, symBinAddr: 0x100045788, symSize: 0x1C8 }
  - { offsetInCU: 0x1A39D, offset: 0xAA76E, size: 0x8, addend: 0x0, symName: __ZNSt3__110__get_pairILm0EE3getB8ue170006IKP4NodeP4EdgeEERKT_RKNS_4pairIS8_T0_EE, symObjAddr: 0xA1A0, symBinAddr: 0x100045950, symSize: 0x14 }
  - { offsetInCU: 0x1A3D3, offset: 0xAA7A4, size: 0x8, addend: 0x0, symName: __ZNSt3__110__get_pairILm1EE3getB8ue170006IKP4NodeP4EdgeEERKT0_RKNS_4pairIT_S8_EE, symObjAddr: 0xA1B4, symBinAddr: 0x100045964, symSize: 0x18 }
  - { offsetInCU: 0x1A409, offset: 0xAA7DA, size: 0x8, addend: 0x0, symName: __ZNSt16invalid_argumentC2B8ue170006EPKc, symObjAddr: 0xA364, symBinAddr: 0x10004597C, symSize: 0x8C }
  - { offsetInCU: 0x1A441, offset: 0xAA812, size: 0x8, addend: 0x0, symName: __ZNSt3__16vectorIbNS_9allocatorIbEEEC2B8ue170006Ev, symObjAddr: 0xA4C4, symBinAddr: 0x100045A08, symSize: 0x2EC }
  - { offsetInCU: 0x1A478, offset: 0xAA849, size: 0x8, addend: 0x0, symName: __ZNSt3__117__compressed_pairImNS_9allocatorImEEEC1B8ue170006IiNS_18__default_init_tagEEEOT_OT0_, symObjAddr: 0xA7B0, symBinAddr: 0x100045CF4, symSize: 0x3C }
  - { offsetInCU: 0x1A4D0, offset: 0xAA8A1, size: 0x8, addend: 0x0, symName: __ZNSt3__117__compressed_pairImNS_9allocatorImEEEC2B8ue170006IiNS_18__default_init_tagEEEOT_OT0_, symObjAddr: 0xA7EC, symBinAddr: 0x100045D30, symSize: 0x40 }
  - { offsetInCU: 0x1A528, offset: 0xAA8F9, size: 0x8, addend: 0x0, symName: __ZNSt3__16vectorIbNS_9allocatorIbEEED2B8ue170006Ev, symObjAddr: 0xA970, symBinAddr: 0x100045D70, symSize: 0x1F8 }
  - { offsetInCU: 0x1A553, offset: 0xAA924, size: 0x8, addend: 0x0, symName: __ZNSt3__16vectorIbNS_9allocatorIbEEE16__destroy_vectorC1B8ue170006ERS3_, symObjAddr: 0xAB68, symBinAddr: 0x100045F68, symSize: 0x34 }
  - { offsetInCU: 0x1A58C, offset: 0xAA95D, size: 0x8, addend: 0x0, symName: __ZNSt3__16vectorIbNS_9allocatorIbEEE16__destroy_vectorclB8ue170006Ev, symObjAddr: 0xAB9C, symBinAddr: 0x100045F9C, symSize: 0x1E4 }
  - { offsetInCU: 0x1A5B2, offset: 0xAA983, size: 0x8, addend: 0x0, symName: __ZNSt3__16vectorIbNS_9allocatorIbEEE16__destroy_vectorC2B8ue170006ERS3_, symObjAddr: 0xAD80, symBinAddr: 0x100046180, symSize: 0x70 }
  - { offsetInCU: 0x1A5EB, offset: 0xAA9BC, size: 0x8, addend: 0x0, symName: __ZNSt3__16vectorIbNS_9allocatorIbEEE7__allocB8ue170006Ev, symObjAddr: 0xAE24, symBinAddr: 0x1000461F0, symSize: 0x28 }
  - { offsetInCU: 0x1A611, offset: 0xAA9E2, size: 0x8, addend: 0x0, symName: __ZNSt3__16vectorIbNS_9allocatorIbEEE5__capB8ue170006Ev, symObjAddr: 0xAE4C, symBinAddr: 0x100046218, symSize: 0x28 }
  - { offsetInCU: 0x1A637, offset: 0xAAA08, size: 0x8, addend: 0x0, symName: __ZNSt3__117__compressed_pairImNS_9allocatorImEEE6secondB8ue170006Ev, symObjAddr: 0xAEC0, symBinAddr: 0x100046240, symSize: 0x24 }
  - { offsetInCU: 0x1A65D, offset: 0xAAA2E, size: 0x8, addend: 0x0, symName: __ZNSt3__117__compressed_pairImNS_9allocatorImEEE5firstB8ue170006Ev, symObjAddr: 0xAEF8, symBinAddr: 0x100046264, symSize: 0x24 }
  - { offsetInCU: 0x1A683, offset: 0xAAA54, size: 0x8, addend: 0x0, symName: __ZNSt3__16vectorIbNS_9allocatorIbEEEC2EmRKb, symObjAddr: 0xAF30, symBinAddr: 0x100046288, symSize: 0x38C }
  - { offsetInCU: 0x1A6D0, offset: 0xAAAA1, size: 0x8, addend: 0x0, symName: __ZNSt3__16vectorIbNS_9allocatorIbEEE11__vallocateB8ue170006Em, symObjAddr: 0xB2BC, symBinAddr: 0x100046614, symSize: 0x3A0 }
  - { offsetInCU: 0x1A71A, offset: 0xAAAEB, size: 0x8, addend: 0x0, symName: __ZNSt3__16vectorIbNS_9allocatorIbEEE18__construct_at_endB8ue170006Emb, symObjAddr: 0xB65C, symBinAddr: 0x1000469B4, symSize: 0x47C }
  - { offsetInCU: 0x1A773, offset: 0xAAB44, size: 0x8, addend: 0x0, symName: __ZNKSt3__16vectorIbNS_9allocatorIbEEE8max_sizeEv, symObjAddr: 0xBAD8, symBinAddr: 0x100046E30, symSize: 0x8C }
  - { offsetInCU: 0x1A7B9, offset: 0xAAB8A, size: 0x8, addend: 0x0, symName: __ZNKSt3__16vectorIbNS_9allocatorIbEEE20__throw_length_errorB8ue170006Ev, symObjAddr: 0xBB64, symBinAddr: 0x100046EBC, symSize: 0x20 }
  - { offsetInCU: 0x1A7DF, offset: 0xAABB0, size: 0x8, addend: 0x0, symName: __ZNSt3__16vectorIbNS_9allocatorIbEEE26__external_cap_to_internalB8ue170006Em, symObjAddr: 0xBE10, symBinAddr: 0x100046EDC, symSize: 0x24 }
  - { offsetInCU: 0x1A803, offset: 0xAABD4, size: 0x8, addend: 0x0, symName: __ZNKSt3__16vectorIbNS_9allocatorIbEEE7__allocB8ue170006Ev, symObjAddr: 0xBE58, symBinAddr: 0x100046F00, symSize: 0x28 }
  - { offsetInCU: 0x1A829, offset: 0xAABFA, size: 0x8, addend: 0x0, symName: __ZNSt3__114numeric_limitsImE3maxB8ue170006Ev, symObjAddr: 0xBE80, symBinAddr: 0x100046F28, symSize: 0x14 }
  - { offsetInCU: 0x1A83D, offset: 0xAAC0E, size: 0x8, addend: 0x0, symName: __ZNSt3__16vectorIbNS_9allocatorIbEEE26__internal_cap_to_externalB8ue170006Em, symObjAddr: 0xBE94, symBinAddr: 0x100046F3C, symSize: 0x18 }
  - { offsetInCU: 0x1A861, offset: 0xAAC32, size: 0x8, addend: 0x0, symName: __ZNKSt3__117__compressed_pairImNS_9allocatorImEEE6secondB8ue170006Ev, symObjAddr: 0xBEC0, symBinAddr: 0x100046F54, symSize: 0x24 }
  - { offsetInCU: 0x1A887, offset: 0xAAC58, size: 0x8, addend: 0x0, symName: __ZNSt3__123__libcpp_numeric_limitsImLb1EE3maxB8ue170006Ev, symObjAddr: 0xBEF8, symBinAddr: 0x100046F78, symSize: 0x8 }
  - { offsetInCU: 0x1A89B, offset: 0xAAC6C, size: 0x8, addend: 0x0, symName: __ZNSt3__16vectorIbNS_9allocatorIbEEE11__make_iterB8ue170006Em, symObjAddr: 0xC3B8, symBinAddr: 0x1000471CC, symSize: 0x9C }
  - { offsetInCU: 0x1A8D0, offset: 0xAACA1, size: 0x8, addend: 0x0, symName: __ZNSt3__114__bit_iteratorINS_6vectorIbNS_9allocatorIbEEEELb0ELm0EEC1B8ue170006ERKS5_, symObjAddr: 0xCC58, symBinAddr: 0x100047A6C, symSize: 0x34 }
  - { offsetInCU: 0x1A909, offset: 0xAACDA, size: 0x8, addend: 0x0, symName: __ZNSt3__114__bit_iteratorINS_6vectorIbNS_9allocatorIbEEEELb0ELm0EEC2B8ue170006ERKS5_, symObjAddr: 0xD8E4, symBinAddr: 0x100048414, symSize: 0x188 }
  - { offsetInCU: 0x1A942, offset: 0xAAD13, size: 0x8, addend: 0x0, symName: __ZNSt3__114__bit_iteratorINS_6vectorIbNS_9allocatorIbEEEELb0ELm0EEC1B8ue170006EPmj, symObjAddr: 0xDBC8, symBinAddr: 0x1000486F8, symSize: 0x3C }
  - { offsetInCU: 0x1A98A, offset: 0xAAD5B, size: 0x8, addend: 0x0, symName: __ZNSt3__114__bit_iteratorINS_6vectorIbNS_9allocatorIbEEEELb0ELm0EEC2B8ue170006EPmj, symObjAddr: 0xDC04, symBinAddr: 0x100048734, symSize: 0xE4 }
  - { offsetInCU: 0x1A9D2, offset: 0xAADA3, size: 0x8, addend: 0x0, symName: __ZNSt3__16vectorIbNS_9allocatorIbEEE13__move_assignERS3_NS_17integral_constantIbLb1EEE, symObjAddr: 0xDCE8, symBinAddr: 0x100048818, symSize: 0x28C }
  - { offsetInCU: 0x1AA14, offset: 0xAADE5, size: 0x8, addend: 0x0, symName: __ZNSt3__16vectorIbNS_9allocatorIbEEE13__vdeallocateEv, symObjAddr: 0xDF74, symBinAddr: 0x100048AA4, symSize: 0x1B8 }
  - { offsetInCU: 0x1AA3C, offset: 0xAAE0D, size: 0x8, addend: 0x0, symName: __ZNSt3__16vectorIbNS_9allocatorIbEEE19__move_assign_allocB8ue170006ERS3_, symObjAddr: 0xE12C, symBinAddr: 0x100048C5C, symSize: 0x2C }
  - { offsetInCU: 0x1AA71, offset: 0xAAE42, size: 0x8, addend: 0x0, symName: __ZNSt3__16vectorIbNS_9allocatorIbEEE19__move_assign_allocB8ue170006ERS3_NS_17integral_constantIbLb1EEE, symObjAddr: 0xE158, symBinAddr: 0x100048C88, symSize: 0x38 }
  - { offsetInCU: 0x1AAB1, offset: 0xAAE82, size: 0x8, addend: 0x0, symName: __ZNSt3__16vectorIbNS_9allocatorIbEEE10__make_refB8ue170006Em, symObjAddr: 0x10404, symBinAddr: 0x100048CC0, symSize: 0x268 }
  - { offsetInCU: 0x1AAE8, offset: 0xAAEB9, size: 0x8, addend: 0x0, symName: __ZNSt3__115__bit_referenceINS_6vectorIbNS_9allocatorIbEEEELb1EEC1B8ue170006EPmm, symObjAddr: 0x1066C, symBinAddr: 0x100048F28, symSize: 0x3C }
  - { offsetInCU: 0x1AB2E, offset: 0xAAEFF, size: 0x8, addend: 0x0, symName: __ZNSt3__115__bit_referenceINS_6vectorIbNS_9allocatorIbEEEELb1EEC2B8ue170006EPmm, symObjAddr: 0x106A8, symBinAddr: 0x100048F64, symSize: 0xBC }
  - { offsetInCU: 0x1AB74, offset: 0xAAF45, size: 0x8, addend: 0x0, symName: __ZNSt3__112__hash_tableINS_17__hash_value_typeIP4NodeP4EdgeEENS_22__unordered_map_hasherIS3_S6_NS_4hashIS3_EENS_8equal_toIS3_EELb1EEENS_21__unordered_map_equalIS3_S6_SB_S9_Lb1EEENS_9allocatorIS6_EEE5beginEv, symObjAddr: 0x10764, symBinAddr: 0x100049020, symSize: 0x23C }
  - { offsetInCU: 0x1AB9D, offset: 0xAAF6E, size: 0x8, addend: 0x0, symName: __ZNSt3__119__hash_map_iteratorINS_15__hash_iteratorIPNS_11__hash_nodeINS_17__hash_value_typeIP4NodeP4EdgeEEPvEEEEEC1B8ue170006ESC_, symObjAddr: 0x109A0, symBinAddr: 0x10004925C, symSize: 0x238 }
  - { offsetInCU: 0x1ABDB, offset: 0xAAFAC, size: 0x8, addend: 0x0, symName: __ZNSt3__117__compressed_pairINS_16__hash_node_baseIPNS_11__hash_nodeINS_17__hash_value_typeIP4NodeP4EdgeEEPvEEEENS_9allocatorISA_EEE5firstB8ue170006Ev, symObjAddr: 0x10BD8, symBinAddr: 0x100049494, symSize: 0x24 }
  - { offsetInCU: 0x1AC01, offset: 0xAAFD2, size: 0x8, addend: 0x0, symName: __ZNSt3__115__hash_iteratorIPNS_11__hash_nodeINS_17__hash_value_typeIP4NodeP4EdgeEEPvEEEC1B8ue170006EPNS_16__hash_node_baseISA_EE, symObjAddr: 0x10BFC, symBinAddr: 0x1000494B8, symSize: 0x34 }
  - { offsetInCU: 0x1AC3A, offset: 0xAB00B, size: 0x8, addend: 0x0, symName: __ZNSt3__122__compressed_pair_elemINS_16__hash_node_baseIPNS_11__hash_nodeINS_17__hash_value_typeIP4NodeP4EdgeEEPvEEEELi0ELb0EE5__getB8ue170006Ev, symObjAddr: 0x10C30, symBinAddr: 0x1000494EC, symSize: 0x14 }
  - { offsetInCU: 0x1AC60, offset: 0xAB031, size: 0x8, addend: 0x0, symName: __ZNSt3__115__hash_iteratorIPNS_11__hash_nodeINS_17__hash_value_typeIP4NodeP4EdgeEEPvEEEC2B8ue170006EPNS_16__hash_node_baseISA_EE, symObjAddr: 0x10C44, symBinAddr: 0x100049500, symSize: 0x70 }
  - { offsetInCU: 0x1AC99, offset: 0xAB06A, size: 0x8, addend: 0x0, symName: __ZNSt3__119__hash_map_iteratorINS_15__hash_iteratorIPNS_11__hash_nodeINS_17__hash_value_typeIP4NodeP4EdgeEEPvEEEEEC2B8ue170006ESC_, symObjAddr: 0x10CB4, symBinAddr: 0x100049570, symSize: 0x204 }
  - { offsetInCU: 0x1ACD7, offset: 0xAB0A8, size: 0x8, addend: 0x0, symName: __ZNSt3__112__hash_tableINS_17__hash_value_typeIP4NodeP4EdgeEENS_22__unordered_map_hasherIS3_S6_NS_4hashIS3_EENS_8equal_toIS3_EELb1EEENS_21__unordered_map_equalIS3_S6_SB_S9_Lb1EEENS_9allocatorIS6_EEE3endEv, symObjAddr: 0x10EB8, symBinAddr: 0x100049774, symSize: 0x1F8 }
  - { offsetInCU: 0x1AD00, offset: 0xAB0D1, size: 0x8, addend: 0x0, symName: __ZNSt3__115__hash_iteratorIPNS_11__hash_nodeINS_17__hash_value_typeIP4NodeP4EdgeEEPvEEEppB8ue170006Ev, symObjAddr: 0x1119C, symBinAddr: 0x100049A58, symSize: 0xDC }
  - { offsetInCU: 0x1AD26, offset: 0xAB0F7, size: 0x8, addend: 0x0, symName: __ZNKSt3__115__hash_iteratorIPNS_11__hash_nodeINS_17__hash_value_typeIP4NodeP4EdgeEEPvEEEptB8ue170006Ev, symObjAddr: 0x11278, symBinAddr: 0x100049B34, symSize: 0x6C }
  - { offsetInCU: 0x1AD4C, offset: 0xAB11D, size: 0x8, addend: 0x0, symName: __ZNSt3__117__hash_value_typeIP4NodeP4EdgeE11__get_valueB8ue170006Ev, symObjAddr: 0x112E4, symBinAddr: 0x100049BA0, symSize: 0x24 }
  - { offsetInCU: 0x1AD72, offset: 0xAB143, size: 0x8, addend: 0x0, symName: __ZNSt3__114pointer_traitsIPNS_17__hash_value_typeIP4NodeP4EdgeEEE10pointer_toB8ue170006ERS6_, symObjAddr: 0x11308, symBinAddr: 0x100049BC4, symSize: 0x14 }
  - { offsetInCU: 0x1AD95, offset: 0xAB166, size: 0x8, addend: 0x0, symName: __ZNSt3__116__hash_node_baseIPNS_11__hash_nodeINS_17__hash_value_typeIP4NodeP4EdgeEEPvEEE8__upcastB8ue170006Ev, symObjAddr: 0x1131C, symBinAddr: 0x100049BD8, symSize: 0x24 }
  - { offsetInCU: 0x1ADBB, offset: 0xAB18C, size: 0x8, addend: 0x0, symName: __ZNSt3__114pointer_traitsIPNS_16__hash_node_baseIPNS_11__hash_nodeINS_17__hash_value_typeIP4NodeP4EdgeEEPvEEEEE10pointer_toB8ue170006ERSC_, symObjAddr: 0x11340, symBinAddr: 0x100049BFC, symSize: 0x14 }
  - { offsetInCU: 0x1AE38, offset: 0xAB209, size: 0x8, addend: 0x0, symName: '__ZZN7ECC_RED15trim_candidatesERNSt3__16vectorIP4NodeNS0_9allocatorIS3_EEEERKS6_ENK3$_0clES3_', symObjAddr: 0x1F018, symBinAddr: 0x100049FB0, symSize: 0x11C }
  - { offsetInCU: 0x1AE89, offset: 0xAB25A, size: 0x8, addend: 0x0, symName: __ZNSt3__16vectorIP4EdgeNS_9allocatorIS2_EEEC2ERKS5_, symObjAddr: 0x296A0, symBinAddr: 0x10004A0CC, symSize: 0x388 }
  - { offsetInCU: 0x1AED0, offset: 0xAB2A1, size: 0x8, addend: 0x0, symName: __ZNSt3__116allocator_traitsINS_9allocatorIP4EdgeEEE37select_on_container_copy_constructionB8ue170006IS4_vvEES4_RKS4_, symObjAddr: 0x29A28, symBinAddr: 0x10004A454, symSize: 0x10 }
  - { offsetInCU: 0x1AF04, offset: 0xAB2D5, size: 0x8, addend: 0x0, symName: __ZNSt3__117__compressed_pairIPP4EdgeNS_9allocatorIS2_EEEC1B8ue170006IDnS5_EEOT_OT0_, symObjAddr: 0x29A60, symBinAddr: 0x10004A464, symSize: 0x3C }
  - { offsetInCU: 0x1AF5C, offset: 0xAB32D, size: 0x8, addend: 0x0, symName: __ZNSt3__16vectorIP4EdgeNS_9allocatorIS2_EEE16__init_with_sizeB8ue170006IPS2_S7_EEvT_T0_m, symObjAddr: 0x29A9C, symBinAddr: 0x10004A4A0, symSize: 0x35C }
  - { offsetInCU: 0x1AFD8, offset: 0xAB3A9, size: 0x8, addend: 0x0, symName: __ZNSt3__117__compressed_pairIPP4EdgeNS_9allocatorIS2_EEEC2B8ue170006IDnS5_EEOT_OT0_, symObjAddr: 0x29E30, symBinAddr: 0x10004A7FC, symSize: 0x44 }
  - { offsetInCU: 0x1B030, offset: 0xAB401, size: 0x8, addend: 0x0, symName: __ZNSt3__122__compressed_pair_elemINS_9allocatorIP4EdgeEELi1ELb1EEC2B8ue170006IS4_vEEOT_, symObjAddr: 0x29ED8, symBinAddr: 0x10004A840, symSize: 0x18 }
  - { offsetInCU: 0x1B072, offset: 0xAB443, size: 0x8, addend: 0x0, symName: __ZNSt3__16vectorIP4EdgeNS_9allocatorIS2_EEE11__vallocateB8ue170006Em, symObjAddr: 0x2A19C, symBinAddr: 0x10004AAD0, symSize: 0x420 }
  - { offsetInCU: 0x1B0BC, offset: 0xAB48D, size: 0x8, addend: 0x0, symName: __ZNSt3__16vectorIP4EdgeNS_9allocatorIS2_EEE18__construct_at_endIPS2_S7_EEvT_T0_m, symObjAddr: 0x2A5BC, symBinAddr: 0x10004AEF0, symSize: 0x380 }
  - { offsetInCU: 0x1B13A, offset: 0xAB50B, size: 0x8, addend: 0x0, symName: __ZNSt3__128__exception_guard_exceptionsINS_6vectorIP4EdgeNS_9allocatorIS3_EEE16__destroy_vectorEE10__completeB8ue170006Ev, symObjAddr: 0x2A93C, symBinAddr: 0x10004B270, symSize: 0x8C }
  - { offsetInCU: 0x1B160, offset: 0xAB531, size: 0x8, addend: 0x0, symName: __ZNSt3__128__exception_guard_exceptionsINS_6vectorIP4EdgeNS_9allocatorIS3_EEE16__destroy_vectorEED1B8ue170006Ev, symObjAddr: 0x2A9C8, symBinAddr: 0x10004B2FC, symSize: 0x2C }
  - { offsetInCU: 0x1B18A, offset: 0xAB55B, size: 0x8, addend: 0x0, symName: __ZNSt3__128__exception_guard_exceptionsINS_6vectorIP4EdgeNS_9allocatorIS3_EEE16__destroy_vectorEEC1B8ue170006ES7_, symObjAddr: 0x2A9F4, symBinAddr: 0x10004B328, symSize: 0x238 }
  - { offsetInCU: 0x1B1C7, offset: 0xAB598, size: 0x8, addend: 0x0, symName: __ZNSt3__128__exception_guard_exceptionsINS_6vectorIP4EdgeNS_9allocatorIS3_EEE16__destroy_vectorEEC2B8ue170006ES7_, symObjAddr: 0x2AC2C, symBinAddr: 0x10004B560, symSize: 0x264 }
  - { offsetInCU: 0x1B23B, offset: 0xAB60C, size: 0x8, addend: 0x0, symName: __ZNSt3__14pairIPP4EdgeS3_EC1B8ue170006IS3_S3_LPv0EEEOT_OT0_, symObjAddr: 0x2C494, symBinAddr: 0x10004C0A0, symSize: 0x3C }
  - { offsetInCU: 0x1B299, offset: 0xAB66A, size: 0x8, addend: 0x0, symName: __ZNSt3__14pairIPP4EdgeS3_EC2B8ue170006IS3_S3_LPv0EEEOT_OT0_, symObjAddr: 0x2C4D0, symBinAddr: 0x10004C0DC, symSize: 0x138 }
  - { offsetInCU: 0x1B301, offset: 0xAB6D2, size: 0x8, addend: 0x0, symName: __ZNKSt3__114__copy_trivialclB8ue170006IP4EdgeS3_Li0EEENS_4pairIPT_PT0_EES6_S6_S8_, symObjAddr: 0x2D270, symBinAddr: 0x10004CE7C, symSize: 0x230 }
  - { offsetInCU: 0x1B36D, offset: 0xAB73E, size: 0x8, addend: 0x0, symName: __ZNSt3__14pairIPP4EdgeS3_EC1B8ue170006IRS3_S3_LPv0EEEOT_OT0_, symObjAddr: 0x2DAF0, symBinAddr: 0x10004D6FC, symSize: 0x3C }
  - { offsetInCU: 0x1B3CB, offset: 0xAB79C, size: 0x8, addend: 0x0, symName: __ZNSt3__14pairIPP4EdgeS3_EC2B8ue170006IRS3_S3_LPv0EEEOT_OT0_, symObjAddr: 0x2DB2C, symBinAddr: 0x10004D738, symSize: 0x138 }
  - { offsetInCU: 0x1B429, offset: 0xAB7FA, size: 0x8, addend: 0x0, symName: __ZNSt3__118__unwrap_iter_implIPP4EdgeLb1EE8__unwrapB8ue170006ES3_, symObjAddr: 0x2DC64, symBinAddr: 0x10004D870, symSize: 0x24 }
  - { offsetInCU: 0x1B44C, offset: 0xAB81D, size: 0x8, addend: 0x0, symName: __ZNSt3__118__unwrap_iter_implIPP4EdgeLb1EE8__rewrapB8ue170006ES3_S3_, symObjAddr: 0x2DC88, symBinAddr: 0x10004D894, symSize: 0x50 }
  - { offsetInCU: 0x1B47D, offset: 0xAB84E, size: 0x8, addend: 0x0, symName: __ZNSt3__128__exception_guard_exceptionsINS_6vectorIP4EdgeNS_9allocatorIS3_EEE16__destroy_vectorEED2B8ue170006Ev, symObjAddr: 0x2E018, symBinAddr: 0x10004D8E4, symSize: 0xBC }
  - { offsetInCU: 0x3B, offset: 0xAB943, size: 0x8, addend: 0x0, symName: _.str, symObjAddr: 0x28100, symBinAddr: 0x1000B4EE0, symSize: 0x0 }
  - { offsetInCU: 0x6B, offset: 0xAB973, size: 0x8, addend: 0x0, symName: _.str.1, symObjAddr: 0x28120, symBinAddr: 0x1000B4F00, symSize: 0x0 }
  - { offsetInCU: 0x88, offset: 0xAB990, size: 0x8, addend: 0x0, symName: _.str.2, symObjAddr: 0x28160, symBinAddr: 0x1000B4F40, symSize: 0x0 }
  - { offsetInCU: 0xA5, offset: 0xAB9AD, size: 0x8, addend: 0x0, symName: _.str.3, symObjAddr: 0x28180, symBinAddr: 0x1000B4F60, symSize: 0x0 }
  - { offsetInCU: 0xC2, offset: 0xAB9CA, size: 0x8, addend: 0x0, symName: _.str.4, symObjAddr: 0x281C0, symBinAddr: 0x1000B4FA0, symSize: 0x0 }
  - { offsetInCU: 0xDF, offset: 0xAB9E7, size: 0x8, addend: 0x0, symName: _.str.5, symObjAddr: 0x28200, symBinAddr: 0x1000B4FE0, symSize: 0x0 }
  - { offsetInCU: 0xFC, offset: 0xABA04, size: 0x8, addend: 0x0, symName: _.str.6, symObjAddr: 0x28220, symBinAddr: 0x1000B5000, symSize: 0x0 }
  - { offsetInCU: 0x119, offset: 0xABA21, size: 0x8, addend: 0x0, symName: _.str.7, symObjAddr: 0x28240, symBinAddr: 0x1000B5020, symSize: 0x0 }
  - { offsetInCU: 0x12A, offset: 0xABA32, size: 0x8, addend: 0x0, symName: _.str.8, symObjAddr: 0x28280, symBinAddr: 0x1000B5060, symSize: 0x0 }
  - { offsetInCU: 0x148, offset: 0xABA50, size: 0x8, addend: 0x0, symName: _.str.9, symObjAddr: 0x28300, symBinAddr: 0x1000B50E0, symSize: 0x0 }
  - { offsetInCU: 0x12DC8, offset: 0xBE6D0, size: 0x8, addend: 0x0, symName: __ZNSt3__1neB8ue170006IPP6CliqueEEbRKNS_11__wrap_iterIT_EES8_, symObjAddr: 0xF40, symBinAddr: 0x10004E94C, symSize: 0x34 }
  - { offsetInCU: 0x13737, offset: 0xBF03F, size: 0x8, addend: 0x0, symName: __ZNSt3__1neB8ue170006ERKNS_21__hash_const_iteratorIPNS_11__hash_nodeIP4NodePvEEEES9_, symObjAddr: 0x53A0, symBinAddr: 0x1000517FC, symSize: 0x34 }
  - { offsetInCU: 0x13774, offset: 0xBF07C, size: 0x8, addend: 0x0, symName: __ZNSt3__1eqB8ue170006IPP6CliqueEEbRKNS_11__wrap_iterIT_EES8_, symObjAddr: 0x686C, symBinAddr: 0x1000522EC, symSize: 0x48 }
  - { offsetInCU: 0x137EA, offset: 0xBF0F2, size: 0x8, addend: 0x0, symName: __ZNSt3__1eqB8ue170006ERKNS_21__hash_const_iteratorIPNS_11__hash_nodeIP4NodePvEEEES9_, symObjAddr: 0x1BDD4, symBinAddr: 0x100054ED8, symSize: 0xB8 }
  - { offsetInCU: 0x16B37, offset: 0xC243F, size: 0x8, addend: 0x0, symName: __ZN3ECCC2ENSt3__112basic_stringIcNS0_11char_traitsIcEENS0_9allocatorIcEEEE, symObjAddr: 0x0, symBinAddr: 0x10004DA38, symSize: 0x470 }
  - { offsetInCU: 0x16B98, offset: 0xC24A0, size: 0x8, addend: 0x0, symName: __ZNSt3__112basic_stringIcNS_11char_traitsIcEENS_9allocatorIcEEEC1B8ue170006Ev, symObjAddr: 0x470, symBinAddr: 0x10004DEA8, symSize: 0x2C }
  - { offsetInCU: 0x16BC2, offset: 0xC24CA, size: 0x8, addend: 0x0, symName: __ZNSt3__16vectorIP6CliqueNS_9allocatorIS2_EEEC1B8ue170006Ev, symObjAddr: 0x49C, symBinAddr: 0x10004DED4, symSize: 0x2C }
  - { offsetInCU: 0x16BEC, offset: 0xC24F4, size: 0x8, addend: 0x0, symName: __ZNSt3__16vectorIP6CliqueNS_9allocatorIS2_EEED1B8ue170006Ev, symObjAddr: 0x4F4, symBinAddr: 0x10004DF00, symSize: 0x2C }
  - { offsetInCU: 0x16C16, offset: 0xC251E, size: 0x8, addend: 0x0, symName: __ZN3ECCC1ENSt3__112basic_stringIcNS0_11char_traitsIcEENS0_9allocatorIcEEEE, symObjAddr: 0x520, symBinAddr: 0x10004DF2C, symSize: 0x34 }
  - { offsetInCU: 0x16C51, offset: 0xC2559, size: 0x8, addend: 0x0, symName: __ZN3ECCC2ERK5Graph, symObjAddr: 0x554, symBinAddr: 0x10004DF60, symSize: 0x11C }
  - { offsetInCU: 0x16C8B, offset: 0xC2593, size: 0x8, addend: 0x0, symName: __ZN3ECCC1ERK5Graph, symObjAddr: 0x670, symBinAddr: 0x10004E07C, symSize: 0x34 }
  - { offsetInCU: 0x16CC5, offset: 0xC25CD, size: 0x8, addend: 0x0, symName: __ZN3ECCD2Ev, symObjAddr: 0x6A4, symBinAddr: 0x10004E0B0, symSize: 0x3C8 }
  - { offsetInCU: 0x16D4D, offset: 0xC2655, size: 0x8, addend: 0x0, symName: __ZNSt3__16vectorIP6CliqueNS_9allocatorIS2_EEE5beginB8ue170006Ev, symObjAddr: 0xA6C, symBinAddr: 0x10004E478, symSize: 0x268 }
  - { offsetInCU: 0x16D76, offset: 0xC267E, size: 0x8, addend: 0x0, symName: __ZNSt3__16vectorIP6CliqueNS_9allocatorIS2_EEE3endB8ue170006Ev, symObjAddr: 0xCD4, symBinAddr: 0x10004E6E0, symSize: 0x26C }
  - { offsetInCU: 0x16D9F, offset: 0xC26A7, size: 0x8, addend: 0x0, symName: __ZNKSt3__111__wrap_iterIPP6CliqueEdeB8ue170006Ev, symObjAddr: 0xF74, symBinAddr: 0x10004E980, symSize: 0x60 }
  - { offsetInCU: 0x16DC5, offset: 0xC26CD, size: 0x8, addend: 0x0, symName: __ZN6CliqueD1Ev, symObjAddr: 0xFD4, symBinAddr: 0x10004E9E0, symSize: 0x2C }
  - { offsetInCU: 0x16DF1, offset: 0xC26F9, size: 0x8, addend: 0x0, symName: __ZNSt3__111__wrap_iterIPP6CliqueEppB8ue170006Ev, symObjAddr: 0x1000, symBinAddr: 0x10004EA0C, symSize: 0x68 }
  - { offsetInCU: 0x16E17, offset: 0xC271F, size: 0x8, addend: 0x0, symName: __ZN3ECCD1Ev, symObjAddr: 0x1068, symBinAddr: 0x10004EA74, symSize: 0x2C }
  - { offsetInCU: 0x16E43, offset: 0xC274B, size: 0x8, addend: 0x0, symName: __ZN3ECC3runEv, symObjAddr: 0x1094, symBinAddr: 0x10004EAA0, symSize: 0x488 }
  - { offsetInCU: 0x16EBC, offset: 0xC27C4, size: 0x8, addend: 0x0, symName: __ZN3ECC14check_solutionEv, symObjAddr: 0x16AC, symBinAddr: 0x10004EF28, symSize: 0x3DC }
  - { offsetInCU: 0x16F40, offset: 0xC2848, size: 0x8, addend: 0x0, symName: __ZN3ECC20check_solution_debugEv, symObjAddr: 0x2058, symBinAddr: 0x10004F304, symSize: 0x908 }
  - { offsetInCU: 0x17028, offset: 0xC2930, size: 0x8, addend: 0x0, symName: __ZN3ECC5graphEv, symObjAddr: 0x31B0, symBinAddr: 0x10004FC0C, symSize: 0x64 }
  - { offsetInCU: 0x17050, offset: 0xC2958, size: 0x8, addend: 0x0, symName: __ZN3ECC21select_uncovered_edgeERi, symObjAddr: 0x3214, symBinAddr: 0x10004FC70, symSize: 0x354 }
  - { offsetInCU: 0x170A2, offset: 0xC29AA, size: 0x8, addend: 0x0, symName: __ZN3ECC14find_clique_ofEP4Edge, symObjAddr: 0x35D4, symBinAddr: 0x10004FFC4, symSize: 0x7A0 }
  - { offsetInCU: 0x17128, offset: 0xC2A30, size: 0x8, addend: 0x0, symName: __ZNSt3__113unordered_setIP4NodeNS_4hashIS2_EENS_8equal_toIS2_EENS_9allocatorIS2_EEEaSEOS9_, symObjAddr: 0x3D74, symBinAddr: 0x100050764, symSize: 0x34 }
  - { offsetInCU: 0x1715F, offset: 0xC2A67, size: 0x8, addend: 0x0, symName: __ZNSt3__113unordered_setIP4NodeNS_4hashIS2_EENS_8equal_toIS2_EENS_9allocatorIS2_EEED1B8ue170006Ev, symObjAddr: 0x3DA8, symBinAddr: 0x100050798, symSize: 0x2C }
  - { offsetInCU: 0x17189, offset: 0xC2A91, size: 0x8, addend: 0x0, symName: __ZN3ECC12extract_nodeERNSt3__113unordered_setIP4NodeNS0_4hashIS3_EENS0_8equal_toIS3_EENS0_9allocatorIS3_EEEEP6Clique, symObjAddr: 0x3DD4, symBinAddr: 0x1000507C4, symSize: 0xAF8 }
  - { offsetInCU: 0x17348, offset: 0xC2C50, size: 0x8, addend: 0x0, symName: __ZNKSt3__113unordered_setIP4NodeNS_4hashIS2_EENS_8equal_toIS2_EENS_9allocatorIS2_EEE5emptyB8ue170006Ev, symObjAddr: 0x48CC, symBinAddr: 0x1000512BC, symSize: 0x30 }
  - { offsetInCU: 0x173FA, offset: 0xC2D02, size: 0x8, addend: 0x0, symName: __ZNSt3__113unordered_setIP4NodeNS_4hashIS2_EENS_8equal_toIS2_EENS_9allocatorIS2_EEE5beginB8ue170006Ev, symObjAddr: 0x4E90, symBinAddr: 0x1000512EC, symSize: 0x288 }
  - { offsetInCU: 0x17421, offset: 0xC2D29, size: 0x8, addend: 0x0, symName: __ZNSt3__113unordered_setIP4NodeNS_4hashIS2_EENS_8equal_toIS2_EENS_9allocatorIS2_EEE3endB8ue170006Ev, symObjAddr: 0x5118, symBinAddr: 0x100051574, symSize: 0x288 }
  - { offsetInCU: 0x17448, offset: 0xC2D50, size: 0x8, addend: 0x0, symName: __ZNKSt3__121__hash_const_iteratorIPNS_11__hash_nodeIP4NodePvEEEdeB8ue170006Ev, symObjAddr: 0x53D4, symBinAddr: 0x100051830, symSize: 0x68 }
  - { offsetInCU: 0x1746E, offset: 0xC2D76, size: 0x8, addend: 0x0, symName: __ZNSt3__121__hash_const_iteratorIPNS_11__hash_nodeIP4NodePvEEEppB8ue170006Ev, symObjAddr: 0x5750, symBinAddr: 0x100051898, symSize: 0xDC }
  - { offsetInCU: 0x17494, offset: 0xC2D9C, size: 0x8, addend: 0x0, symName: __ZN3ECC18node_set_intersectERNSt3__113unordered_setIP4NodeNS0_4hashIS3_EENS0_8equal_toIS3_EENS0_9allocatorIS3_EEEESB_, symObjAddr: 0x5EF4, symBinAddr: 0x100051974, symSize: 0x654 }
  - { offsetInCU: 0x17549, offset: 0xC2E51, size: 0x8, addend: 0x0, symName: __ZNKSt3__113unordered_setIP4NodeNS_4hashIS2_EENS_8equal_toIS2_EENS_9allocatorIS2_EEE4sizeB8ue170006Ev, symObjAddr: 0x6548, symBinAddr: 0x100051FC8, symSize: 0x24 }
  - { offsetInCU: 0x1756F, offset: 0xC2E77, size: 0x8, addend: 0x0, symName: __ZNSt3__113unordered_setIP4NodeNS_4hashIS2_EENS_8equal_toIS2_EENS_9allocatorIS2_EEEC1B8ue170006Ev, symObjAddr: 0x656C, symBinAddr: 0x100051FEC, symSize: 0x2C }
  - { offsetInCU: 0x17599, offset: 0xC2EA1, size: 0x8, addend: 0x0, symName: __ZNKSt3__113unordered_setIP4NodeNS_4hashIS2_EENS_8equal_toIS2_EENS_9allocatorIS2_EEE5countB8ue170006ERKS2_, symObjAddr: 0x6598, symBinAddr: 0x100052018, symSize: 0x2C }
  - { offsetInCU: 0x175CE, offset: 0xC2ED6, size: 0x8, addend: 0x0, symName: __ZNSt3__113unordered_setIP4NodeNS_4hashIS2_EENS_8equal_toIS2_EENS_9allocatorIS2_EEE6insertB8ue170006ERKS2_, symObjAddr: 0x65C4, symBinAddr: 0x100052044, symSize: 0x2A8 }
  - { offsetInCU: 0x17605, offset: 0xC2F0D, size: 0x8, addend: 0x0, symName: __ZNKSt3__111__wrap_iterIPP6CliqueE4baseB8ue170006Ev, symObjAddr: 0x68B4, symBinAddr: 0x100052334, symSize: 0x60 }
  - { offsetInCU: 0x1762B, offset: 0xC2F33, size: 0x8, addend: 0x0, symName: __ZN6CliqueD2Ev, symObjAddr: 0x6914, symBinAddr: 0x100052394, symSize: 0x3C }
  - { offsetInCU: 0x1765C, offset: 0xC2F64, size: 0x8, addend: 0x0, symName: __ZNSt3__112basic_stringIcNS_11char_traitsIcEENS_9allocatorIcEEEC2B8ue170006Ev, symObjAddr: 0x7798, symBinAddr: 0x1000523D0, symSize: 0x20C }
  - { offsetInCU: 0x1768C, offset: 0xC2F94, size: 0x8, addend: 0x0, symName: __ZNSt3__112basic_stringIcNS_11char_traitsIcEENS_9allocatorIcEEE14__default_initB8ue170006Ev, symObjAddr: 0x79E0, symBinAddr: 0x1000525DC, symSize: 0x22C }
  - { offsetInCU: 0x176B3, offset: 0xC2FBB, size: 0x8, addend: 0x0, symName: __ZNSt3__16vectorIP6CliqueNS_9allocatorIS2_EEEC2B8ue170006Ev, symObjAddr: 0x7D00, symBinAddr: 0x100052808, symSize: 0x2E8 }
  - { offsetInCU: 0x176E3, offset: 0xC2FEB, size: 0x8, addend: 0x0, symName: __ZNSt3__117__compressed_pairIPP6CliqueNS_9allocatorIS2_EEEC1B8ue170006IDnNS_18__default_init_tagEEEOT_OT0_, symObjAddr: 0x7FE8, symBinAddr: 0x100052AF0, symSize: 0x3C }
  - { offsetInCU: 0x1773B, offset: 0xC3043, size: 0x8, addend: 0x0, symName: __ZNSt3__117__compressed_pairIPP6CliqueNS_9allocatorIS2_EEEC2B8ue170006IDnNS_18__default_init_tagEEEOT_OT0_, symObjAddr: 0x8024, symBinAddr: 0x100052B2C, symSize: 0x40 }
  - { offsetInCU: 0x17793, offset: 0xC309B, size: 0x8, addend: 0x0, symName: __ZNSt3__122__compressed_pair_elemINS_9allocatorIP6CliqueEELi1ELb1EEC2B8ue170006ENS_18__default_init_tagE, symObjAddr: 0x80C8, symBinAddr: 0x100052B6C, symSize: 0x2C }
  - { offsetInCU: 0x177C7, offset: 0xC30CF, size: 0x8, addend: 0x0, symName: __ZNSt3__19allocatorIP6CliqueEC2B8ue170006Ev, symObjAddr: 0x80F4, symBinAddr: 0x100052B98, symSize: 0x2C }
  - { offsetInCU: 0x177F1, offset: 0xC30F9, size: 0x8, addend: 0x0, symName: __ZNSt3__116__non_trivial_ifILb1ENS_9allocatorIP6CliqueEEEC2B8ue170006Ev, symObjAddr: 0x8120, symBinAddr: 0x100052BC4, symSize: 0x14 }
  - { offsetInCU: 0x1781B, offset: 0xC3123, size: 0x8, addend: 0x0, symName: __ZNSt3__16vectorIP6CliqueNS_9allocatorIS2_EEED2B8ue170006Ev, symObjAddr: 0x8134, symBinAddr: 0x100052BD8, symSize: 0x1F8 }
  - { offsetInCU: 0x17846, offset: 0xC314E, size: 0x8, addend: 0x0, symName: __ZNSt3__16vectorIP6CliqueNS_9allocatorIS2_EEE16__destroy_vectorC1B8ue170006ERS5_, symObjAddr: 0x832C, symBinAddr: 0x100052DD0, symSize: 0x34 }
  - { offsetInCU: 0x1787F, offset: 0xC3187, size: 0x8, addend: 0x0, symName: __ZNSt3__16vectorIP6CliqueNS_9allocatorIS2_EEE16__destroy_vectorclB8ue170006Ev, symObjAddr: 0x8360, symBinAddr: 0x100052E04, symSize: 0x228 }
  - { offsetInCU: 0x178A5, offset: 0xC31AD, size: 0x8, addend: 0x0, symName: __ZNSt3__16vectorIP6CliqueNS_9allocatorIS2_EEE16__destroy_vectorC2B8ue170006ERS5_, symObjAddr: 0x8588, symBinAddr: 0x10005302C, symSize: 0x70 }
  - { offsetInCU: 0x178DE, offset: 0xC31E6, size: 0x8, addend: 0x0, symName: __ZNSt3__16vectorIP6CliqueNS_9allocatorIS2_EEE7__clearB8ue170006Ev, symObjAddr: 0x85F8, symBinAddr: 0x10005309C, symSize: 0x64 }
  - { offsetInCU: 0x17904, offset: 0xC320C, size: 0x8, addend: 0x0, symName: __ZNSt3__16vectorIP6CliqueNS_9allocatorIS2_EEE22__base_destruct_at_endB8ue170006EPS2_, symObjAddr: 0x8840, symBinAddr: 0x100053100, symSize: 0x114 }
  - { offsetInCU: 0x17948, offset: 0xC3250, size: 0x8, addend: 0x0, symName: __ZNSt3__16vectorIP6CliqueNS_9allocatorIS2_EEE11__make_iterB8ue170006EPS2_, symObjAddr: 0x8BF8, symBinAddr: 0x100053214, symSize: 0x1FC }
  - { offsetInCU: 0x1797F, offset: 0xC3287, size: 0x8, addend: 0x0, symName: __ZNSt3__111__wrap_iterIPP6CliqueEC1B8ue170006ES3_, symObjAddr: 0x8DF4, symBinAddr: 0x100053410, symSize: 0x34 }
  - { offsetInCU: 0x179B7, offset: 0xC32BF, size: 0x8, addend: 0x0, symName: __ZNSt3__111__wrap_iterIPP6CliqueEC2B8ue170006ES3_, symObjAddr: 0x8E28, symBinAddr: 0x100053444, symSize: 0x70 }
  - { offsetInCU: 0x17A2B, offset: 0xC3333, size: 0x8, addend: 0x0, symName: __ZNSt3__113unordered_setIP4NodeNS_4hashIS2_EENS_8equal_toIS2_EENS_9allocatorIS2_EEED2B8ue170006Ev, symObjAddr: 0x189A4, symBinAddr: 0x1000534B4, symSize: 0x2C }
  - { offsetInCU: 0x17A55, offset: 0xC335D, size: 0x8, addend: 0x0, symName: __ZNSt3__112__hash_tableIP4NodeNS_4hashIS2_EENS_8equal_toIS2_EENS_9allocatorIS2_EEED1Ev, symObjAddr: 0x189D0, symBinAddr: 0x1000534E0, symSize: 0x2C }
  - { offsetInCU: 0x17A81, offset: 0xC3389, size: 0x8, addend: 0x0, symName: __ZNSt3__112__hash_tableIP4NodeNS_4hashIS2_EENS_8equal_toIS2_EENS_9allocatorIS2_EEED2Ev, symObjAddr: 0x189FC, symBinAddr: 0x10005350C, symSize: 0x88 }
  - { offsetInCU: 0x17AAD, offset: 0xC33B5, size: 0x8, addend: 0x0, symName: __ZNSt3__112__hash_tableIP4NodeNS_4hashIS2_EENS_8equal_toIS2_EENS_9allocatorIS2_EEE17__deallocate_nodeEPNS_16__hash_node_baseIPNS_11__hash_nodeIS2_PvEEEE, symObjAddr: 0x18A84, symBinAddr: 0x100053594, symSize: 0xF8 }
  - { offsetInCU: 0x17B17, offset: 0xC341F, size: 0x8, addend: 0x0, symName: __ZNSt3__117__compressed_pairINS_16__hash_node_baseIPNS_11__hash_nodeIP4NodePvEEEENS_9allocatorIS6_EEE5firstB8ue170006Ev, symObjAddr: 0x18B7C, symBinAddr: 0x10005368C, symSize: 0x24 }
  - { offsetInCU: 0x17B3D, offset: 0xC3445, size: 0x8, addend: 0x0, symName: __ZNSt3__110unique_ptrIA_PNS_16__hash_node_baseIPNS_11__hash_nodeIP4NodePvEEEENS_25__bucket_list_deallocatorINS_9allocatorIS9_EEEEED1B8ue170006Ev, symObjAddr: 0x18BA0, symBinAddr: 0x1000536B0, symSize: 0x2C }
  - { offsetInCU: 0x17B67, offset: 0xC346F, size: 0x8, addend: 0x0, symName: __ZNSt3__112__hash_tableIP4NodeNS_4hashIS2_EENS_8equal_toIS2_EENS_9allocatorIS2_EEE12__node_allocB8ue170006Ev, symObjAddr: 0x18BCC, symBinAddr: 0x1000536DC, symSize: 0x28 }
  - { offsetInCU: 0x17B8D, offset: 0xC3495, size: 0x8, addend: 0x0, symName: __ZNSt3__116__hash_node_baseIPNS_11__hash_nodeIP4NodePvEEE8__upcastB8ue170006Ev, symObjAddr: 0x18BF4, symBinAddr: 0x100053704, symSize: 0x24 }
  - { offsetInCU: 0x17BB3, offset: 0xC34BB, size: 0x8, addend: 0x0, symName: __ZNSt3__116allocator_traitsINS_9allocatorINS_11__hash_nodeIP4NodePvEEEEE7destroyB8ue170006IS4_vvEEvRS7_PT_, symObjAddr: 0x18C18, symBinAddr: 0x100053728, symSize: 0x14 }
  - { offsetInCU: 0x17BED, offset: 0xC34F5, size: 0x8, addend: 0x0, symName: __ZNSt3__122__hash_key_value_typesIP4NodeE9__get_ptrB8ue170006ERS2_, symObjAddr: 0x18C2C, symBinAddr: 0x10005373C, symSize: 0x14 }
  - { offsetInCU: 0x17C10, offset: 0xC3518, size: 0x8, addend: 0x0, symName: __ZNSt3__116allocator_traitsINS_9allocatorINS_11__hash_nodeIP4NodePvEEEEE10deallocateB8ue170006ERS7_PS6_m, symObjAddr: 0x18C40, symBinAddr: 0x100053750, symSize: 0x34 }
  - { offsetInCU: 0x17C52, offset: 0xC355A, size: 0x8, addend: 0x0, symName: __ZNSt3__117__compressed_pairINS_16__hash_node_baseIPNS_11__hash_nodeIP4NodePvEEEENS_9allocatorIS6_EEE6secondB8ue170006Ev, symObjAddr: 0x18C74, symBinAddr: 0x100053784, symSize: 0x24 }
  - { offsetInCU: 0x17C78, offset: 0xC3580, size: 0x8, addend: 0x0, symName: __ZNSt3__122__compressed_pair_elemINS_9allocatorINS_11__hash_nodeIP4NodePvEEEELi1ELb1EE5__getB8ue170006Ev, symObjAddr: 0x18C98, symBinAddr: 0x1000537A8, symSize: 0x14 }
  - { offsetInCU: 0x17C9E, offset: 0xC35A6, size: 0x8, addend: 0x0, symName: __ZNSt3__114pointer_traitsIPNS_16__hash_node_baseIPNS_11__hash_nodeIP4NodePvEEEEE10pointer_toB8ue170006ERS8_, symObjAddr: 0x18CAC, symBinAddr: 0x1000537BC, symSize: 0x14 }
  - { offsetInCU: 0x17CC1, offset: 0xC35C9, size: 0x8, addend: 0x0, symName: __ZNSt3__19allocatorINS_11__hash_nodeIP4NodePvEEE10deallocateB8ue170006EPS5_m, symObjAddr: 0x18CC0, symBinAddr: 0x1000537D0, symSize: 0x50 }
  - { offsetInCU: 0x17D03, offset: 0xC360B, size: 0x8, addend: 0x0, symName: __ZNSt3__122__compressed_pair_elemINS_16__hash_node_baseIPNS_11__hash_nodeIP4NodePvEEEELi0ELb0EE5__getB8ue170006Ev, symObjAddr: 0x18D10, symBinAddr: 0x100053820, symSize: 0x14 }
  - { offsetInCU: 0x17D29, offset: 0xC3631, size: 0x8, addend: 0x0, symName: __ZNSt3__110unique_ptrIA_PNS_16__hash_node_baseIPNS_11__hash_nodeIP4NodePvEEEENS_25__bucket_list_deallocatorINS_9allocatorIS9_EEEEED2B8ue170006Ev, symObjAddr: 0x18D24, symBinAddr: 0x100053834, symSize: 0x30 }
  - { offsetInCU: 0x17D53, offset: 0xC365B, size: 0x8, addend: 0x0, symName: __ZNSt3__110unique_ptrIA_PNS_16__hash_node_baseIPNS_11__hash_nodeIP4NodePvEEEENS_25__bucket_list_deallocatorINS_9allocatorIS9_EEEEE5resetB8ue170006EDn, symObjAddr: 0x18D54, symBinAddr: 0x100053864, symSize: 0xE0 }
  - { offsetInCU: 0x17D93, offset: 0xC369B, size: 0x8, addend: 0x0, symName: __ZNSt3__117__compressed_pairIPPNS_16__hash_node_baseIPNS_11__hash_nodeIP4NodePvEEEENS_25__bucket_list_deallocatorINS_9allocatorIS9_EEEEE5firstB8ue170006Ev, symObjAddr: 0x18E34, symBinAddr: 0x100053944, symSize: 0x24 }
  - { offsetInCU: 0x17DB9, offset: 0xC36C1, size: 0x8, addend: 0x0, symName: __ZNSt3__117__compressed_pairIPPNS_16__hash_node_baseIPNS_11__hash_nodeIP4NodePvEEEENS_25__bucket_list_deallocatorINS_9allocatorIS9_EEEEE6secondB8ue170006Ev, symObjAddr: 0x18E58, symBinAddr: 0x100053968, symSize: 0x28 }
  - { offsetInCU: 0x17DDF, offset: 0xC36E7, size: 0x8, addend: 0x0, symName: __ZNSt3__125__bucket_list_deallocatorINS_9allocatorIPNS_16__hash_node_baseIPNS_11__hash_nodeIP4NodePvEEEEEEEclB8ue170006EPSA_, symObjAddr: 0x18E80, symBinAddr: 0x100053990, symSize: 0x98 }
  - { offsetInCU: 0x17E14, offset: 0xC371C, size: 0x8, addend: 0x0, symName: __ZNSt3__122__compressed_pair_elemIPPNS_16__hash_node_baseIPNS_11__hash_nodeIP4NodePvEEEELi0ELb0EE5__getB8ue170006Ev, symObjAddr: 0x18F18, symBinAddr: 0x100053A28, symSize: 0x14 }
  - { offsetInCU: 0x17E3A, offset: 0xC3742, size: 0x8, addend: 0x0, symName: __ZNSt3__122__compressed_pair_elemINS_25__bucket_list_deallocatorINS_9allocatorIPNS_16__hash_node_baseIPNS_11__hash_nodeIP4NodePvEEEEEEEELi1ELb0EE5__getB8ue170006Ev, symObjAddr: 0x18F2C, symBinAddr: 0x100053A3C, symSize: 0x14 }
  - { offsetInCU: 0x17E60, offset: 0xC3768, size: 0x8, addend: 0x0, symName: __ZNSt3__116allocator_traitsINS_9allocatorIPNS_16__hash_node_baseIPNS_11__hash_nodeIP4NodePvEEEEEEE10deallocateB8ue170006ERSB_PSA_m, symObjAddr: 0x18F40, symBinAddr: 0x100053A50, symSize: 0x34 }
  - { offsetInCU: 0x17EA2, offset: 0xC37AA, size: 0x8, addend: 0x0, symName: __ZNSt3__125__bucket_list_deallocatorINS_9allocatorIPNS_16__hash_node_baseIPNS_11__hash_nodeIP4NodePvEEEEEEE7__allocB8ue170006Ev, symObjAddr: 0x18F74, symBinAddr: 0x100053A84, symSize: 0x24 }
  - { offsetInCU: 0x17EC8, offset: 0xC37D0, size: 0x8, addend: 0x0, symName: __ZNSt3__125__bucket_list_deallocatorINS_9allocatorIPNS_16__hash_node_baseIPNS_11__hash_nodeIP4NodePvEEEEEEE4sizeB8ue170006Ev, symObjAddr: 0x18F98, symBinAddr: 0x100053AA8, symSize: 0x24 }
  - { offsetInCU: 0x17EEE, offset: 0xC37F6, size: 0x8, addend: 0x0, symName: __ZNSt3__19allocatorIPNS_16__hash_node_baseIPNS_11__hash_nodeIP4NodePvEEEEE10deallocateB8ue170006EPS9_m, symObjAddr: 0x18FBC, symBinAddr: 0x100053ACC, symSize: 0x4C }
  - { offsetInCU: 0x17F30, offset: 0xC3838, size: 0x8, addend: 0x0, symName: __ZNSt3__117__compressed_pairImNS_9allocatorIPNS_16__hash_node_baseIPNS_11__hash_nodeIP4NodePvEEEEEEE6secondB8ue170006Ev, symObjAddr: 0x19008, symBinAddr: 0x100053B18, symSize: 0x24 }
  - { offsetInCU: 0x17F56, offset: 0xC385E, size: 0x8, addend: 0x0, symName: __ZNSt3__122__compressed_pair_elemINS_9allocatorIPNS_16__hash_node_baseIPNS_11__hash_nodeIP4NodePvEEEEEELi1ELb1EE5__getB8ue170006Ev, symObjAddr: 0x1902C, symBinAddr: 0x100053B3C, symSize: 0x14 }
  - { offsetInCU: 0x17F7C, offset: 0xC3884, size: 0x8, addend: 0x0, symName: __ZNSt3__117__compressed_pairImNS_9allocatorIPNS_16__hash_node_baseIPNS_11__hash_nodeIP4NodePvEEEEEEE5firstB8ue170006Ev, symObjAddr: 0x19040, symBinAddr: 0x100053B50, symSize: 0x24 }
  - { offsetInCU: 0x17FA2, offset: 0xC38AA, size: 0x8, addend: 0x0, symName: __ZNSt3__112__hash_tableIP4NodeNS_4hashIS2_EENS_8equal_toIS2_EENS_9allocatorIS2_EEEaSEOS9_, symObjAddr: 0x19078, symBinAddr: 0x100053B74, symSize: 0x34 }
  - { offsetInCU: 0x17FD9, offset: 0xC38E1, size: 0x8, addend: 0x0, symName: __ZNSt3__112__hash_tableIP4NodeNS_4hashIS2_EENS_8equal_toIS2_EENS_9allocatorIS2_EEE13__move_assignERS9_NS_17integral_constantIbLb1EEE, symObjAddr: 0x190AC, symBinAddr: 0x100053BA8, symSize: 0x500 }
  - { offsetInCU: 0x1801B, offset: 0xC3923, size: 0x8, addend: 0x0, symName: __ZNSt3__112__hash_tableIP4NodeNS_4hashIS2_EENS_8equal_toIS2_EENS_9allocatorIS2_EEE5clearEv, symObjAddr: 0x195AC, symBinAddr: 0x1000540A8, symSize: 0x1F4 }
  - { offsetInCU: 0x1806D, offset: 0xC3975, size: 0x8, addend: 0x0, symName: __ZNSt3__110unique_ptrIA_PNS_16__hash_node_baseIPNS_11__hash_nodeIP4NodePvEEEENS_25__bucket_list_deallocatorINS_9allocatorIS9_EEEEE5resetB8ue170006IPS9_EENS_9enable_ifIXsr28_CheckArrayPointerConversionIT_EE5valueEvE4typeESJ_, symObjAddr: 0x197A0, symBinAddr: 0x10005429C, symSize: 0xEC }
  - { offsetInCU: 0x180BA, offset: 0xC39C2, size: 0x8, addend: 0x0, symName: __ZNSt3__110unique_ptrIA_PNS_16__hash_node_baseIPNS_11__hash_nodeIP4NodePvEEEENS_25__bucket_list_deallocatorINS_9allocatorIS9_EEEEE7releaseB8ue170006Ev, symObjAddr: 0x1988C, symBinAddr: 0x100054388, symSize: 0xB8 }
  - { offsetInCU: 0x180EF, offset: 0xC39F7, size: 0x8, addend: 0x0, symName: __ZNSt3__110unique_ptrIA_PNS_16__hash_node_baseIPNS_11__hash_nodeIP4NodePvEEEENS_25__bucket_list_deallocatorINS_9allocatorIS9_EEEEE11get_deleterB8ue170006Ev, symObjAddr: 0x19944, symBinAddr: 0x100054440, symSize: 0x24 }
  - { offsetInCU: 0x18115, offset: 0xC3A1D, size: 0x8, addend: 0x0, symName: __ZNSt3__112__hash_tableIP4NodeNS_4hashIS2_EENS_8equal_toIS2_EENS_9allocatorIS2_EEE19__move_assign_allocB8ue170006ERS9_, symObjAddr: 0x19968, symBinAddr: 0x100054464, symSize: 0x2C }
  - { offsetInCU: 0x1814A, offset: 0xC3A52, size: 0x8, addend: 0x0, symName: __ZNSt3__112__hash_tableIP4NodeNS_4hashIS2_EENS_8equal_toIS2_EENS_9allocatorIS2_EEE4sizeB8ue170006Ev, symObjAddr: 0x19994, symBinAddr: 0x100054490, symSize: 0x28 }
  - { offsetInCU: 0x18170, offset: 0xC3A78, size: 0x8, addend: 0x0, symName: __ZNSt3__112__hash_tableIP4NodeNS_4hashIS2_EENS_8equal_toIS2_EENS_9allocatorIS2_EEE13hash_functionB8ue170006Ev, symObjAddr: 0x199BC, symBinAddr: 0x1000544B8, symSize: 0x28 }
  - { offsetInCU: 0x18196, offset: 0xC3A9E, size: 0x8, addend: 0x0, symName: __ZNSt3__112__hash_tableIP4NodeNS_4hashIS2_EENS_8equal_toIS2_EENS_9allocatorIS2_EEE15max_load_factorB8ue170006Ev, symObjAddr: 0x199E4, symBinAddr: 0x1000544E0, symSize: 0x28 }
  - { offsetInCU: 0x181BC, offset: 0xC3AC4, size: 0x8, addend: 0x0, symName: __ZNSt3__112__hash_tableIP4NodeNS_4hashIS2_EENS_8equal_toIS2_EENS_9allocatorIS2_EEE6key_eqB8ue170006Ev, symObjAddr: 0x19A0C, symBinAddr: 0x100054508, symSize: 0x28 }
  - { offsetInCU: 0x181E2, offset: 0xC3AEA, size: 0x8, addend: 0x0, symName: __ZNSt3__116__hash_node_baseIPNS_11__hash_nodeIP4NodePvEEE5__ptrB8ue170006Ev, symObjAddr: 0x19A34, symBinAddr: 0x100054530, symSize: 0x24 }
  - { offsetInCU: 0x18208, offset: 0xC3B10, size: 0x8, addend: 0x0, symName: __ZNKSt3__110unique_ptrIA_PNS_16__hash_node_baseIPNS_11__hash_nodeIP4NodePvEEEENS_25__bucket_list_deallocatorINS_9allocatorIS9_EEEEEixB8ue170006Em, symObjAddr: 0x19A58, symBinAddr: 0x100054554, symSize: 0x78 }
  - { offsetInCU: 0x1823D, offset: 0xC3B45, size: 0x8, addend: 0x0, symName: __ZNKSt3__116__hash_node_baseIPNS_11__hash_nodeIP4NodePvEEE6__hashB8ue170006Ev, symObjAddr: 0x19B68, symBinAddr: 0x1000545CC, symSize: 0x64 }
  - { offsetInCU: 0x18263, offset: 0xC3B6B, size: 0x8, addend: 0x0, symName: __ZNKSt3__112__hash_tableIP4NodeNS_4hashIS2_EENS_8equal_toIS2_EENS_9allocatorIS2_EEE12bucket_countB8ue170006Ev, symObjAddr: 0x19BCC, symBinAddr: 0x100054630, symSize: 0x28 }
  - { offsetInCU: 0x18289, offset: 0xC3B91, size: 0x8, addend: 0x0, symName: __ZNSt3__112__hash_tableIP4NodeNS_4hashIS2_EENS_8equal_toIS2_EENS_9allocatorIS2_EEE19__move_assign_allocB8ue170006ERS9_NS_17integral_constantIbLb1EEE, symObjAddr: 0x19BF4, symBinAddr: 0x100054658, symSize: 0x50 }
  - { offsetInCU: 0x182C9, offset: 0xC3BD1, size: 0x8, addend: 0x0, symName: __ZNSt3__117__compressed_pairImNS_4hashIP4NodeEEE5firstB8ue170006Ev, symObjAddr: 0x19C44, symBinAddr: 0x1000546A8, symSize: 0x24 }
  - { offsetInCU: 0x182EF, offset: 0xC3BF7, size: 0x8, addend: 0x0, symName: __ZNSt3__117__compressed_pairImNS_4hashIP4NodeEEE6secondB8ue170006Ev, symObjAddr: 0x19C68, symBinAddr: 0x1000546CC, symSize: 0x24 }
  - { offsetInCU: 0x18315, offset: 0xC3C1D, size: 0x8, addend: 0x0, symName: __ZNSt3__122__compressed_pair_elemINS_4hashIP4NodeEELi1ELb1EE5__getB8ue170006Ev, symObjAddr: 0x19C8C, symBinAddr: 0x1000546F0, symSize: 0x14 }
  - { offsetInCU: 0x1833B, offset: 0xC3C43, size: 0x8, addend: 0x0, symName: __ZNSt3__117__compressed_pairIfNS_8equal_toIP4NodeEEE5firstB8ue170006Ev, symObjAddr: 0x19CA0, symBinAddr: 0x100054704, symSize: 0x24 }
  - { offsetInCU: 0x18361, offset: 0xC3C69, size: 0x8, addend: 0x0, symName: __ZNSt3__117__compressed_pairIfNS_8equal_toIP4NodeEEE6secondB8ue170006Ev, symObjAddr: 0x19CD8, symBinAddr: 0x100054728, symSize: 0x24 }
  - { offsetInCU: 0x18387, offset: 0xC3C8F, size: 0x8, addend: 0x0, symName: __ZNSt3__122__compressed_pair_elemINS_8equal_toIP4NodeEELi1ELb1EE5__getB8ue170006Ev, symObjAddr: 0x19CFC, symBinAddr: 0x10005474C, symSize: 0x14 }
  - { offsetInCU: 0x183AD, offset: 0xC3CB5, size: 0x8, addend: 0x0, symName: __ZNKSt3__117__compressed_pairIPPNS_16__hash_node_baseIPNS_11__hash_nodeIP4NodePvEEEENS_25__bucket_list_deallocatorINS_9allocatorIS9_EEEEE5firstB8ue170006Ev, symObjAddr: 0x19D10, symBinAddr: 0x100054760, symSize: 0x24 }
  - { offsetInCU: 0x183D3, offset: 0xC3CDB, size: 0x8, addend: 0x0, symName: __ZNKSt3__122__compressed_pair_elemIPPNS_16__hash_node_baseIPNS_11__hash_nodeIP4NodePvEEEELi0ELb0EE5__getB8ue170006Ev, symObjAddr: 0x19D34, symBinAddr: 0x100054784, symSize: 0x14 }
  - { offsetInCU: 0x183F9, offset: 0xC3D01, size: 0x8, addend: 0x0, symName: __ZNKSt3__110unique_ptrIA_PNS_16__hash_node_baseIPNS_11__hash_nodeIP4NodePvEEEENS_25__bucket_list_deallocatorINS_9allocatorIS9_EEEEE11get_deleterB8ue170006Ev, symObjAddr: 0x19D48, symBinAddr: 0x100054798, symSize: 0x24 }
  - { offsetInCU: 0x1841F, offset: 0xC3D27, size: 0x8, addend: 0x0, symName: __ZNKSt3__125__bucket_list_deallocatorINS_9allocatorIPNS_16__hash_node_baseIPNS_11__hash_nodeIP4NodePvEEEEEEE4sizeB8ue170006Ev, symObjAddr: 0x19D6C, symBinAddr: 0x1000547BC, symSize: 0x6C }
  - { offsetInCU: 0x18445, offset: 0xC3D4D, size: 0x8, addend: 0x0, symName: __ZNKSt3__117__compressed_pairIPPNS_16__hash_node_baseIPNS_11__hash_nodeIP4NodePvEEEENS_25__bucket_list_deallocatorINS_9allocatorIS9_EEEEE6secondB8ue170006Ev, symObjAddr: 0x19DD8, symBinAddr: 0x100054828, symSize: 0x28 }
  - { offsetInCU: 0x1846B, offset: 0xC3D73, size: 0x8, addend: 0x0, symName: __ZNKSt3__122__compressed_pair_elemINS_25__bucket_list_deallocatorINS_9allocatorIPNS_16__hash_node_baseIPNS_11__hash_nodeIP4NodePvEEEEEEEELi1ELb0EE5__getB8ue170006Ev, symObjAddr: 0x19E00, symBinAddr: 0x100054850, symSize: 0x14 }
  - { offsetInCU: 0x18491, offset: 0xC3D99, size: 0x8, addend: 0x0, symName: __ZNKSt3__117__compressed_pairImNS_9allocatorIPNS_16__hash_node_baseIPNS_11__hash_nodeIP4NodePvEEEEEEE5firstB8ue170006Ev, symObjAddr: 0x19E14, symBinAddr: 0x100054864, symSize: 0x24 }
  - { offsetInCU: 0x184B7, offset: 0xC3DBF, size: 0x8, addend: 0x0, symName: __ZNKSt3__112__hash_tableIP4NodeNS_4hashIS2_EENS_8equal_toIS2_EENS_9allocatorIS2_EEE4sizeB8ue170006Ev, symObjAddr: 0x19E4C, symBinAddr: 0x100054888, symSize: 0x70 }
  - { offsetInCU: 0x184DD, offset: 0xC3DE5, size: 0x8, addend: 0x0, symName: __ZNKSt3__117__compressed_pairImNS_4hashIP4NodeEEE5firstB8ue170006Ev, symObjAddr: 0x19EBC, symBinAddr: 0x1000548F8, symSize: 0x24 }
  - { offsetInCU: 0x18512, offset: 0xC3E1A, size: 0x8, addend: 0x0, symName: __ZNSt3__112__hash_tableIP4NodeNS_4hashIS2_EENS_8equal_toIS2_EENS_9allocatorIS2_EEE5beginEv, symObjAddr: 0x1B818, symBinAddr: 0x10005491C, symSize: 0x23C }
  - { offsetInCU: 0x1853B, offset: 0xC3E43, size: 0x8, addend: 0x0, symName: __ZNSt3__121__hash_const_iteratorIPNS_11__hash_nodeIP4NodePvEEEC1B8ue170006ERKNS_15__hash_iteratorIS6_EE, symObjAddr: 0x1BA54, symBinAddr: 0x100054B58, symSize: 0x34 }
  - { offsetInCU: 0x18574, offset: 0xC3E7C, size: 0x8, addend: 0x0, symName: __ZNSt3__115__hash_iteratorIPNS_11__hash_nodeIP4NodePvEEEC1B8ue170006EPNS_16__hash_node_baseIS6_EE, symObjAddr: 0x1BA88, symBinAddr: 0x100054B8C, symSize: 0x34 }
  - { offsetInCU: 0x185AD, offset: 0xC3EB5, size: 0x8, addend: 0x0, symName: __ZNSt3__115__hash_iteratorIPNS_11__hash_nodeIP4NodePvEEEC2B8ue170006EPNS_16__hash_node_baseIS6_EE, symObjAddr: 0x1BABC, symBinAddr: 0x100054BC0, symSize: 0x70 }
  - { offsetInCU: 0x185E6, offset: 0xC3EEE, size: 0x8, addend: 0x0, symName: __ZNSt3__121__hash_const_iteratorIPNS_11__hash_nodeIP4NodePvEEEC2B8ue170006ERKNS_15__hash_iteratorIS6_EE, symObjAddr: 0x1BB2C, symBinAddr: 0x100054C30, symSize: 0xB0 }
  - { offsetInCU: 0x1861F, offset: 0xC3F27, size: 0x8, addend: 0x0, symName: __ZNSt3__112__hash_tableIP4NodeNS_4hashIS2_EENS_8equal_toIS2_EENS_9allocatorIS2_EEE3endEv, symObjAddr: 0x1BBDC, symBinAddr: 0x100054CE0, symSize: 0x1F8 }
  - { offsetInCU: 0x18661, offset: 0xC3F69, size: 0x8, addend: 0x0, symName: __ZNSt3__113unordered_setIP4NodeNS_4hashIS2_EENS_8equal_toIS2_EENS_9allocatorIS2_EEEC2B8ue170006Ev, symObjAddr: 0x22E6C, symBinAddr: 0x100054F90, symSize: 0x2C }
  - { offsetInCU: 0x1868B, offset: 0xC3F93, size: 0x8, addend: 0x0, symName: __ZNSt3__112__hash_tableIP4NodeNS_4hashIS2_EENS_8equal_toIS2_EENS_9allocatorIS2_EEEC1Ev, symObjAddr: 0x22E98, symBinAddr: 0x100054FBC, symSize: 0x2C }
  - { offsetInCU: 0x186B7, offset: 0xC3FBF, size: 0x8, addend: 0x0, symName: __ZNSt3__112__hash_tableIP4NodeNS_4hashIS2_EENS_8equal_toIS2_EENS_9allocatorIS2_EEEC2Ev, symObjAddr: 0x22EC4, symBinAddr: 0x100054FE8, symSize: 0x38C }
  - { offsetInCU: 0x186E4, offset: 0xC3FEC, size: 0x8, addend: 0x0, symName: __ZNSt3__110unique_ptrIA_PNS_16__hash_node_baseIPNS_11__hash_nodeIP4NodePvEEEENS_25__bucket_list_deallocatorINS_9allocatorIS9_EEEEEC1B8ue170006ILb1EvEEv, symObjAddr: 0x23250, symBinAddr: 0x100055374, symSize: 0x2C }
  - { offsetInCU: 0x18719, offset: 0xC4021, size: 0x8, addend: 0x0, symName: __ZNSt3__117__compressed_pairINS_16__hash_node_baseIPNS_11__hash_nodeIP4NodePvEEEENS_9allocatorIS6_EEEC1B8ue170006ILb1EvEEv, symObjAddr: 0x2327C, symBinAddr: 0x1000553A0, symSize: 0x2C }
  - { offsetInCU: 0x1874E, offset: 0xC4056, size: 0x8, addend: 0x0, symName: __ZNSt3__117__compressed_pairImNS_4hashIP4NodeEEEC1B8ue170006IiNS_18__default_init_tagEEEOT_OT0_, symObjAddr: 0x232A8, symBinAddr: 0x1000553CC, symSize: 0x3C }
  - { offsetInCU: 0x187A6, offset: 0xC40AE, size: 0x8, addend: 0x0, symName: __ZNSt3__117__compressed_pairIfNS_8equal_toIP4NodeEEEC1B8ue170006IfNS_18__default_init_tagEEEOT_OT0_, symObjAddr: 0x232E4, symBinAddr: 0x100055408, symSize: 0x3C }
  - { offsetInCU: 0x187FE, offset: 0xC4106, size: 0x8, addend: 0x0, symName: __ZNSt3__110unique_ptrIA_PNS_16__hash_node_baseIPNS_11__hash_nodeIP4NodePvEEEENS_25__bucket_list_deallocatorINS_9allocatorIS9_EEEEEC2B8ue170006ILb1EvEEv, symObjAddr: 0x23320, symBinAddr: 0x100055444, symSize: 0x200 }
  - { offsetInCU: 0x18834, offset: 0xC413C, size: 0x8, addend: 0x0, symName: __ZNSt3__117__compressed_pairIPPNS_16__hash_node_baseIPNS_11__hash_nodeIP4NodePvEEEENS_25__bucket_list_deallocatorINS_9allocatorIS9_EEEEEC1B8ue170006INS_16__value_init_tagESH_EEOT_OT0_, symObjAddr: 0x23520, symBinAddr: 0x100055644, symSize: 0x3C }
  - { offsetInCU: 0x1888C, offset: 0xC4194, size: 0x8, addend: 0x0, symName: __ZNSt3__117__compressed_pairIPPNS_16__hash_node_baseIPNS_11__hash_nodeIP4NodePvEEEENS_25__bucket_list_deallocatorINS_9allocatorIS9_EEEEEC2B8ue170006INS_16__value_init_tagESH_EEOT_OT0_, symObjAddr: 0x2355C, symBinAddr: 0x100055680, symSize: 0x40 }
  - { offsetInCU: 0x188E4, offset: 0xC41EC, size: 0x8, addend: 0x0, symName: __ZNSt3__122__compressed_pair_elemIPPNS_16__hash_node_baseIPNS_11__hash_nodeIP4NodePvEEEELi0ELb0EEC2B8ue170006ENS_16__value_init_tagE, symObjAddr: 0x2359C, symBinAddr: 0x1000556C0, symSize: 0x60 }
  - { offsetInCU: 0x18918, offset: 0xC4220, size: 0x8, addend: 0x0, symName: __ZNSt3__122__compressed_pair_elemINS_25__bucket_list_deallocatorINS_9allocatorIPNS_16__hash_node_baseIPNS_11__hash_nodeIP4NodePvEEEEEEEELi1ELb0EEC2B8ue170006ENS_16__value_init_tagE, symObjAddr: 0x235FC, symBinAddr: 0x100055720, symSize: 0x2C }
  - { offsetInCU: 0x1894C, offset: 0xC4254, size: 0x8, addend: 0x0, symName: __ZNSt3__125__bucket_list_deallocatorINS_9allocatorIPNS_16__hash_node_baseIPNS_11__hash_nodeIP4NodePvEEEEEEEC1B8ue170006Ev, symObjAddr: 0x23628, symBinAddr: 0x10005574C, symSize: 0x2C }
  - { offsetInCU: 0x18976, offset: 0xC427E, size: 0x8, addend: 0x0, symName: __ZNSt3__125__bucket_list_deallocatorINS_9allocatorIPNS_16__hash_node_baseIPNS_11__hash_nodeIP4NodePvEEEEEEEC2B8ue170006Ev, symObjAddr: 0x23654, symBinAddr: 0x100055778, symSize: 0x270 }
  - { offsetInCU: 0x189A1, offset: 0xC42A9, size: 0x8, addend: 0x0, symName: __ZNSt3__117__compressed_pairImNS_9allocatorIPNS_16__hash_node_baseIPNS_11__hash_nodeIP4NodePvEEEEEEEC1B8ue170006IiNS_18__default_init_tagEEEOT_OT0_, symObjAddr: 0x238C4, symBinAddr: 0x1000559E8, symSize: 0x3C }
  - { offsetInCU: 0x189F9, offset: 0xC4301, size: 0x8, addend: 0x0, symName: __ZNSt3__117__compressed_pairImNS_9allocatorIPNS_16__hash_node_baseIPNS_11__hash_nodeIP4NodePvEEEEEEEC2B8ue170006IiNS_18__default_init_tagEEEOT_OT0_, symObjAddr: 0x23900, symBinAddr: 0x100055A24, symSize: 0x40 }
  - { offsetInCU: 0x18A51, offset: 0xC4359, size: 0x8, addend: 0x0, symName: __ZNSt3__122__compressed_pair_elemINS_9allocatorIPNS_16__hash_node_baseIPNS_11__hash_nodeIP4NodePvEEEEEELi1ELb1EEC2B8ue170006ENS_18__default_init_tagE, symObjAddr: 0x23940, symBinAddr: 0x100055A64, symSize: 0x2C }
  - { offsetInCU: 0x18A85, offset: 0xC438D, size: 0x8, addend: 0x0, symName: __ZNSt3__19allocatorIPNS_16__hash_node_baseIPNS_11__hash_nodeIP4NodePvEEEEEC2B8ue170006Ev, symObjAddr: 0x2396C, symBinAddr: 0x100055A90, symSize: 0x2C }
  - { offsetInCU: 0x18AAF, offset: 0xC43B7, size: 0x8, addend: 0x0, symName: __ZNSt3__116__non_trivial_ifILb1ENS_9allocatorIPNS_16__hash_node_baseIPNS_11__hash_nodeIP4NodePvEEEEEEEC2B8ue170006Ev, symObjAddr: 0x23998, symBinAddr: 0x100055ABC, symSize: 0x14 }
  - { offsetInCU: 0x18AD9, offset: 0xC43E1, size: 0x8, addend: 0x0, symName: __ZNSt3__117__compressed_pairINS_16__hash_node_baseIPNS_11__hash_nodeIP4NodePvEEEENS_9allocatorIS6_EEEC2B8ue170006ILb1EvEEv, symObjAddr: 0x239AC, symBinAddr: 0x100055AD0, symSize: 0x34 }
  - { offsetInCU: 0x18B0E, offset: 0xC4416, size: 0x8, addend: 0x0, symName: __ZNSt3__122__compressed_pair_elemINS_16__hash_node_baseIPNS_11__hash_nodeIP4NodePvEEEELi0ELb0EEC2B8ue170006ENS_16__value_init_tagE, symObjAddr: 0x239E0, symBinAddr: 0x100055B04, symSize: 0x2C }
  - { offsetInCU: 0x18B42, offset: 0xC444A, size: 0x8, addend: 0x0, symName: __ZNSt3__122__compressed_pair_elemINS_9allocatorINS_11__hash_nodeIP4NodePvEEEELi1ELb1EEC2B8ue170006ENS_16__value_init_tagE, symObjAddr: 0x23A0C, symBinAddr: 0x100055B30, symSize: 0x2C }
  - { offsetInCU: 0x18B76, offset: 0xC447E, size: 0x8, addend: 0x0, symName: __ZNSt3__116__hash_node_baseIPNS_11__hash_nodeIP4NodePvEEEC1B8ue170006Ev, symObjAddr: 0x23A38, symBinAddr: 0x100055B5C, symSize: 0x2C }
  - { offsetInCU: 0x18BA0, offset: 0xC44A8, size: 0x8, addend: 0x0, symName: __ZNSt3__116__hash_node_baseIPNS_11__hash_nodeIP4NodePvEEEC2B8ue170006Ev, symObjAddr: 0x23A64, symBinAddr: 0x100055B88, symSize: 0x60 }
  - { offsetInCU: 0x18BCA, offset: 0xC44D2, size: 0x8, addend: 0x0, symName: __ZNSt3__19allocatorINS_11__hash_nodeIP4NodePvEEEC2B8ue170006Ev, symObjAddr: 0x23AC4, symBinAddr: 0x100055BE8, symSize: 0x2C }
  - { offsetInCU: 0x18BF4, offset: 0xC44FC, size: 0x8, addend: 0x0, symName: __ZNSt3__116__non_trivial_ifILb1ENS_9allocatorINS_11__hash_nodeIP4NodePvEEEEEC2B8ue170006Ev, symObjAddr: 0x23AF0, symBinAddr: 0x100055C14, symSize: 0x14 }
  - { offsetInCU: 0x18C1E, offset: 0xC4526, size: 0x8, addend: 0x0, symName: __ZNSt3__117__compressed_pairImNS_4hashIP4NodeEEEC2B8ue170006IiNS_18__default_init_tagEEEOT_OT0_, symObjAddr: 0x23B04, symBinAddr: 0x100055C28, symSize: 0x40 }
  - { offsetInCU: 0x18C76, offset: 0xC457E, size: 0x8, addend: 0x0, symName: __ZNSt3__122__compressed_pair_elemINS_4hashIP4NodeEELi1ELb1EEC2B8ue170006ENS_18__default_init_tagE, symObjAddr: 0x23B44, symBinAddr: 0x100055C68, symSize: 0x14 }
  - { offsetInCU: 0x18CAA, offset: 0xC45B2, size: 0x8, addend: 0x0, symName: __ZNSt3__117__compressed_pairIfNS_8equal_toIP4NodeEEEC2B8ue170006IfNS_18__default_init_tagEEEOT_OT0_, symObjAddr: 0x23B58, symBinAddr: 0x100055C7C, symSize: 0x40 }
  - { offsetInCU: 0x18D02, offset: 0xC460A, size: 0x8, addend: 0x0, symName: __ZNSt3__122__compressed_pair_elemINS_8equal_toIP4NodeEELi1ELb1EEC2B8ue170006ENS_18__default_init_tagE, symObjAddr: 0x23B98, symBinAddr: 0x100055CBC, symSize: 0x14 }
  - { offsetInCU: 0x18D36, offset: 0xC463E, size: 0x8, addend: 0x0, symName: __ZNKSt3__112__hash_tableIP4NodeNS_4hashIS2_EENS_8equal_toIS2_EENS_9allocatorIS2_EEE14__count_uniqueIS2_EEmRKT_, symObjAddr: 0x23BAC, symBinAddr: 0x100055CD0, symSize: 0x2C0 }
  - { offsetInCU: 0x18D78, offset: 0xC4680, size: 0x8, addend: 0x0, symName: __ZNKSt3__112__hash_tableIP4NodeNS_4hashIS2_EENS_8equal_toIS2_EENS_9allocatorIS2_EEE4findIS2_EENS_21__hash_const_iteratorIPNS_11__hash_nodeIS2_PvEEEERKT_, symObjAddr: 0x23E6C, symBinAddr: 0x100055F90, symSize: 0x4CC }
  - { offsetInCU: 0x18E00, offset: 0xC4708, size: 0x8, addend: 0x0, symName: __ZNKSt3__112__hash_tableIP4NodeNS_4hashIS2_EENS_8equal_toIS2_EENS_9allocatorIS2_EEE3endEv, symObjAddr: 0x24338, symBinAddr: 0x10005645C, symSize: 0x1F8 }
  - { offsetInCU: 0x18E29, offset: 0xC4731, size: 0x8, addend: 0x0, symName: __ZNKSt3__112__hash_tableIP4NodeNS_4hashIS2_EENS_8equal_toIS2_EENS_9allocatorIS2_EEE13hash_functionB8ue170006Ev, symObjAddr: 0x24530, symBinAddr: 0x100056654, symSize: 0x28 }
  - { offsetInCU: 0x18E4F, offset: 0xC4757, size: 0x8, addend: 0x0, symName: __ZNKSt3__112__hash_tableIP4NodeNS_4hashIS2_EENS_8equal_toIS2_EENS_9allocatorIS2_EEE6key_eqB8ue170006Ev, symObjAddr: 0x24558, symBinAddr: 0x10005667C, symSize: 0x28 }
  - { offsetInCU: 0x18E75, offset: 0xC477D, size: 0x8, addend: 0x0, symName: __ZNSt3__121__hash_const_iteratorIPNS_11__hash_nodeIP4NodePvEEEC1B8ue170006EPNS_16__hash_node_baseIS6_EE, symObjAddr: 0x24580, symBinAddr: 0x1000566A4, symSize: 0x34 }
  - { offsetInCU: 0x18EAE, offset: 0xC47B6, size: 0x8, addend: 0x0, symName: __ZNKSt3__117__compressed_pairImNS_4hashIP4NodeEEE6secondB8ue170006Ev, symObjAddr: 0x245B4, symBinAddr: 0x1000566D8, symSize: 0x24 }
  - { offsetInCU: 0x18ED4, offset: 0xC47DC, size: 0x8, addend: 0x0, symName: __ZNKSt3__122__compressed_pair_elemINS_4hashIP4NodeEELi1ELb1EE5__getB8ue170006Ev, symObjAddr: 0x245D8, symBinAddr: 0x1000566FC, symSize: 0x14 }
  - { offsetInCU: 0x18EFA, offset: 0xC4802, size: 0x8, addend: 0x0, symName: __ZNKSt3__117__compressed_pairIfNS_8equal_toIP4NodeEEE6secondB8ue170006Ev, symObjAddr: 0x245EC, symBinAddr: 0x100056710, symSize: 0x24 }
  - { offsetInCU: 0x18F20, offset: 0xC4828, size: 0x8, addend: 0x0, symName: __ZNKSt3__122__compressed_pair_elemINS_8equal_toIP4NodeEELi1ELb1EE5__getB8ue170006Ev, symObjAddr: 0x24610, symBinAddr: 0x100056734, symSize: 0x14 }
  - { offsetInCU: 0x18F46, offset: 0xC484E, size: 0x8, addend: 0x0, symName: __ZNSt3__121__hash_const_iteratorIPNS_11__hash_nodeIP4NodePvEEEC2B8ue170006EPNS_16__hash_node_baseIS6_EE, symObjAddr: 0x24624, symBinAddr: 0x100056748, symSize: 0x70 }
  - { offsetInCU: 0x18F7F, offset: 0xC4887, size: 0x8, addend: 0x0, symName: __ZNSt3__112__hash_tableIP4NodeNS_4hashIS2_EENS_8equal_toIS2_EENS_9allocatorIS2_EEE15__insert_uniqueB8ue170006ERKS2_, symObjAddr: 0x24694, symBinAddr: 0x1000567B8, symSize: 0x238 }
  - { offsetInCU: 0x18FB6, offset: 0xC48BE, size: 0x8, addend: 0x0, symName: __ZNSt3__14pairINS_21__hash_const_iteratorIPNS_11__hash_nodeIP4NodePvEEEEbEC1B8ue170006INS_15__hash_iteratorIS7_EEbLS5_0EEEONS0_IT_T0_EE, symObjAddr: 0x248CC, symBinAddr: 0x1000569F0, symSize: 0x34 }
  - { offsetInCU: 0x19007, offset: 0xC490F, size: 0x8, addend: 0x0, symName: __ZNSt3__112__hash_tableIP4NodeNS_4hashIS2_EENS_8equal_toIS2_EENS_9allocatorIS2_EEE25__emplace_unique_key_argsIS2_JRKS2_EEENS_4pairINS_15__hash_iteratorIPNS_11__hash_nodeIS2_PvEEEEbEERKT_DpOT0_, symObjAddr: 0x24900, symBinAddr: 0x100056A24, symSize: 0xE10 }
  - { offsetInCU: 0x190F1, offset: 0xC49F9, size: 0x8, addend: 0x0, symName: __ZNSt3__122__hash_key_value_typesIP4NodeE9__get_keyB8ue170006ERKS2_, symObjAddr: 0x25710, symBinAddr: 0x100057834, symSize: 0x14 }
  - { offsetInCU: 0x19114, offset: 0xC4A1C, size: 0x8, addend: 0x0, symName: __ZNSt3__112__hash_tableIP4NodeNS_4hashIS2_EENS_8equal_toIS2_EENS_9allocatorIS2_EEE21__construct_node_hashIRKS2_JEEENS_10unique_ptrINS_11__hash_nodeIS2_PvEENS_22__hash_node_destructorINS7_ISG_EEEEEEmOT_DpOT0_, symObjAddr: 0x25724, symBinAddr: 0x100057848, symSize: 0x410 }
  - { offsetInCU: 0x1918C, offset: 0xC4A94, size: 0x8, addend: 0x0, symName: __ZNSt3__112__hash_tableIP4NodeNS_4hashIS2_EENS_8equal_toIS2_EENS_9allocatorIS2_EEE15__rehash_uniqueB8ue170006Em, symObjAddr: 0x25B34, symBinAddr: 0x100057C58, symSize: 0x2C }
  - { offsetInCU: 0x191C1, offset: 0xC4AC9, size: 0x8, addend: 0x0, symName: __ZNKSt3__110unique_ptrINS_11__hash_nodeIP4NodePvEENS_22__hash_node_destructorINS_9allocatorIS5_EEEEEptB8ue170006Ev, symObjAddr: 0x25B60, symBinAddr: 0x100057C84, symSize: 0x6C }
  - { offsetInCU: 0x191E7, offset: 0xC4AEF, size: 0x8, addend: 0x0, symName: __ZNKSt3__110unique_ptrINS_11__hash_nodeIP4NodePvEENS_22__hash_node_destructorINS_9allocatorIS5_EEEEE3getB8ue170006Ev, symObjAddr: 0x25BCC, symBinAddr: 0x100057CF0, symSize: 0x6C }
  - { offsetInCU: 0x1920D, offset: 0xC4B15, size: 0x8, addend: 0x0, symName: __ZNSt3__110unique_ptrINS_11__hash_nodeIP4NodePvEENS_22__hash_node_destructorINS_9allocatorIS5_EEEEE7releaseB8ue170006Ev, symObjAddr: 0x25C38, symBinAddr: 0x100057D5C, symSize: 0xB8 }
  - { offsetInCU: 0x19242, offset: 0xC4B4A, size: 0x8, addend: 0x0, symName: __ZNSt3__110unique_ptrINS_11__hash_nodeIP4NodePvEENS_22__hash_node_destructorINS_9allocatorIS5_EEEEED1B8ue170006Ev, symObjAddr: 0x25CF0, symBinAddr: 0x100057E14, symSize: 0x2C }
  - { offsetInCU: 0x19271, offset: 0xC4B79, size: 0x8, addend: 0x0, symName: __ZNSt3__14pairINS_15__hash_iteratorIPNS_11__hash_nodeIP4NodePvEEEEbEC1B8ue170006IS8_RbLS5_0EEEOT_OT0_, symObjAddr: 0x25D1C, symBinAddr: 0x100057E40, symSize: 0x3C }
  - { offsetInCU: 0x192CF, offset: 0xC4BD7, size: 0x8, addend: 0x0, symName: __ZNSt3__116allocator_traitsINS_9allocatorINS_11__hash_nodeIP4NodePvEEEEE8allocateB8ue170006ERS7_m, symObjAddr: 0x25D58, symBinAddr: 0x100057E7C, symSize: 0x2C }
  - { offsetInCU: 0x19302, offset: 0xC4C0A, size: 0x8, addend: 0x0, symName: __ZNSt3__122__hash_node_destructorINS_9allocatorINS_11__hash_nodeIP4NodePvEEEEEC1B8ue170006ERS7_b, symObjAddr: 0x25D84, symBinAddr: 0x100057EA8, symSize: 0x48 }
  - { offsetInCU: 0x1934F, offset: 0xC4C57, size: 0x8, addend: 0x0, symName: __ZNSt3__110unique_ptrINS_11__hash_nodeIP4NodePvEENS_22__hash_node_destructorINS_9allocatorIS5_EEEEEC1B8ue170006ILb1EvEEPS5_NS_16__dependent_typeINS_27__unique_ptr_deleter_sfinaeIS9_EEXT_EE20__good_rval_ref_typeE, symObjAddr: 0x25DCC, symBinAddr: 0x100057EF0, symSize: 0x3C }
  - { offsetInCU: 0x193A0, offset: 0xC4CA8, size: 0x8, addend: 0x0, symName: __ZNSt3__116allocator_traitsINS_9allocatorINS_11__hash_nodeIP4NodePvEEEEE9constructB8ue170006IS4_JRKS4_EvEEvRS7_PT_DpOT0_, symObjAddr: 0x25E08, symBinAddr: 0x100057F2C, symSize: 0x34 }
  - { offsetInCU: 0x193F7, offset: 0xC4CFF, size: 0x8, addend: 0x0, symName: __ZNSt3__110unique_ptrINS_11__hash_nodeIP4NodePvEENS_22__hash_node_destructorINS_9allocatorIS5_EEEEE11get_deleterB8ue170006Ev, symObjAddr: 0x25E3C, symBinAddr: 0x100057F60, symSize: 0x24 }
  - { offsetInCU: 0x1941D, offset: 0xC4D25, size: 0x8, addend: 0x0, symName: __ZNSt3__19allocatorINS_11__hash_nodeIP4NodePvEEE8allocateB8ue170006Em, symObjAddr: 0x25E60, symBinAddr: 0x100057F84, symSize: 0x60 }
  - { offsetInCU: 0x1945B, offset: 0xC4D63, size: 0x8, addend: 0x0, symName: __ZNSt3__116allocator_traitsINS_9allocatorINS_11__hash_nodeIP4NodePvEEEEE8max_sizeB8ue170006IS7_vEEmRKS7_, symObjAddr: 0x25EC0, symBinAddr: 0x100057FE4, symSize: 0x24 }
  - { offsetInCU: 0x19489, offset: 0xC4D91, size: 0x8, addend: 0x0, symName: __ZNKSt3__19allocatorINS_11__hash_nodeIP4NodePvEEE8max_sizeB8ue170006Ev, symObjAddr: 0x25EE4, symBinAddr: 0x100058008, symSize: 0x18 }
  - { offsetInCU: 0x194AF, offset: 0xC4DB7, size: 0x8, addend: 0x0, symName: __ZNSt3__122__hash_node_destructorINS_9allocatorINS_11__hash_nodeIP4NodePvEEEEEC2B8ue170006ERS7_b, symObjAddr: 0x25EFC, symBinAddr: 0x100058020, symSize: 0xF0 }
  - { offsetInCU: 0x194F7, offset: 0xC4DFF, size: 0x8, addend: 0x0, symName: __ZNSt3__110unique_ptrINS_11__hash_nodeIP4NodePvEENS_22__hash_node_destructorINS_9allocatorIS5_EEEEEC2B8ue170006ILb1EvEEPS5_NS_16__dependent_typeINS_27__unique_ptr_deleter_sfinaeIS9_EEXT_EE20__good_rval_ref_typeE, symObjAddr: 0x25FEC, symBinAddr: 0x100058110, symSize: 0x21C }
  - { offsetInCU: 0x1954E, offset: 0xC4E56, size: 0x8, addend: 0x0, symName: __ZNSt3__117__compressed_pairIPNS_11__hash_nodeIP4NodePvEENS_22__hash_node_destructorINS_9allocatorIS5_EEEEEC1B8ue170006IRS6_SA_EEOT_OT0_, symObjAddr: 0x26208, symBinAddr: 0x10005832C, symSize: 0x3C }
  - { offsetInCU: 0x195A6, offset: 0xC4EAE, size: 0x8, addend: 0x0, symName: __ZNSt3__117__compressed_pairIPNS_11__hash_nodeIP4NodePvEENS_22__hash_node_destructorINS_9allocatorIS5_EEEEEC2B8ue170006IRS6_SA_EEOT_OT0_, symObjAddr: 0x26244, symBinAddr: 0x100058368, symSize: 0x48 }
  - { offsetInCU: 0x195FE, offset: 0xC4F06, size: 0x8, addend: 0x0, symName: __ZNSt3__122__compressed_pair_elemIPNS_11__hash_nodeIP4NodePvEELi0ELb0EEC2B8ue170006IRS6_vEEOT_, symObjAddr: 0x2628C, symBinAddr: 0x1000583B0, symSize: 0xB0 }
  - { offsetInCU: 0x19640, offset: 0xC4F48, size: 0x8, addend: 0x0, symName: __ZNSt3__122__compressed_pair_elemINS_22__hash_node_destructorINS_9allocatorINS_11__hash_nodeIP4NodePvEEEEEELi1ELb0EEC2B8ue170006IS9_vEEOT_, symObjAddr: 0x2633C, symBinAddr: 0x100058460, symSize: 0x38 }
  - { offsetInCU: 0x19682, offset: 0xC4F8A, size: 0x8, addend: 0x0, symName: __ZNSt3__19allocatorINS_11__hash_nodeIP4NodePvEEE9constructB8ue170006IS3_JRKS3_EEEvPT_DpOT0_, symObjAddr: 0x26374, symBinAddr: 0x100058498, symSize: 0xB4 }
  - { offsetInCU: 0x196D8, offset: 0xC4FE0, size: 0x8, addend: 0x0, symName: __ZNSt3__117__compressed_pairIPNS_11__hash_nodeIP4NodePvEENS_22__hash_node_destructorINS_9allocatorIS5_EEEEE6secondB8ue170006Ev, symObjAddr: 0x26428, symBinAddr: 0x10005854C, symSize: 0x28 }
  - { offsetInCU: 0x196FE, offset: 0xC5006, size: 0x8, addend: 0x0, symName: __ZNSt3__122__compressed_pair_elemINS_22__hash_node_destructorINS_9allocatorINS_11__hash_nodeIP4NodePvEEEEEELi1ELb0EE5__getB8ue170006Ev, symObjAddr: 0x26450, symBinAddr: 0x100058574, symSize: 0x14 }
  - { offsetInCU: 0x19724, offset: 0xC502C, size: 0x8, addend: 0x0, symName: __ZNSt3__112__hash_tableIP4NodeNS_4hashIS2_EENS_8equal_toIS2_EENS_9allocatorIS2_EEE8__rehashILb1EEEvm, symObjAddr: 0x26464, symBinAddr: 0x100058588, symSize: 0x784 }
  - { offsetInCU: 0x1977A, offset: 0xC5082, size: 0x8, addend: 0x0, symName: __ZNSt3__112__hash_tableIP4NodeNS_4hashIS2_EENS_8equal_toIS2_EENS_9allocatorIS2_EEE11__do_rehashILb1EEEvm, symObjAddr: 0x26BE8, symBinAddr: 0x100058D0C, symSize: 0x5BC }
  - { offsetInCU: 0x1985F, offset: 0xC5167, size: 0x8, addend: 0x0, symName: __ZNSt3__116allocator_traitsINS_9allocatorIPNS_16__hash_node_baseIPNS_11__hash_nodeIP4NodePvEEEEEEE8allocateB8ue170006ERSB_m, symObjAddr: 0x271A4, symBinAddr: 0x1000592C8, symSize: 0x2C }
  - { offsetInCU: 0x19892, offset: 0xC519A, size: 0x8, addend: 0x0, symName: __ZNSt3__19allocatorIPNS_16__hash_node_baseIPNS_11__hash_nodeIP4NodePvEEEEE8allocateB8ue170006Em, symObjAddr: 0x271D0, symBinAddr: 0x1000592F4, symSize: 0x5C }
  - { offsetInCU: 0x198D0, offset: 0xC51D8, size: 0x8, addend: 0x0, symName: __ZNSt3__116allocator_traitsINS_9allocatorIPNS_16__hash_node_baseIPNS_11__hash_nodeIP4NodePvEEEEEEE8max_sizeB8ue170006ISB_vEEmRKSB_, symObjAddr: 0x2722C, symBinAddr: 0x100059350, symSize: 0x24 }
  - { offsetInCU: 0x198FE, offset: 0xC5206, size: 0x8, addend: 0x0, symName: __ZNKSt3__19allocatorIPNS_16__hash_node_baseIPNS_11__hash_nodeIP4NodePvEEEEE8max_sizeB8ue170006Ev, symObjAddr: 0x27250, symBinAddr: 0x100059374, symSize: 0x14 }
  - { offsetInCU: 0x19924, offset: 0xC522C, size: 0x8, addend: 0x0, symName: __ZNKSt3__117__compressed_pairIPNS_11__hash_nodeIP4NodePvEENS_22__hash_node_destructorINS_9allocatorIS5_EEEEE5firstB8ue170006Ev, symObjAddr: 0x27264, symBinAddr: 0x100059388, symSize: 0x24 }
  - { offsetInCU: 0x1994A, offset: 0xC5252, size: 0x8, addend: 0x0, symName: __ZNKSt3__122__compressed_pair_elemIPNS_11__hash_nodeIP4NodePvEELi0ELb0EE5__getB8ue170006Ev, symObjAddr: 0x27288, symBinAddr: 0x1000593AC, symSize: 0x14 }
  - { offsetInCU: 0x19970, offset: 0xC5278, size: 0x8, addend: 0x0, symName: __ZNSt3__117__compressed_pairIPNS_11__hash_nodeIP4NodePvEENS_22__hash_node_destructorINS_9allocatorIS5_EEEEE5firstB8ue170006Ev, symObjAddr: 0x2729C, symBinAddr: 0x1000593C0, symSize: 0x24 }
  - { offsetInCU: 0x19996, offset: 0xC529E, size: 0x8, addend: 0x0, symName: __ZNSt3__122__compressed_pair_elemIPNS_11__hash_nodeIP4NodePvEELi0ELb0EE5__getB8ue170006Ev, symObjAddr: 0x272C0, symBinAddr: 0x1000593E4, symSize: 0x14 }
  - { offsetInCU: 0x199BC, offset: 0xC52C4, size: 0x8, addend: 0x0, symName: __ZNSt3__110unique_ptrINS_11__hash_nodeIP4NodePvEENS_22__hash_node_destructorINS_9allocatorIS5_EEEEED2B8ue170006Ev, symObjAddr: 0x272D4, symBinAddr: 0x1000593F8, symSize: 0x30 }
  - { offsetInCU: 0x199E6, offset: 0xC52EE, size: 0x8, addend: 0x0, symName: __ZNSt3__110unique_ptrINS_11__hash_nodeIP4NodePvEENS_22__hash_node_destructorINS_9allocatorIS5_EEEEE5resetB8ue170006EPS5_, symObjAddr: 0x27304, symBinAddr: 0x100059428, symSize: 0xEC }
  - { offsetInCU: 0x19A2A, offset: 0xC5332, size: 0x8, addend: 0x0, symName: __ZNSt3__122__hash_node_destructorINS_9allocatorINS_11__hash_nodeIP4NodePvEEEEEclB8ue170006EPS6_, symObjAddr: 0x273F0, symBinAddr: 0x100059514, symSize: 0x14C }
  - { offsetInCU: 0x19A5F, offset: 0xC5367, size: 0x8, addend: 0x0, symName: __ZNSt3__14pairINS_15__hash_iteratorIPNS_11__hash_nodeIP4NodePvEEEEbEC2B8ue170006IS8_RbLS5_0EEEOT_OT0_, symObjAddr: 0x2753C, symBinAddr: 0x100059660, symSize: 0x120 }
  - { offsetInCU: 0x19ABD, offset: 0xC53C5, size: 0x8, addend: 0x0, symName: __ZNSt3__14pairINS_21__hash_const_iteratorIPNS_11__hash_nodeIP4NodePvEEEEbEC2B8ue170006INS_15__hash_iteratorIS7_EEbLS5_0EEEONS0_IT_T0_EE, symObjAddr: 0x2765C, symBinAddr: 0x100059780, symSize: 0x11C }
  - { offsetInCU: 0x3B, offset: 0xC5536, size: 0x8, addend: 0x0, symName: _.str, symObjAddr: 0x2D00, symBinAddr: 0x1000B5100, symSize: 0x0 }
  - { offsetInCU: 0x6B, offset: 0xC5566, size: 0x8, addend: 0x0, symName: _.str.1, symObjAddr: 0x2D60, symBinAddr: 0x1000B5160, symSize: 0x0 }
  - { offsetInCU: 0x88, offset: 0xC5583, size: 0x8, addend: 0x0, symName: _.str.2, symObjAddr: 0x2D80, symBinAddr: 0x1000B5180, symSize: 0x0 }
  - { offsetInCU: 0xA5, offset: 0xC55A0, size: 0x8, addend: 0x0, symName: _.str.3, symObjAddr: 0x2DA0, symBinAddr: 0x1000B51A0, symSize: 0x0 }
  - { offsetInCU: 0xA087, offset: 0xCF582, size: 0x8, addend: 0x0, symName: __ZN4EdgeC2Ev, symObjAddr: 0x0, symBinAddr: 0x100059934, symSize: 0x88 }
  - { offsetInCU: 0xA0B3, offset: 0xCF5AE, size: 0x8, addend: 0x0, symName: __ZN4EdgeC1Ev, symObjAddr: 0x88, symBinAddr: 0x1000599BC, symSize: 0x2C }
  - { offsetInCU: 0xA0DF, offset: 0xCF5DA, size: 0x8, addend: 0x0, symName: __ZN4EdgeC2EP4NodeS1_, symObjAddr: 0xB4, symBinAddr: 0x1000599E8, symSize: 0x118 }
  - { offsetInCU: 0xA127, offset: 0xCF622, size: 0x8, addend: 0x0, symName: __ZN4EdgeC1EP4NodeS1_, symObjAddr: 0x1CC, symBinAddr: 0x100059B00, symSize: 0x3C }
  - { offsetInCU: 0xA16F, offset: 0xCF66A, size: 0x8, addend: 0x0, symName: __ZN4Edge10is_coveredEv, symObjAddr: 0x208, symBinAddr: 0x100059B3C, symSize: 0x8C }
  - { offsetInCU: 0xA196, offset: 0xCF691, size: 0x8, addend: 0x0, symName: __ZN4Edge5coverEv, symObjAddr: 0x294, symBinAddr: 0x100059BC8, symSize: 0x8C }
  - { offsetInCU: 0xA1BE, offset: 0xCF6B9, size: 0x8, addend: 0x0, symName: __ZN4Edge16to_connection_ofER4Node, symObjAddr: 0x320, symBinAddr: 0x100059C54, symSize: 0x51C }
  - { offsetInCU: 0xA255, offset: 0xCF750, size: 0x8, addend: 0x0, symName: __ZNKSt3__16vectorIP10ConnectionNS_9allocatorIS2_EEE4sizeB8ue170006Ev, symObjAddr: 0x83C, symBinAddr: 0x10005A170, symSize: 0xB0 }
  - { offsetInCU: 0xA27B, offset: 0xCF776, size: 0x8, addend: 0x0, symName: __ZNSt3__16vectorIP10ConnectionNS_9allocatorIS2_EEEixB8ue170006Em, symObjAddr: 0x8EC, symBinAddr: 0x10005A220, symSize: 0x6C }
  - { offsetInCU: 0xA2B2, offset: 0xCF7AD, size: 0x8, addend: 0x0, symName: __ZlsRNSt3__113basic_ostreamIcNS_11char_traitsIcEEEER4Edge, symObjAddr: 0xAA0, symBinAddr: 0x10005A28C, symSize: 0x10C }
  - { offsetInCU: 0x3B, offset: 0xCF870, size: 0x8, addend: 0x0, symName: _.str, symObjAddr: 0x33640, symBinAddr: 0x1000B51C0, symSize: 0x0 }
  - { offsetInCU: 0x6B, offset: 0xCF8A0, size: 0x8, addend: 0x0, symName: _.str.1, symObjAddr: 0x33680, symBinAddr: 0x1000B5200, symSize: 0x0 }
  - { offsetInCU: 0x88, offset: 0xCF8BD, size: 0x8, addend: 0x0, symName: _.str.2, symObjAddr: 0x336C0, symBinAddr: 0x1000B5240, symSize: 0x0 }
  - { offsetInCU: 0xA5, offset: 0xCF8DA, size: 0x8, addend: 0x0, symName: _.str.3, symObjAddr: 0x336E0, symBinAddr: 0x1000B5260, symSize: 0x0 }
  - { offsetInCU: 0xB7, offset: 0xCF8EC, size: 0x8, addend: 0x0, symName: _.str.4, symObjAddr: 0x33720, symBinAddr: 0x1000B52A0, symSize: 0x0 }
  - { offsetInCU: 0x14347, offset: 0xE3B7C, size: 0x8, addend: 0x0, symName: __ZNSt3__1lsB8ue170006IcNS_11char_traitsIcEENS_9allocatorIcEEEERNS_13basic_ostreamIT_T0_EES9_RKNS_12basic_stringIS6_S7_T1_EE, symObjAddr: 0x1618, symBinAddr: 0x10005B408, symSize: 0x4C }
  - { offsetInCU: 0x1439F, offset: 0xE3BD4, size: 0x8, addend: 0x0, symName: __ZNSt3__1rsB8ue170006IcNS_11char_traitsIcEENS_9allocatorIcEEEERNS_13basic_istreamIT_T0_EES9_RNS_12basic_stringIS6_S7_T1_EE, symObjAddr: 0x3D8C, symBinAddr: 0x10005D818, symSize: 0x990 }
  - { offsetInCU: 0x14478, offset: 0xE3CAD, size: 0x8, addend: 0x0, symName: __ZNSt3__1eqB8ue170006IcNS_11char_traitsIcEENS_9allocatorIcEEEEbRKNS_12basic_stringIT_T0_T1_EEPKS6_, symObjAddr: 0x471C, symBinAddr: 0x10005E1A8, symSize: 0xC8 }
  - { offsetInCU: 0x14FAB, offset: 0xE47E0, size: 0x8, addend: 0x0, symName: __ZNSt3__1eqB8ue170006ERKNS_19__hash_map_iteratorINS_15__hash_iteratorIPNS_11__hash_nodeINS_17__hash_value_typeIiiEEPvEEEEEESB_, symObjAddr: 0x483C, symBinAddr: 0x10005E2C8, symSize: 0x30 }
  - { offsetInCU: 0x14FE8, offset: 0xE481D, size: 0x8, addend: 0x0, symName: __ZNSt3__1neB8ue170006ERKNS_25__hash_map_const_iteratorINS_21__hash_const_iteratorIPNS_11__hash_nodeINS_17__hash_value_typeIP4NodeP4EdgeEEPvEEEEEESF_, symObjAddr: 0x6914, symBinAddr: 0x10005F968, symSize: 0x30 }
  - { offsetInCU: 0x15025, offset: 0xE485A, size: 0x8, addend: 0x0, symName: __ZNSt3__112__to_addressB8ue170006IP10ConnectionEEPT_S4_, symObjAddr: 0x84B8, symBinAddr: 0x100060958, symSize: 0x14 }
  - { offsetInCU: 0x1505A, offset: 0xE488F, size: 0x8, addend: 0x0, symName: __ZNSt3__112__to_addressB8ue170006IKcEEPT_S3_, symObjAddr: 0xDD10, symBinAddr: 0x1000611E8, symSize: 0x14 }
  - { offsetInCU: 0x15271, offset: 0xE4AA6, size: 0x8, addend: 0x0, symName: __ZNSt3__17launderB8ue170006INS_4pairIKiiEEEEPT_S5_, symObjAddr: 0x155BC, symBinAddr: 0x1000634A4, symSize: 0x24 }
  - { offsetInCU: 0x152A8, offset: 0xE4ADD, size: 0x8, addend: 0x0, symName: __ZNSt3__19__launderB8ue170006INS_4pairIKiiEEEEPT_S5_, symObjAddr: 0x155E0, symBinAddr: 0x1000634C8, symSize: 0x14 }
  - { offsetInCU: 0x152DF, offset: 0xE4B14, size: 0x8, addend: 0x0, symName: __ZNSt3__17launderB8ue170006IKNS_4pairIKiiEEEEPT_S6_, symObjAddr: 0x16908, symBinAddr: 0x100064744, symSize: 0x24 }
  - { offsetInCU: 0x15316, offset: 0xE4B4B, size: 0x8, addend: 0x0, symName: __ZNSt3__19__launderB8ue170006IKNS_4pairIKiiEEEEPT_S6_, symObjAddr: 0x1692C, symBinAddr: 0x100064768, symSize: 0x14 }
  - { offsetInCU: 0x1534D, offset: 0xE4B82, size: 0x8, addend: 0x0, symName: __ZNSt3__1eqB8ue170006ERKNS_15__hash_iteratorIPNS_11__hash_nodeINS_17__hash_value_typeIiiEEPvEEEES9_, symObjAddr: 0x16BB4, symBinAddr: 0x1000649F0, symSize: 0xB8 }
  - { offsetInCU: 0x1538A, offset: 0xE4BBF, size: 0x8, addend: 0x0, symName: __ZNSt3__116forward_as_tupleB8ue170006IJRKiEEENS_5tupleIJDpOT_EEES6_, symObjAddr: 0x17A70, symBinAddr: 0x1000658AC, symSize: 0x1F8 }
  - { offsetInCU: 0x153E2, offset: 0xE4C17, size: 0x8, addend: 0x0, symName: __ZNSt3__13getB8ue170006ILm0EJRKiEEERNS_13tuple_elementIXT_ENS_5tupleIJDpT0_EEEE4typeERS7_, symObjAddr: 0x1905C, symBinAddr: 0x100066E00, symSize: 0x24 }
  - { offsetInCU: 0x1546D, offset: 0xE4CA2, size: 0x8, addend: 0x0, symName: __ZNSt3__119__allocate_at_leastB8ue170006INS_9allocatorIP10ConnectionEEEENS_19__allocation_resultINS_16allocator_traitsIT_E7pointerEEERS7_m, symObjAddr: 0x23F00, symBinAddr: 0x10006A4B0, symSize: 0x28C }
  - { offsetInCU: 0x154B2, offset: 0xE4CE7, size: 0x8, addend: 0x0, symName: __ZNSt3__142__uninitialized_allocator_move_if_noexceptB8ue170006INS_9allocatorIP10ConnectionEENS_16reverse_iteratorIPS3_EES7_S3_vEET1_RT_T0_SB_S8_, symObjAddr: 0x24400, symBinAddr: 0x10006A9B0, symSize: 0x4A8 }
  - { offsetInCU: 0x1553C, offset: 0xE4D71, size: 0x8, addend: 0x0, symName: __ZNSt3__14swapB8ue170006IPP10ConnectionEENS_9enable_ifIXaasr21is_move_constructibleIT_EE5valuesr18is_move_assignableIS5_EE5valueEvE4typeERS5_S8_, symObjAddr: 0x24940, symBinAddr: 0x10006AEF0, symSize: 0x134 }
  - { offsetInCU: 0x1558D, offset: 0xE4DC2, size: 0x8, addend: 0x0, symName: __ZNSt3__14moveB8ue170006INS_16reverse_iteratorIPP10ConnectionEES5_EET0_T_S7_S6_, symObjAddr: 0x24B34, symBinAddr: 0x10006B0E4, symSize: 0x4B0 }
  - { offsetInCU: 0x155F4, offset: 0xE4E29, size: 0x8, addend: 0x0, symName: __ZNSt3__16__moveB8ue170006INS_17_ClassicAlgPolicyENS_16reverse_iteratorIPP10ConnectionEES6_S6_EENS_4pairIT0_T2_EES8_T1_S9_, symObjAddr: 0x24FE4, symBinAddr: 0x10006B594, symSize: 0x424 }
  - { offsetInCU: 0x1566C, offset: 0xE4EA1, size: 0x8, addend: 0x0, symName: __ZNSt3__123__dispatch_copy_or_moveB8ue170006INS_17_ClassicAlgPolicyENS_11__move_loopIS1_EENS_14__move_trivialENS_16reverse_iteratorIPP10ConnectionEES9_S9_EENS_4pairIT2_T4_EESB_T3_SC_, symObjAddr: 0x25408, symBinAddr: 0x10006B9B8, symSize: 0x424 }
  - { offsetInCU: 0x156F6, offset: 0xE4F2B, size: 0x8, addend: 0x0, symName: __ZNSt3__121__unwrap_and_dispatchB8ue170006INS_10__overloadINS_11__move_loopINS_17_ClassicAlgPolicyEEENS_14__move_trivialEEENS_16reverse_iteratorIPP10ConnectionEESB_SB_Li0EEENS_4pairIT0_T2_EESD_T1_SE_, symObjAddr: 0x2582C, symBinAddr: 0x10006BDDC, symSize: 0x880 }
  - { offsetInCU: 0x1579A, offset: 0xE4FCF, size: 0x8, addend: 0x0, symName: __ZNSt3__114__unwrap_rangeB8ue170006INS_16reverse_iteratorIPP10ConnectionEES5_EENS_4pairIT0_S7_EET_S9_, symObjAddr: 0x260AC, symBinAddr: 0x10006C65C, symSize: 0x448 }
  - { offsetInCU: 0x158C2, offset: 0xE50F7, size: 0x8, addend: 0x0, symName: __ZNSt3__113__unwrap_iterB8ue170006INS_16reverse_iteratorIPP10ConnectionEENS_18__unwrap_iter_implIS5_Lb0EEELi0EEEDTclsrT0_8__unwrapclsr3stdE7declvalIT_EEEES9_, symObjAddr: 0x2689C, symBinAddr: 0x10006CE4C, symSize: 0x2EC }
  - { offsetInCU: 0x1590A, offset: 0xE513F, size: 0x8, addend: 0x0, symName: __ZNSt3__19make_pairB8ue170006INS_16reverse_iteratorIPP10ConnectionEES5_EENS_4pairINS_18__unwrap_ref_decayIT_E4typeENS7_IT0_E4typeEEEOS8_OSB_, symObjAddr: 0x26B88, symBinAddr: 0x10006D138, symSize: 0x38 }
  - { offsetInCU: 0x15959, offset: 0xE518E, size: 0x8, addend: 0x0, symName: __ZNSt3__114__rewrap_rangeB8ue170006INS_16reverse_iteratorIPP10ConnectionEES5_EET_S6_T0_, symObjAddr: 0x26BC0, symBinAddr: 0x10006D170, symSize: 0x3D4 }
  - { offsetInCU: 0x159AD, offset: 0xE51E2, size: 0x8, addend: 0x0, symName: __ZNSt3__113__rewrap_iterB8ue170006INS_16reverse_iteratorIPP10ConnectionEES5_NS_18__unwrap_iter_implIS5_Lb0EEEEET_S8_T0_, symObjAddr: 0x26F94, symBinAddr: 0x10006D544, symSize: 0x3E8 }
  - { offsetInCU: 0x15A0A, offset: 0xE523F, size: 0x8, addend: 0x0, symName: __ZNSt3__1neB8ue170006IPP10ConnectionS3_EEbRKNS_16reverse_iteratorIT_EERKNS4_IT0_EE, symObjAddr: 0x2737C, symBinAddr: 0x10006D92C, symSize: 0x48 }
  - { offsetInCU: 0x15AC2, offset: 0xE52F7, size: 0x8, addend: 0x0, symName: __ZNSt3__17launderB8ue170006IKNS_4pairIKP4NodeP4EdgeEEEEPT_SA_, symObjAddr: 0x2C1A8, symBinAddr: 0x10006FD58, symSize: 0x24 }
  - { offsetInCU: 0x15AF9, offset: 0xE532E, size: 0x8, addend: 0x0, symName: __ZNSt3__19__launderB8ue170006IKNS_4pairIKP4NodeP4EdgeEEEEPT_SA_, symObjAddr: 0x2C1CC, symBinAddr: 0x10006FD7C, symSize: 0x14 }
  - { offsetInCU: 0x15B4E, offset: 0xE5383, size: 0x8, addend: 0x0, symName: __ZNSt3__1neB8ue170006ERKNS_21__hash_const_iteratorIPNS_11__hash_nodeINS_17__hash_value_typeIP4NodeP4EdgeEEPvEEEESD_, symObjAddr: 0x32860, symBinAddr: 0x10007244C, symSize: 0x34 }
  - { offsetInCU: 0x15B8B, offset: 0xE53C0, size: 0x8, addend: 0x0, symName: __ZNSt3__1eqB8ue170006ERKNS_21__hash_const_iteratorIPNS_11__hash_nodeINS_17__hash_value_typeIP4NodeP4EdgeEEPvEEEESD_, symObjAddr: 0x32894, symBinAddr: 0x100072480, symSize: 0xB8 }
  - { offsetInCU: 0x1734B, offset: 0xE6B80, size: 0x8, addend: 0x0, symName: __ZNSt3__16vectorIP10ConnectionNS_9allocatorIS2_EEE26__swap_out_circular_bufferERNS_14__split_bufferIS2_RS4_EE, symObjAddr: 0x23058, symBinAddr: 0x100069608, symSize: 0x56C }
  - { offsetInCU: 0x190B7, offset: 0xE88EC, size: 0x8, addend: 0x0, symName: __ZN5GraphC2Ev, symObjAddr: 0x0, symBinAddr: 0x10005A430, symSize: 0xC8 }
  - { offsetInCU: 0x190E3, offset: 0xE8918, size: 0x8, addend: 0x0, symName: __ZN5GraphC1Ev, symObjAddr: 0x344, symBinAddr: 0x10005A4F8, symSize: 0x2C }
  - { offsetInCU: 0x1910F, offset: 0xE8944, size: 0x8, addend: 0x0, symName: __ZN5GraphC2ENSt3__112basic_stringIcNS0_11char_traitsIcEENS0_9allocatorIcEEEE, symObjAddr: 0x370, symBinAddr: 0x10005A524, symSize: 0x320 }
  - { offsetInCU: 0x1914C, offset: 0xE8981, size: 0x8, addend: 0x0, symName: __ZN5Graph9constructENSt3__112basic_stringIcNS0_11char_traitsIcEENS0_9allocatorIcEEEE, symObjAddr: 0x690, symBinAddr: 0x10005A844, symSize: 0x3AC }
  - { offsetInCU: 0x19197, offset: 0xE89CC, size: 0x8, addend: 0x0, symName: __ZN5GraphC1ENSt3__112basic_stringIcNS0_11char_traitsIcEENS0_9allocatorIcEEEE, symObjAddr: 0xA3C, symBinAddr: 0x10005ABF0, symSize: 0x34 }
  - { offsetInCU: 0x191D2, offset: 0xE8A07, size: 0x8, addend: 0x0, symName: __ZN5GraphD2Ev, symObjAddr: 0xA70, symBinAddr: 0x10005AC24, symSize: 0x3DC }
  - { offsetInCU: 0x19281, offset: 0xE8AB6, size: 0x8, addend: 0x0, symName: __ZNSt3__16vectorIP4EdgeNS_9allocatorIS2_EEEixB8ue170006Em, symObjAddr: 0xEFC, symBinAddr: 0x10005B000, symSize: 0x6C }
  - { offsetInCU: 0x192B8, offset: 0xE8AED, size: 0x8, addend: 0x0, symName: __ZN4NodeD1Ev, symObjAddr: 0x11A0, symBinAddr: 0x10005B06C, symSize: 0x2C }
  - { offsetInCU: 0x192E4, offset: 0xE8B19, size: 0x8, addend: 0x0, symName: __ZNSt3__16vectorIP6CliqueNS_9allocatorIS2_EEEixB8ue170006Em, symObjAddr: 0x127C, symBinAddr: 0x10005B098, symSize: 0x6C }
  - { offsetInCU: 0x1931B, offset: 0xE8B50, size: 0x8, addend: 0x0, symName: __ZN5GraphD1Ev, symObjAddr: 0x1314, symBinAddr: 0x10005B104, symSize: 0x2C }
  - { offsetInCU: 0x19346, offset: 0xE8B7B, size: 0x8, addend: 0x0, symName: __ZNSt3__114basic_ifstreamIcNS_11char_traitsIcEEEC1ERKNS_12basic_stringIcS2_NS_9allocatorIcEEEEj, symObjAddr: 0x1340, symBinAddr: 0x10005B130, symSize: 0x2AC }
  - { offsetInCU: 0x19390, offset: 0xE8BC5, size: 0x8, addend: 0x0, symName: __ZNKSt3__114basic_ifstreamIcNS_11char_traitsIcEEE7is_openEv, symObjAddr: 0x15EC, symBinAddr: 0x10005B3DC, symSize: 0x2C }
  - { offsetInCU: 0x193B8, offset: 0xE8BED, size: 0x8, addend: 0x0, symName: __ZN5Graph14get_data_sizesERNSt3__114basic_ifstreamIcNS0_11char_traitsIcEEEE, symObjAddr: 0x1664, symBinAddr: 0x10005B454, symSize: 0x5F4 }
  - { offsetInCU: 0x19435, offset: 0xE8C6A, size: 0x8, addend: 0x0, symName: __ZN5Graph10fill_graphERNSt3__114basic_ifstreamIcNS0_11char_traitsIcEEEE, symObjAddr: 0x1FBC, symBinAddr: 0x10005BA48, symSize: 0x1CBC }
  - { offsetInCU: 0x19562, offset: 0xE8D97, size: 0x8, addend: 0x0, symName: __ZNSt3__114basic_ifstreamIcNS_11char_traitsIcEEE5closeEv, symObjAddr: 0x3C78, symBinAddr: 0x10005D704, symSize: 0xD4 }
  - { offsetInCU: 0x1958F, offset: 0xE8DC4, size: 0x8, addend: 0x0, symName: __ZNSt3__114basic_ifstreamIcNS_11char_traitsIcEEED1Ev, symObjAddr: 0x3D4C, symBinAddr: 0x10005D7D8, symSize: 0x40 }
  - { offsetInCU: 0x19661, offset: 0xE8E96, size: 0x8, addend: 0x0, symName: __ZNSt3__113unordered_mapIiiNS_4hashIiEENS_8equal_toIiEENS_9allocatorINS_4pairIKiiEEEEEC1B8ue170006Ev, symObjAddr: 0x47E4, symBinAddr: 0x10005E270, symSize: 0x2C }
  - { offsetInCU: 0x1968B, offset: 0xE8EC0, size: 0x8, addend: 0x0, symName: __ZNKSt3__19basic_iosIcNS_11char_traitsIcEEEcvbB8ue170006Ev, symObjAddr: 0x4810, symBinAddr: 0x10005E29C, symSize: 0x2C }
  - { offsetInCU: 0x196B1, offset: 0xE8EE6, size: 0x8, addend: 0x0, symName: __ZNSt3__113unordered_mapIiiNS_4hashIiEENS_8equal_toIiEENS_9allocatorINS_4pairIKiiEEEEE4findB8ue170006ERS7_, symObjAddr: 0x486C, symBinAddr: 0x10005E2F8, symSize: 0x2BC }
  - { offsetInCU: 0x196E8, offset: 0xE8F1D, size: 0x8, addend: 0x0, symName: __ZNSt3__113unordered_mapIiiNS_4hashIiEENS_8equal_toIiEENS_9allocatorINS_4pairIKiiEEEEE3endB8ue170006Ev, symObjAddr: 0x4B28, symBinAddr: 0x10005E5B4, symSize: 0x2B4 }
  - { offsetInCU: 0x1970F, offset: 0xE8F44, size: 0x8, addend: 0x0, symName: __ZNSt3__113unordered_mapIiiNS_4hashIiEENS_8equal_toIiEENS_9allocatorINS_4pairIKiiEEEEEixERS7_, symObjAddr: 0x4DDC, symBinAddr: 0x10005E868, symSize: 0x314 }
  - { offsetInCU: 0x19748, offset: 0xE8F7D, size: 0x8, addend: 0x0, symName: __ZNSt3__16vectorIP10ConnectionNS_9allocatorIS2_EEE9push_backB8ue170006EOS2_, symObjAddr: 0x5880, symBinAddr: 0x10005EB7C, symSize: 0xE0 }
  - { offsetInCU: 0x1977F, offset: 0xE8FB4, size: 0x8, addend: 0x0, symName: __ZNSt3__113unordered_mapIP4NodeP4EdgeNS_4hashIS2_EENS_8equal_toIS2_EENS_9allocatorINS_4pairIKS2_S4_EEEEEixERSB_, symObjAddr: 0x5960, symBinAddr: 0x10005EC5C, symSize: 0x314 }
  - { offsetInCU: 0x197B8, offset: 0xE8FED, size: 0x8, addend: 0x0, symName: __ZNSt3__113unordered_mapIiiNS_4hashIiEENS_8equal_toIiEENS_9allocatorINS_4pairIKiiEEEEED1B8ue170006Ev, symObjAddr: 0x5F1C, symBinAddr: 0x10005EF70, symSize: 0x2C }
  - { offsetInCU: 0x197E2, offset: 0xE9017, size: 0x8, addend: 0x0, symName: __ZNK5Graph13are_connectedEP4NodeS1_, symObjAddr: 0x5F48, symBinAddr: 0x10005EF9C, symSize: 0x4D8 }
  - { offsetInCU: 0x1983E, offset: 0xE9073, size: 0x8, addend: 0x0, symName: __ZNSt3__113unordered_mapIP4NodeP4EdgeNS_4hashIS2_EENS_8equal_toIS2_EENS_9allocatorINS_4pairIKS2_S4_EEEEE4findB8ue170006ERSB_, symObjAddr: 0x6420, symBinAddr: 0x10005F474, symSize: 0x2BC }
  - { offsetInCU: 0x19875, offset: 0xE90AA, size: 0x8, addend: 0x0, symName: __ZNSt3__125__hash_map_const_iteratorINS_21__hash_const_iteratorIPNS_11__hash_nodeINS_17__hash_value_typeIP4NodeP4EdgeEEPvEEEEEC1B8ue170006ENS_19__hash_map_iteratorINS_15__hash_iteratorISB_EEEE, symObjAddr: 0x66DC, symBinAddr: 0x10005F730, symSize: 0x238 }
  - { offsetInCU: 0x198B3, offset: 0xE90E8, size: 0x8, addend: 0x0, symName: __ZNKSt3__125__hash_map_const_iteratorINS_21__hash_const_iteratorIPNS_11__hash_nodeINS_17__hash_value_typeIP4NodeP4EdgeEEPvEEEEEptB8ue170006Ev, symObjAddr: 0x6BF8, symBinAddr: 0x10005F998, symSize: 0x2C }
  - { offsetInCU: 0x198D9, offset: 0xE910E, size: 0x8, addend: 0x0, symName: __ZNK5Graph8get_edgeEP4NodeS1_, symObjAddr: 0x6C24, symBinAddr: 0x10005F9C4, symSize: 0x34 }
  - { offsetInCU: 0x1991D, offset: 0xE9152, size: 0x8, addend: 0x0, symName: __ZN4NodeD2Ev, symObjAddr: 0x6C58, symBinAddr: 0x10005F9F8, symSize: 0x60 }
  - { offsetInCU: 0x19949, offset: 0xE917E, size: 0x8, addend: 0x0, symName: __ZNSt3__113unordered_mapIP4NodeP4EdgeNS_4hashIS2_EENS_8equal_toIS2_EENS_9allocatorINS_4pairIKS2_S4_EEEEED1B8ue170006Ev, symObjAddr: 0x6CE4, symBinAddr: 0x10005FA58, symSize: 0x2C }
  - { offsetInCU: 0x19973, offset: 0xE91A8, size: 0x8, addend: 0x0, symName: __ZNSt3__16vectorIP10ConnectionNS_9allocatorIS2_EEED1B8ue170006Ev, symObjAddr: 0x6D10, symBinAddr: 0x10005FA84, symSize: 0x2C }
  - { offsetInCU: 0x1999D, offset: 0xE91D2, size: 0x8, addend: 0x0, symName: __ZNSt3__113unordered_mapIP4NodeP4EdgeNS_4hashIS2_EENS_8equal_toIS2_EENS_9allocatorINS_4pairIKS2_S4_EEEEED2B8ue170006Ev, symObjAddr: 0x7544, symBinAddr: 0x10005FAB0, symSize: 0x2C }
  - { offsetInCU: 0x199C7, offset: 0xE91FC, size: 0x8, addend: 0x0, symName: __ZNSt3__112__hash_tableINS_17__hash_value_typeIP4NodeP4EdgeEENS_22__unordered_map_hasherIS3_S6_NS_4hashIS3_EENS_8equal_toIS3_EELb1EEENS_21__unordered_map_equalIS3_S6_SB_S9_Lb1EEENS_9allocatorIS6_EEED1Ev, symObjAddr: 0x7570, symBinAddr: 0x10005FADC, symSize: 0x2C }
  - { offsetInCU: 0x199F3, offset: 0xE9228, size: 0x8, addend: 0x0, symName: __ZNSt3__112__hash_tableINS_17__hash_value_typeIP4NodeP4EdgeEENS_22__unordered_map_hasherIS3_S6_NS_4hashIS3_EENS_8equal_toIS3_EELb1EEENS_21__unordered_map_equalIS3_S6_SB_S9_Lb1EEENS_9allocatorIS6_EEED2Ev, symObjAddr: 0x759C, symBinAddr: 0x10005FB08, symSize: 0x88 }
  - { offsetInCU: 0x19A1F, offset: 0xE9254, size: 0x8, addend: 0x0, symName: __ZNSt3__112__hash_tableINS_17__hash_value_typeIP4NodeP4EdgeEENS_22__unordered_map_hasherIS3_S6_NS_4hashIS3_EENS_8equal_toIS3_EELb1EEENS_21__unordered_map_equalIS3_S6_SB_S9_Lb1EEENS_9allocatorIS6_EEE17__deallocate_nodeEPNS_16__hash_node_baseIPNS_11__hash_nodeIS6_PvEEEE, symObjAddr: 0x7624, symBinAddr: 0x10005FB90, symSize: 0xF8 }
  - { offsetInCU: 0x19A89, offset: 0xE92BE, size: 0x8, addend: 0x0, symName: __ZNSt3__110unique_ptrIA_PNS_16__hash_node_baseIPNS_11__hash_nodeINS_17__hash_value_typeIP4NodeP4EdgeEEPvEEEENS_25__bucket_list_deallocatorINS_9allocatorISD_EEEEED1B8ue170006Ev, symObjAddr: 0x7740, symBinAddr: 0x10005FC88, symSize: 0x2C }
  - { offsetInCU: 0x19AB3, offset: 0xE92E8, size: 0x8, addend: 0x0, symName: __ZNSt3__112__hash_tableINS_17__hash_value_typeIP4NodeP4EdgeEENS_22__unordered_map_hasherIS3_S6_NS_4hashIS3_EENS_8equal_toIS3_EELb1EEENS_21__unordered_map_equalIS3_S6_SB_S9_Lb1EEENS_9allocatorIS6_EEE12__node_allocB8ue170006Ev, symObjAddr: 0x776C, symBinAddr: 0x10005FCB4, symSize: 0x28 }
  - { offsetInCU: 0x19AD9, offset: 0xE930E, size: 0x8, addend: 0x0, symName: __ZNSt3__116allocator_traitsINS_9allocatorINS_11__hash_nodeINS_17__hash_value_typeIP4NodeP4EdgeEEPvEEEEE7destroyB8ue170006INS_4pairIKS5_S7_EEvvEEvRSB_PT_, symObjAddr: 0x77B8, symBinAddr: 0x10005FCDC, symSize: 0x14 }
  - { offsetInCU: 0x19B13, offset: 0xE9348, size: 0x8, addend: 0x0, symName: __ZNSt3__122__hash_key_value_typesINS_17__hash_value_typeIP4NodeP4EdgeEEE9__get_ptrB8ue170006ERS6_, symObjAddr: 0x77CC, symBinAddr: 0x10005FCF0, symSize: 0x24 }
  - { offsetInCU: 0x19B36, offset: 0xE936B, size: 0x8, addend: 0x0, symName: __ZNSt3__116allocator_traitsINS_9allocatorINS_11__hash_nodeINS_17__hash_value_typeIP4NodeP4EdgeEEPvEEEEE10deallocateB8ue170006ERSB_PSA_m, symObjAddr: 0x77F0, symBinAddr: 0x10005FD14, symSize: 0x34 }
  - { offsetInCU: 0x19B78, offset: 0xE93AD, size: 0x8, addend: 0x0, symName: __ZNSt3__117__compressed_pairINS_16__hash_node_baseIPNS_11__hash_nodeINS_17__hash_value_typeIP4NodeP4EdgeEEPvEEEENS_9allocatorISA_EEE6secondB8ue170006Ev, symObjAddr: 0x7824, symBinAddr: 0x10005FD48, symSize: 0x24 }
  - { offsetInCU: 0x19B9E, offset: 0xE93D3, size: 0x8, addend: 0x0, symName: __ZNSt3__122__compressed_pair_elemINS_9allocatorINS_11__hash_nodeINS_17__hash_value_typeIP4NodeP4EdgeEEPvEEEELi1ELb1EE5__getB8ue170006Ev, symObjAddr: 0x7848, symBinAddr: 0x10005FD6C, symSize: 0x14 }
  - { offsetInCU: 0x19BC4, offset: 0xE93F9, size: 0x8, addend: 0x0, symName: __ZNSt3__19allocatorINS_11__hash_nodeINS_17__hash_value_typeIP4NodeP4EdgeEEPvEEE10deallocateB8ue170006EPS9_m, symObjAddr: 0x78CC, symBinAddr: 0x10005FD80, symSize: 0x4C }
  - { offsetInCU: 0x19C06, offset: 0xE943B, size: 0x8, addend: 0x0, symName: __ZNSt3__110unique_ptrIA_PNS_16__hash_node_baseIPNS_11__hash_nodeINS_17__hash_value_typeIP4NodeP4EdgeEEPvEEEENS_25__bucket_list_deallocatorINS_9allocatorISD_EEEEED2B8ue170006Ev, symObjAddr: 0x792C, symBinAddr: 0x10005FDCC, symSize: 0x30 }
  - { offsetInCU: 0x19C30, offset: 0xE9465, size: 0x8, addend: 0x0, symName: __ZNSt3__110unique_ptrIA_PNS_16__hash_node_baseIPNS_11__hash_nodeINS_17__hash_value_typeIP4NodeP4EdgeEEPvEEEENS_25__bucket_list_deallocatorINS_9allocatorISD_EEEEE5resetB8ue170006EDn, symObjAddr: 0x795C, symBinAddr: 0x10005FDFC, symSize: 0xE0 }
  - { offsetInCU: 0x19C70, offset: 0xE94A5, size: 0x8, addend: 0x0, symName: __ZNSt3__117__compressed_pairIPPNS_16__hash_node_baseIPNS_11__hash_nodeINS_17__hash_value_typeIP4NodeP4EdgeEEPvEEEENS_25__bucket_list_deallocatorINS_9allocatorISD_EEEEE5firstB8ue170006Ev, symObjAddr: 0x7A3C, symBinAddr: 0x10005FEDC, symSize: 0x24 }
  - { offsetInCU: 0x19C96, offset: 0xE94CB, size: 0x8, addend: 0x0, symName: __ZNSt3__117__compressed_pairIPPNS_16__hash_node_baseIPNS_11__hash_nodeINS_17__hash_value_typeIP4NodeP4EdgeEEPvEEEENS_25__bucket_list_deallocatorINS_9allocatorISD_EEEEE6secondB8ue170006Ev, symObjAddr: 0x7A60, symBinAddr: 0x10005FF00, symSize: 0x28 }
  - { offsetInCU: 0x19CBC, offset: 0xE94F1, size: 0x8, addend: 0x0, symName: __ZNSt3__125__bucket_list_deallocatorINS_9allocatorIPNS_16__hash_node_baseIPNS_11__hash_nodeINS_17__hash_value_typeIP4NodeP4EdgeEEPvEEEEEEEclB8ue170006EPSE_, symObjAddr: 0x7A88, symBinAddr: 0x10005FF28, symSize: 0x98 }
  - { offsetInCU: 0x19CF1, offset: 0xE9526, size: 0x8, addend: 0x0, symName: __ZNSt3__122__compressed_pair_elemIPPNS_16__hash_node_baseIPNS_11__hash_nodeINS_17__hash_value_typeIP4NodeP4EdgeEEPvEEEELi0ELb0EE5__getB8ue170006Ev, symObjAddr: 0x7B20, symBinAddr: 0x10005FFC0, symSize: 0x14 }
  - { offsetInCU: 0x19D17, offset: 0xE954C, size: 0x8, addend: 0x0, symName: __ZNSt3__122__compressed_pair_elemINS_25__bucket_list_deallocatorINS_9allocatorIPNS_16__hash_node_baseIPNS_11__hash_nodeINS_17__hash_value_typeIP4NodeP4EdgeEEPvEEEEEEEELi1ELb0EE5__getB8ue170006Ev, symObjAddr: 0x7B34, symBinAddr: 0x10005FFD4, symSize: 0x14 }
  - { offsetInCU: 0x19D3D, offset: 0xE9572, size: 0x8, addend: 0x0, symName: __ZNSt3__116allocator_traitsINS_9allocatorIPNS_16__hash_node_baseIPNS_11__hash_nodeINS_17__hash_value_typeIP4NodeP4EdgeEEPvEEEEEEE10deallocateB8ue170006ERSF_PSE_m, symObjAddr: 0x7B48, symBinAddr: 0x10005FFE8, symSize: 0x34 }
  - { offsetInCU: 0x19D7F, offset: 0xE95B4, size: 0x8, addend: 0x0, symName: __ZNSt3__125__bucket_list_deallocatorINS_9allocatorIPNS_16__hash_node_baseIPNS_11__hash_nodeINS_17__hash_value_typeIP4NodeP4EdgeEEPvEEEEEEE7__allocB8ue170006Ev, symObjAddr: 0x7B7C, symBinAddr: 0x10006001C, symSize: 0x24 }
  - { offsetInCU: 0x19DA5, offset: 0xE95DA, size: 0x8, addend: 0x0, symName: __ZNSt3__125__bucket_list_deallocatorINS_9allocatorIPNS_16__hash_node_baseIPNS_11__hash_nodeINS_17__hash_value_typeIP4NodeP4EdgeEEPvEEEEEEE4sizeB8ue170006Ev, symObjAddr: 0x7BA0, symBinAddr: 0x100060040, symSize: 0x24 }
  - { offsetInCU: 0x19DCB, offset: 0xE9600, size: 0x8, addend: 0x0, symName: __ZNSt3__19allocatorIPNS_16__hash_node_baseIPNS_11__hash_nodeINS_17__hash_value_typeIP4NodeP4EdgeEEPvEEEEE10deallocateB8ue170006EPSD_m, symObjAddr: 0x7BC4, symBinAddr: 0x100060064, symSize: 0x4C }
  - { offsetInCU: 0x19E0D, offset: 0xE9642, size: 0x8, addend: 0x0, symName: __ZNSt3__117__compressed_pairImNS_9allocatorIPNS_16__hash_node_baseIPNS_11__hash_nodeINS_17__hash_value_typeIP4NodeP4EdgeEEPvEEEEEEE6secondB8ue170006Ev, symObjAddr: 0x7C10, symBinAddr: 0x1000600B0, symSize: 0x24 }
  - { offsetInCU: 0x19E33, offset: 0xE9668, size: 0x8, addend: 0x0, symName: __ZNSt3__122__compressed_pair_elemINS_9allocatorIPNS_16__hash_node_baseIPNS_11__hash_nodeINS_17__hash_value_typeIP4NodeP4EdgeEEPvEEEEEELi1ELb1EE5__getB8ue170006Ev, symObjAddr: 0x7C34, symBinAddr: 0x1000600D4, symSize: 0x14 }
  - { offsetInCU: 0x19E59, offset: 0xE968E, size: 0x8, addend: 0x0, symName: __ZNSt3__117__compressed_pairImNS_9allocatorIPNS_16__hash_node_baseIPNS_11__hash_nodeINS_17__hash_value_typeIP4NodeP4EdgeEEPvEEEEEEE5firstB8ue170006Ev, symObjAddr: 0x7C48, symBinAddr: 0x1000600E8, symSize: 0x24 }
  - { offsetInCU: 0x19E7F, offset: 0xE96B4, size: 0x8, addend: 0x0, symName: __ZNSt3__16vectorIP10ConnectionNS_9allocatorIS2_EEED2B8ue170006Ev, symObjAddr: 0x7C6C, symBinAddr: 0x10006010C, symSize: 0x1F8 }
  - { offsetInCU: 0x19EAA, offset: 0xE96DF, size: 0x8, addend: 0x0, symName: __ZNSt3__16vectorIP10ConnectionNS_9allocatorIS2_EEE16__destroy_vectorC1B8ue170006ERS5_, symObjAddr: 0x7E64, symBinAddr: 0x100060304, symSize: 0x34 }
  - { offsetInCU: 0x19EE3, offset: 0xE9718, size: 0x8, addend: 0x0, symName: __ZNSt3__16vectorIP10ConnectionNS_9allocatorIS2_EEE16__destroy_vectorclB8ue170006Ev, symObjAddr: 0x7E98, symBinAddr: 0x100060338, symSize: 0x228 }
  - { offsetInCU: 0x19F09, offset: 0xE973E, size: 0x8, addend: 0x0, symName: __ZNSt3__16vectorIP10ConnectionNS_9allocatorIS2_EEE16__destroy_vectorC2B8ue170006ERS5_, symObjAddr: 0x80C0, symBinAddr: 0x100060560, symSize: 0x70 }
  - { offsetInCU: 0x19F42, offset: 0xE9777, size: 0x8, addend: 0x0, symName: __ZNSt3__16vectorIP10ConnectionNS_9allocatorIS2_EEE7__clearB8ue170006Ev, symObjAddr: 0x8130, symBinAddr: 0x1000605D0, symSize: 0x64 }
  - { offsetInCU: 0x19F68, offset: 0xE979D, size: 0x8, addend: 0x0, symName: __ZNKSt3__16vectorIP10ConnectionNS_9allocatorIS2_EEE17__annotate_deleteB8ue170006Ev, symObjAddr: 0x8194, symBinAddr: 0x100060634, symSize: 0xCC }
  - { offsetInCU: 0x19F8E, offset: 0xE97C3, size: 0x8, addend: 0x0, symName: __ZNSt3__116allocator_traitsINS_9allocatorIP10ConnectionEEE10deallocateB8ue170006ERS4_PS3_m, symObjAddr: 0x8260, symBinAddr: 0x100060700, symSize: 0x34 }
  - { offsetInCU: 0x19FD0, offset: 0xE9805, size: 0x8, addend: 0x0, symName: __ZNSt3__16vectorIP10ConnectionNS_9allocatorIS2_EEE7__allocB8ue170006Ev, symObjAddr: 0x8294, symBinAddr: 0x100060734, symSize: 0x28 }
  - { offsetInCU: 0x19FF6, offset: 0xE982B, size: 0x8, addend: 0x0, symName: __ZNKSt3__16vectorIP10ConnectionNS_9allocatorIS2_EEE8capacityB8ue170006Ev, symObjAddr: 0x82BC, symBinAddr: 0x10006075C, symSize: 0xBC }
  - { offsetInCU: 0x1A01C, offset: 0xE9851, size: 0x8, addend: 0x0, symName: __ZNSt3__16vectorIP10ConnectionNS_9allocatorIS2_EEE22__base_destruct_at_endB8ue170006EPS2_, symObjAddr: 0x8378, symBinAddr: 0x100060818, symSize: 0x114 }
  - { offsetInCU: 0x1A060, offset: 0xE9895, size: 0x8, addend: 0x0, symName: __ZNSt3__116allocator_traitsINS_9allocatorIP10ConnectionEEE7destroyB8ue170006IS3_vEEvRS4_PT_, symObjAddr: 0x848C, symBinAddr: 0x10006092C, symSize: 0x2C }
  - { offsetInCU: 0x1A09D, offset: 0xE98D2, size: 0x8, addend: 0x0, symName: __ZNSt3__19allocatorIP10ConnectionE7destroyB8ue170006EPS2_, symObjAddr: 0x84CC, symBinAddr: 0x10006096C, symSize: 0x14 }
  - { offsetInCU: 0x1A0D1, offset: 0xE9906, size: 0x8, addend: 0x0, symName: __ZNKSt3__16vectorIP10ConnectionNS_9allocatorIS2_EEE31__annotate_contiguous_containerEPKvS7_S7_S7_, symObjAddr: 0x84E0, symBinAddr: 0x100060980, symSize: 0x58 }
  - { offsetInCU: 0x1A133, offset: 0xE9968, size: 0x8, addend: 0x0, symName: __ZNKSt3__16vectorIP10ConnectionNS_9allocatorIS2_EEE4dataB8ue170006Ev, symObjAddr: 0x8538, symBinAddr: 0x1000609D8, symSize: 0x64 }
  - { offsetInCU: 0x1A159, offset: 0xE998E, size: 0x8, addend: 0x0, symName: __ZNSt3__19allocatorIP10ConnectionE10deallocateB8ue170006EPS2_m, symObjAddr: 0x859C, symBinAddr: 0x100060A3C, symSize: 0x4C }
  - { offsetInCU: 0x1A19B, offset: 0xE99D0, size: 0x8, addend: 0x0, symName: __ZNSt3__117__compressed_pairIPP10ConnectionNS_9allocatorIS2_EEE6secondB8ue170006Ev, symObjAddr: 0x85E8, symBinAddr: 0x100060A88, symSize: 0x24 }
  - { offsetInCU: 0x1A1C1, offset: 0xE99F6, size: 0x8, addend: 0x0, symName: __ZNSt3__122__compressed_pair_elemINS_9allocatorIP10ConnectionEELi1ELb1EE5__getB8ue170006Ev, symObjAddr: 0x860C, symBinAddr: 0x100060AAC, symSize: 0x14 }
  - { offsetInCU: 0x1A1E7, offset: 0xE9A1C, size: 0x8, addend: 0x0, symName: __ZNKSt3__16vectorIP10ConnectionNS_9allocatorIS2_EEE9__end_capB8ue170006Ev, symObjAddr: 0x8620, symBinAddr: 0x100060AC0, symSize: 0x28 }
  - { offsetInCU: 0x1A20D, offset: 0xE9A42, size: 0x8, addend: 0x0, symName: __ZNKSt3__117__compressed_pairIPP10ConnectionNS_9allocatorIS2_EEE5firstB8ue170006Ev, symObjAddr: 0x8648, symBinAddr: 0x100060AE8, symSize: 0x24 }
  - { offsetInCU: 0x1A233, offset: 0xE9A68, size: 0x8, addend: 0x0, symName: __ZNKSt3__122__compressed_pair_elemIPP10ConnectionLi0ELb0EE5__getB8ue170006Ev, symObjAddr: 0x866C, symBinAddr: 0x100060B0C, symSize: 0x14 }
  - { offsetInCU: 0x1A259, offset: 0xE9A8E, size: 0x8, addend: 0x0, symName: __ZNSt3__114basic_ifstreamIcNS_11char_traitsIcEEED2Ev, symObjAddr: 0x86BC, symBinAddr: 0x100060B20, symSize: 0x198 }
  - { offsetInCU: 0x1A293, offset: 0xE9AC8, size: 0x8, addend: 0x0, symName: __ZTv0_n24_NSt3__114basic_ifstreamIcNS_11char_traitsIcEEED1Ev, symObjAddr: 0x8854, symBinAddr: 0x100060CB8, symSize: 0xB0 }
  - { offsetInCU: 0x1A2D7, offset: 0xE9B0C, size: 0x8, addend: 0x0, symName: __ZNSt3__19basic_iosIcNS_11char_traitsIcEEEC2B8ue170006Ev, symObjAddr: 0xD890, symBinAddr: 0x100060D68, symSize: 0x84 }
  - { offsetInCU: 0x1A301, offset: 0xE9B36, size: 0x8, addend: 0x0, symName: __ZNSt3__113basic_istreamIcNS_11char_traitsIcEEEC2B8ue170006EPNS_15basic_streambufIcS2_EE, symObjAddr: 0xD914, symBinAddr: 0x100060DEC, symSize: 0x20C }
  - { offsetInCU: 0x1A346, offset: 0xE9B7B, size: 0x8, addend: 0x0, symName: __ZNSt3__113basic_filebufIcNS_11char_traitsIcEEE4openERKNS_12basic_stringIcS2_NS_9allocatorIcEEEEj, symObjAddr: 0xDB20, symBinAddr: 0x100060FF8, symSize: 0x44 }
  - { offsetInCU: 0x1A38A, offset: 0xE9BBF, size: 0x8, addend: 0x0, symName: __ZNSt3__18ios_baseC2B8ue170006Ev, symObjAddr: 0xDB64, symBinAddr: 0x10006103C, symSize: 0x74 }
  - { offsetInCU: 0x1A3B4, offset: 0xE9BE9, size: 0x8, addend: 0x0, symName: __ZNSt3__19basic_iosIcNS_11char_traitsIcEEE4initB8ue170006EPNS_15basic_streambufIcS2_EE, symObjAddr: 0xDBD8, symBinAddr: 0x1000610B0, symSize: 0xEC }
  - { offsetInCU: 0x1A3EB, offset: 0xE9C20, size: 0x8, addend: 0x0, symName: __ZNKSt3__112basic_stringIcNS_11char_traitsIcEENS_9allocatorIcEEE5c_strB8ue170006Ev, symObjAddr: 0xDCC4, symBinAddr: 0x10006119C, symSize: 0x24 }
  - { offsetInCU: 0x1A411, offset: 0xE9C46, size: 0x8, addend: 0x0, symName: __ZNKSt3__112basic_stringIcNS_11char_traitsIcEENS_9allocatorIcEEE4dataB8ue170006Ev, symObjAddr: 0xDCE8, symBinAddr: 0x1000611C0, symSize: 0x28 }
  - { offsetInCU: 0x1A437, offset: 0xE9C6C, size: 0x8, addend: 0x0, symName: __ZNKSt3__112basic_stringIcNS_11char_traitsIcEENS_9allocatorIcEEE13__get_pointerB8ue170006Ev, symObjAddr: 0xDD24, symBinAddr: 0x1000611FC, symSize: 0x54 }
  - { offsetInCU: 0x1A45D, offset: 0xE9C92, size: 0x8, addend: 0x0, symName: __ZNKSt3__112basic_stringIcNS_11char_traitsIcEENS_9allocatorIcEEE18__get_long_pointerB8ue170006Ev, symObjAddr: 0xDD78, symBinAddr: 0x100061250, symSize: 0x6C }
  - { offsetInCU: 0x1A483, offset: 0xE9CB8, size: 0x8, addend: 0x0, symName: __ZNKSt3__112basic_stringIcNS_11char_traitsIcEENS_9allocatorIcEEE19__get_short_pointerB8ue170006Ev, symObjAddr: 0xDDE4, symBinAddr: 0x1000612BC, symSize: 0x28 }
  - { offsetInCU: 0x1A4A9, offset: 0xE9CDE, size: 0x8, addend: 0x0, symName: __ZNSt3__114pointer_traitsIPKcE10pointer_toB8ue170006ERS1_, symObjAddr: 0xDE0C, symBinAddr: 0x1000612E4, symSize: 0x14 }
  - { offsetInCU: 0x1A4CC, offset: 0xE9D01, size: 0x8, addend: 0x0, symName: __ZNKSt3__113basic_filebufIcNS_11char_traitsIcEEE7is_openEv, symObjAddr: 0xDE20, symBinAddr: 0x1000612F8, symSize: 0x70 }
  - { offsetInCU: 0x1A4F4, offset: 0xE9D29, size: 0x8, addend: 0x0, symName: __ZNKSt3__112basic_stringIcNS_11char_traitsIcEENS_9allocatorIcEEE4sizeB8ue170006Ev, symObjAddr: 0xDE90, symBinAddr: 0x100061368, symSize: 0x54 }
  - { offsetInCU: 0x1A51A, offset: 0xE9D4F, size: 0x8, addend: 0x0, symName: __ZNKSt3__112basic_stringIcNS_11char_traitsIcEENS_9allocatorIcEEE15__get_long_sizeB8ue170006Ev, symObjAddr: 0xDEE4, symBinAddr: 0x1000613BC, symSize: 0x70 }
  - { offsetInCU: 0x1A540, offset: 0xE9D75, size: 0x8, addend: 0x0, symName: __ZNKSt3__112basic_stringIcNS_11char_traitsIcEENS_9allocatorIcEEE16__get_short_sizeB8ue170006Ev, symObjAddr: 0xDF54, symBinAddr: 0x10006142C, symSize: 0xA0 }
  - { offsetInCU: 0x1A58E, offset: 0xE9DC3, size: 0x8, addend: 0x0, symName: __ZNKSt3__113basic_istreamIcNS_11char_traitsIcEEE6sentrycvbB8ue170006Ev, symObjAddr: 0x133F0, symBinAddr: 0x1000614CC, symSize: 0x88 }
  - { offsetInCU: 0x1A5B4, offset: 0xE9DE9, size: 0x8, addend: 0x0, symName: __ZNSt3__112basic_stringIcNS_11char_traitsIcEENS_9allocatorIcEEE5clearB8ue170006Ev, symObjAddr: 0x13478, symBinAddr: 0x100061554, symSize: 0x30C }
  - { offsetInCU: 0x1A5DD, offset: 0xE9E12, size: 0x8, addend: 0x0, symName: __ZNKSt3__112basic_stringIcNS_11char_traitsIcEENS_9allocatorIcEEE8max_sizeB8ue170006Ev, symObjAddr: 0x13784, symBinAddr: 0x100061860, symSize: 0xBC }
  - { offsetInCU: 0x1A62F, offset: 0xE9E64, size: 0x8, addend: 0x0, symName: __ZNSt3__115basic_streambufIcNS_11char_traitsIcEEE5sgetcB8ue170006Ev, symObjAddr: 0x13840, symBinAddr: 0x10006191C, symSize: 0x1E4 }
  - { offsetInCU: 0x1A655, offset: 0xE9E8A, size: 0x8, addend: 0x0, symName: __ZNSt3__111char_traitsIcE12to_char_typeB8ue170006Ei, symObjAddr: 0x13A24, symBinAddr: 0x100061B00, symSize: 0x18 }
  - { offsetInCU: 0x1A678, offset: 0xE9EAD, size: 0x8, addend: 0x0, symName: __ZNKSt3__15ctypeIcE2isB8ue170006Ejc, symObjAddr: 0x13A3C, symBinAddr: 0x100061B18, symSize: 0x120 }
  - { offsetInCU: 0x1A6BC, offset: 0xE9EF1, size: 0x8, addend: 0x0, symName: __ZNSt3__115basic_streambufIcNS_11char_traitsIcEEE6sbumpcB8ue170006Ev, symObjAddr: 0x13B5C, symBinAddr: 0x100061C38, symSize: 0x1EC }
  - { offsetInCU: 0x1A6E2, offset: 0xE9F17, size: 0x8, addend: 0x0, symName: __ZNSt3__18ios_base18__setstate_nothrowB8ue170006Ej, symObjAddr: 0x13D48, symBinAddr: 0x100061E24, symSize: 0x178 }
  - { offsetInCU: 0x1A717, offset: 0xE9F4C, size: 0x8, addend: 0x0, symName: __ZNKSt3__19basic_iosIcNS_11char_traitsIcEEE10exceptionsB8ue170006Ev, symObjAddr: 0x13EC0, symBinAddr: 0x100061F9C, symSize: 0x24 }
  - { offsetInCU: 0x1A73D, offset: 0xE9F72, size: 0x8, addend: 0x0, symName: __ZNSt3__111char_traitsIcE6assignB8ue170006ERcRKc, symObjAddr: 0x13EE4, symBinAddr: 0x100061FC0, symSize: 0xF4 }
  - { offsetInCU: 0x1A76E, offset: 0xE9FA3, size: 0x8, addend: 0x0, symName: __ZNSt3__112basic_stringIcNS_11char_traitsIcEENS_9allocatorIcEEE15__set_long_sizeB8ue170006Em, symObjAddr: 0x13FD8, symBinAddr: 0x1000620B4, symSize: 0x80 }
  - { offsetInCU: 0x1A7A3, offset: 0xE9FD8, size: 0x8, addend: 0x0, symName: __ZNSt3__112basic_stringIcNS_11char_traitsIcEENS_9allocatorIcEEE16__set_short_sizeB8ue170006Em, symObjAddr: 0x14058, symBinAddr: 0x100062134, symSize: 0x130 }
  - { offsetInCU: 0x1A7E2, offset: 0xEA017, size: 0x8, addend: 0x0, symName: __ZNSt3__116allocator_traitsINS_9allocatorIcEEE8max_sizeB8ue170006IS2_vEEmRKS2_, symObjAddr: 0x14188, symBinAddr: 0x100062264, symSize: 0x24 }
  - { offsetInCU: 0x1A810, offset: 0xEA045, size: 0x8, addend: 0x0, symName: __ZNKSt3__112basic_stringIcNS_11char_traitsIcEENS_9allocatorIcEEE7__allocB8ue170006Ev, symObjAddr: 0x141AC, symBinAddr: 0x100062288, symSize: 0x24 }
  - { offsetInCU: 0x1A836, offset: 0xEA06B, size: 0x8, addend: 0x0, symName: __ZNKSt3__19allocatorIcE8max_sizeB8ue170006Ev, symObjAddr: 0x141E4, symBinAddr: 0x1000622AC, symSize: 0x14 }
  - { offsetInCU: 0x1A85C, offset: 0xEA091, size: 0x8, addend: 0x0, symName: __ZNKSt3__117__compressed_pairINS_12basic_stringIcNS_11char_traitsIcEENS_9allocatorIcEEE5__repES5_E6secondB8ue170006Ev, symObjAddr: 0x141F8, symBinAddr: 0x1000622C0, symSize: 0x24 }
  - { offsetInCU: 0x1A882, offset: 0xEA0B7, size: 0x8, addend: 0x0, symName: __ZNKSt3__122__compressed_pair_elemINS_9allocatorIcEELi1ELb1EE5__getB8ue170006Ev, symObjAddr: 0x1421C, symBinAddr: 0x1000622E4, symSize: 0x14 }
  - { offsetInCU: 0x1A8A8, offset: 0xEA0DD, size: 0x8, addend: 0x0, symName: __ZNSt3__111char_traitsIcE11to_int_typeB8ue170006Ec, symObjAddr: 0x14238, symBinAddr: 0x1000622F8, symSize: 0x14 }
  - { offsetInCU: 0x1A8CB, offset: 0xEA100, size: 0x8, addend: 0x0, symName: __Z7isasciii, symObjAddr: 0x1424C, symBinAddr: 0x10006230C, symSize: 0x24 }
  - { offsetInCU: 0x1A8F8, offset: 0xEA12D, size: 0x8, addend: 0x0, symName: __ZNKSt3__18ios_base10exceptionsB8ue170006Ev, symObjAddr: 0x14270, symBinAddr: 0x100062330, symSize: 0x8C }
  - { offsetInCU: 0x1A920, offset: 0xEA155, size: 0x8, addend: 0x0, symName: __ZNSt3__113unordered_mapIiiNS_4hashIiEENS_8equal_toIiEENS_9allocatorINS_4pairIKiiEEEEEC2B8ue170006Ev, symObjAddr: 0x142FC, symBinAddr: 0x1000623BC, symSize: 0x2C }
  - { offsetInCU: 0x1A94A, offset: 0xEA17F, size: 0x8, addend: 0x0, symName: __ZNSt3__112__hash_tableINS_17__hash_value_typeIiiEENS_22__unordered_map_hasherIiS2_NS_4hashIiEENS_8equal_toIiEELb1EEENS_21__unordered_map_equalIiS2_S7_S5_Lb1EEENS_9allocatorIS2_EEEC1Ev, symObjAddr: 0x14328, symBinAddr: 0x1000623E8, symSize: 0x2C }
  - { offsetInCU: 0x1A976, offset: 0xEA1AB, size: 0x8, addend: 0x0, symName: __ZNSt3__112__hash_tableINS_17__hash_value_typeIiiEENS_22__unordered_map_hasherIiS2_NS_4hashIiEENS_8equal_toIiEELb1EEENS_21__unordered_map_equalIiS2_S7_S5_Lb1EEENS_9allocatorIS2_EEEC2Ev, symObjAddr: 0x14354, symBinAddr: 0x100062414, symSize: 0x38C }
  - { offsetInCU: 0x1A9A3, offset: 0xEA1D8, size: 0x8, addend: 0x0, symName: __ZNSt3__110unique_ptrIA_PNS_16__hash_node_baseIPNS_11__hash_nodeINS_17__hash_value_typeIiiEEPvEEEENS_25__bucket_list_deallocatorINS_9allocatorIS9_EEEEEC1B8ue170006ILb1EvEEv, symObjAddr: 0x146E0, symBinAddr: 0x1000627A0, symSize: 0x2C }
  - { offsetInCU: 0x1A9D8, offset: 0xEA20D, size: 0x8, addend: 0x0, symName: __ZNSt3__117__compressed_pairINS_16__hash_node_baseIPNS_11__hash_nodeINS_17__hash_value_typeIiiEEPvEEEENS_9allocatorIS6_EEEC1B8ue170006ILb1EvEEv, symObjAddr: 0x1470C, symBinAddr: 0x1000627CC, symSize: 0x2C }
  - { offsetInCU: 0x1AA12, offset: 0xEA247, size: 0x8, addend: 0x0, symName: __ZNSt3__117__compressed_pairImNS_22__unordered_map_hasherIiNS_17__hash_value_typeIiiEENS_4hashIiEENS_8equal_toIiEELb1EEEEC1B8ue170006IiNS_18__default_init_tagEEEOT_OT0_, symObjAddr: 0x14738, symBinAddr: 0x1000627F8, symSize: 0x3C }
  - { offsetInCU: 0x1AA6F, offset: 0xEA2A4, size: 0x8, addend: 0x0, symName: __ZNSt3__117__compressed_pairIfNS_21__unordered_map_equalIiNS_17__hash_value_typeIiiEENS_8equal_toIiEENS_4hashIiEELb1EEEEC1B8ue170006IfNS_18__default_init_tagEEEOT_OT0_, symObjAddr: 0x14774, symBinAddr: 0x100062834, symSize: 0x3C }
  - { offsetInCU: 0x1AAC7, offset: 0xEA2FC, size: 0x8, addend: 0x0, symName: __ZNSt3__110unique_ptrIA_PNS_16__hash_node_baseIPNS_11__hash_nodeINS_17__hash_value_typeIiiEEPvEEEENS_25__bucket_list_deallocatorINS_9allocatorIS9_EEEEEC2B8ue170006ILb1EvEEv, symObjAddr: 0x147B0, symBinAddr: 0x100062870, symSize: 0x200 }
  - { offsetInCU: 0x1AB02, offset: 0xEA337, size: 0x8, addend: 0x0, symName: __ZNSt3__117__compressed_pairIPPNS_16__hash_node_baseIPNS_11__hash_nodeINS_17__hash_value_typeIiiEEPvEEEENS_25__bucket_list_deallocatorINS_9allocatorIS9_EEEEEC1B8ue170006INS_16__value_init_tagESH_EEOT_OT0_, symObjAddr: 0x149B0, symBinAddr: 0x100062A70, symSize: 0x3C }
  - { offsetInCU: 0x1AB5A, offset: 0xEA38F, size: 0x8, addend: 0x0, symName: __ZNSt3__117__compressed_pairIPPNS_16__hash_node_baseIPNS_11__hash_nodeINS_17__hash_value_typeIiiEEPvEEEENS_25__bucket_list_deallocatorINS_9allocatorIS9_EEEEEC2B8ue170006INS_16__value_init_tagESH_EEOT_OT0_, symObjAddr: 0x149EC, symBinAddr: 0x100062AAC, symSize: 0x40 }
  - { offsetInCU: 0x1ABB2, offset: 0xEA3E7, size: 0x8, addend: 0x0, symName: __ZNSt3__122__compressed_pair_elemIPPNS_16__hash_node_baseIPNS_11__hash_nodeINS_17__hash_value_typeIiiEEPvEEEELi0ELb0EEC2B8ue170006ENS_16__value_init_tagE, symObjAddr: 0x14A2C, symBinAddr: 0x100062AEC, symSize: 0x60 }
  - { offsetInCU: 0x1ABE6, offset: 0xEA41B, size: 0x8, addend: 0x0, symName: __ZNSt3__122__compressed_pair_elemINS_25__bucket_list_deallocatorINS_9allocatorIPNS_16__hash_node_baseIPNS_11__hash_nodeINS_17__hash_value_typeIiiEEPvEEEEEEEELi1ELb0EEC2B8ue170006ENS_16__value_init_tagE, symObjAddr: 0x14A8C, symBinAddr: 0x100062B4C, symSize: 0x2C }
  - { offsetInCU: 0x1AC1A, offset: 0xEA44F, size: 0x8, addend: 0x0, symName: __ZNSt3__125__bucket_list_deallocatorINS_9allocatorIPNS_16__hash_node_baseIPNS_11__hash_nodeINS_17__hash_value_typeIiiEEPvEEEEEEEC1B8ue170006Ev, symObjAddr: 0x14AB8, symBinAddr: 0x100062B78, symSize: 0x2C }
  - { offsetInCU: 0x1AC44, offset: 0xEA479, size: 0x8, addend: 0x0, symName: __ZNSt3__125__bucket_list_deallocatorINS_9allocatorIPNS_16__hash_node_baseIPNS_11__hash_nodeINS_17__hash_value_typeIiiEEPvEEEEEEEC2B8ue170006Ev, symObjAddr: 0x14AE4, symBinAddr: 0x100062BA4, symSize: 0x270 }
  - { offsetInCU: 0x1AC6F, offset: 0xEA4A4, size: 0x8, addend: 0x0, symName: __ZNSt3__117__compressed_pairImNS_9allocatorIPNS_16__hash_node_baseIPNS_11__hash_nodeINS_17__hash_value_typeIiiEEPvEEEEEEEC1B8ue170006IiNS_18__default_init_tagEEEOT_OT0_, symObjAddr: 0x14D54, symBinAddr: 0x100062E14, symSize: 0x3C }
  - { offsetInCU: 0x1ACC7, offset: 0xEA4FC, size: 0x8, addend: 0x0, symName: __ZNSt3__117__compressed_pairImNS_9allocatorIPNS_16__hash_node_baseIPNS_11__hash_nodeINS_17__hash_value_typeIiiEEPvEEEEEEEC2B8ue170006IiNS_18__default_init_tagEEEOT_OT0_, symObjAddr: 0x14D90, symBinAddr: 0x100062E50, symSize: 0x40 }
  - { offsetInCU: 0x1AD1F, offset: 0xEA554, size: 0x8, addend: 0x0, symName: __ZNSt3__122__compressed_pair_elemINS_9allocatorIPNS_16__hash_node_baseIPNS_11__hash_nodeINS_17__hash_value_typeIiiEEPvEEEEEELi1ELb1EEC2B8ue170006ENS_18__default_init_tagE, symObjAddr: 0x14EA8, symBinAddr: 0x100062E90, symSize: 0x2C }
  - { offsetInCU: 0x1AD53, offset: 0xEA588, size: 0x8, addend: 0x0, symName: __ZNSt3__19allocatorIPNS_16__hash_node_baseIPNS_11__hash_nodeINS_17__hash_value_typeIiiEEPvEEEEEC2B8ue170006Ev, symObjAddr: 0x14ED4, symBinAddr: 0x100062EBC, symSize: 0x2C }
  - { offsetInCU: 0x1AD7D, offset: 0xEA5B2, size: 0x8, addend: 0x0, symName: __ZNSt3__116__non_trivial_ifILb1ENS_9allocatorIPNS_16__hash_node_baseIPNS_11__hash_nodeINS_17__hash_value_typeIiiEEPvEEEEEEEC2B8ue170006Ev, symObjAddr: 0x14F00, symBinAddr: 0x100062EE8, symSize: 0x14 }
  - { offsetInCU: 0x1ADA7, offset: 0xEA5DC, size: 0x8, addend: 0x0, symName: __ZNSt3__117__compressed_pairINS_16__hash_node_baseIPNS_11__hash_nodeINS_17__hash_value_typeIiiEEPvEEEENS_9allocatorIS6_EEEC2B8ue170006ILb1EvEEv, symObjAddr: 0x14F14, symBinAddr: 0x100062EFC, symSize: 0x34 }
  - { offsetInCU: 0x1ADDC, offset: 0xEA611, size: 0x8, addend: 0x0, symName: __ZNSt3__122__compressed_pair_elemINS_16__hash_node_baseIPNS_11__hash_nodeINS_17__hash_value_typeIiiEEPvEEEELi0ELb0EEC2B8ue170006ENS_16__value_init_tagE, symObjAddr: 0x14F48, symBinAddr: 0x100062F30, symSize: 0x2C }
  - { offsetInCU: 0x1AE10, offset: 0xEA645, size: 0x8, addend: 0x0, symName: __ZNSt3__122__compressed_pair_elemINS_9allocatorINS_11__hash_nodeINS_17__hash_value_typeIiiEEPvEEEELi1ELb1EEC2B8ue170006ENS_16__value_init_tagE, symObjAddr: 0x14F74, symBinAddr: 0x100062F5C, symSize: 0x2C }
  - { offsetInCU: 0x1AE44, offset: 0xEA679, size: 0x8, addend: 0x0, symName: __ZNSt3__116__hash_node_baseIPNS_11__hash_nodeINS_17__hash_value_typeIiiEEPvEEEC1B8ue170006Ev, symObjAddr: 0x14FA0, symBinAddr: 0x100062F88, symSize: 0x2C }
  - { offsetInCU: 0x1AE6E, offset: 0xEA6A3, size: 0x8, addend: 0x0, symName: __ZNSt3__116__hash_node_baseIPNS_11__hash_nodeINS_17__hash_value_typeIiiEEPvEEEC2B8ue170006Ev, symObjAddr: 0x14FCC, symBinAddr: 0x100062FB4, symSize: 0x60 }
  - { offsetInCU: 0x1AE98, offset: 0xEA6CD, size: 0x8, addend: 0x0, symName: __ZNSt3__19allocatorINS_11__hash_nodeINS_17__hash_value_typeIiiEEPvEEEC2B8ue170006Ev, symObjAddr: 0x1502C, symBinAddr: 0x100063014, symSize: 0x2C }
  - { offsetInCU: 0x1AEC2, offset: 0xEA6F7, size: 0x8, addend: 0x0, symName: __ZNSt3__116__non_trivial_ifILb1ENS_9allocatorINS_11__hash_nodeINS_17__hash_value_typeIiiEEPvEEEEEC2B8ue170006Ev, symObjAddr: 0x15058, symBinAddr: 0x100063040, symSize: 0x14 }
  - { offsetInCU: 0x1AEEC, offset: 0xEA721, size: 0x8, addend: 0x0, symName: __ZNSt3__117__compressed_pairImNS_22__unordered_map_hasherIiNS_17__hash_value_typeIiiEENS_4hashIiEENS_8equal_toIiEELb1EEEEC2B8ue170006IiNS_18__default_init_tagEEEOT_OT0_, symObjAddr: 0x1506C, symBinAddr: 0x100063054, symSize: 0x40 }
  - { offsetInCU: 0x1AF44, offset: 0xEA779, size: 0x8, addend: 0x0, symName: __ZNSt3__122__compressed_pair_elemINS_22__unordered_map_hasherIiNS_17__hash_value_typeIiiEENS_4hashIiEENS_8equal_toIiEELb1EEELi1ELb1EEC2B8ue170006ENS_18__default_init_tagE, symObjAddr: 0x150AC, symBinAddr: 0x100063094, symSize: 0x2C }
  - { offsetInCU: 0x1AF78, offset: 0xEA7AD, size: 0x8, addend: 0x0, symName: __ZNSt3__122__unordered_map_hasherIiNS_17__hash_value_typeIiiEENS_4hashIiEENS_8equal_toIiEELb1EEC2B8ue170006Ev, symObjAddr: 0x150D8, symBinAddr: 0x1000630C0, symSize: 0x14 }
  - { offsetInCU: 0x1AFA2, offset: 0xEA7D7, size: 0x8, addend: 0x0, symName: __ZNSt3__117__compressed_pairIfNS_21__unordered_map_equalIiNS_17__hash_value_typeIiiEENS_8equal_toIiEENS_4hashIiEELb1EEEEC2B8ue170006IfNS_18__default_init_tagEEEOT_OT0_, symObjAddr: 0x150EC, symBinAddr: 0x1000630D4, symSize: 0x40 }
  - { offsetInCU: 0x1AFFA, offset: 0xEA82F, size: 0x8, addend: 0x0, symName: __ZNSt3__122__compressed_pair_elemINS_21__unordered_map_equalIiNS_17__hash_value_typeIiiEENS_8equal_toIiEENS_4hashIiEELb1EEELi1ELb1EEC2B8ue170006ENS_18__default_init_tagE, symObjAddr: 0x1522C, symBinAddr: 0x100063114, symSize: 0x2C }
  - { offsetInCU: 0x1B02E, offset: 0xEA863, size: 0x8, addend: 0x0, symName: __ZNSt3__121__unordered_map_equalIiNS_17__hash_value_typeIiiEENS_8equal_toIiEENS_4hashIiEELb1EEC2B8ue170006Ev, symObjAddr: 0x15258, symBinAddr: 0x100063140, symSize: 0x14 }
  - { offsetInCU: 0x1B058, offset: 0xEA88D, size: 0x8, addend: 0x0, symName: __ZNSt3__113unordered_mapIiiNS_4hashIiEENS_8equal_toIiEENS_9allocatorINS_4pairIKiiEEEEED2B8ue170006Ev, symObjAddr: 0x1526C, symBinAddr: 0x100063154, symSize: 0x2C }
  - { offsetInCU: 0x1B082, offset: 0xEA8B7, size: 0x8, addend: 0x0, symName: __ZNSt3__112__hash_tableINS_17__hash_value_typeIiiEENS_22__unordered_map_hasherIiS2_NS_4hashIiEENS_8equal_toIiEELb1EEENS_21__unordered_map_equalIiS2_S7_S5_Lb1EEENS_9allocatorIS2_EEED1Ev, symObjAddr: 0x15298, symBinAddr: 0x100063180, symSize: 0x2C }
  - { offsetInCU: 0x1B0AE, offset: 0xEA8E3, size: 0x8, addend: 0x0, symName: __ZNSt3__112__hash_tableINS_17__hash_value_typeIiiEENS_22__unordered_map_hasherIiS2_NS_4hashIiEENS_8equal_toIiEELb1EEENS_21__unordered_map_equalIiS2_S7_S5_Lb1EEENS_9allocatorIS2_EEED2Ev, symObjAddr: 0x152C4, symBinAddr: 0x1000631AC, symSize: 0x88 }
  - { offsetInCU: 0x1B0DA, offset: 0xEA90F, size: 0x8, addend: 0x0, symName: __ZNSt3__112__hash_tableINS_17__hash_value_typeIiiEENS_22__unordered_map_hasherIiS2_NS_4hashIiEENS_8equal_toIiEELb1EEENS_21__unordered_map_equalIiS2_S7_S5_Lb1EEENS_9allocatorIS2_EEE17__deallocate_nodeEPNS_16__hash_node_baseIPNS_11__hash_nodeIS2_PvEEEE, symObjAddr: 0x1534C, symBinAddr: 0x100063234, symSize: 0xF8 }
  - { offsetInCU: 0x1B144, offset: 0xEA979, size: 0x8, addend: 0x0, symName: __ZNSt3__117__compressed_pairINS_16__hash_node_baseIPNS_11__hash_nodeINS_17__hash_value_typeIiiEEPvEEEENS_9allocatorIS6_EEE5firstB8ue170006Ev, symObjAddr: 0x15444, symBinAddr: 0x10006332C, symSize: 0x24 }
  - { offsetInCU: 0x1B16A, offset: 0xEA99F, size: 0x8, addend: 0x0, symName: __ZNSt3__110unique_ptrIA_PNS_16__hash_node_baseIPNS_11__hash_nodeINS_17__hash_value_typeIiiEEPvEEEENS_25__bucket_list_deallocatorINS_9allocatorIS9_EEEEED1B8ue170006Ev, symObjAddr: 0x15468, symBinAddr: 0x100063350, symSize: 0x2C }
  - { offsetInCU: 0x1B194, offset: 0xEA9C9, size: 0x8, addend: 0x0, symName: __ZNSt3__112__hash_tableINS_17__hash_value_typeIiiEENS_22__unordered_map_hasherIiS2_NS_4hashIiEENS_8equal_toIiEELb1EEENS_21__unordered_map_equalIiS2_S7_S5_Lb1EEENS_9allocatorIS2_EEE12__node_allocB8ue170006Ev, symObjAddr: 0x15494, symBinAddr: 0x10006337C, symSize: 0x28 }
  - { offsetInCU: 0x1B1BA, offset: 0xEA9EF, size: 0x8, addend: 0x0, symName: __ZNSt3__116__hash_node_baseIPNS_11__hash_nodeINS_17__hash_value_typeIiiEEPvEEE8__upcastB8ue170006Ev, symObjAddr: 0x154BC, symBinAddr: 0x1000633A4, symSize: 0x24 }
  - { offsetInCU: 0x1B1E0, offset: 0xEAA15, size: 0x8, addend: 0x0, symName: __ZNSt3__116allocator_traitsINS_9allocatorINS_11__hash_nodeINS_17__hash_value_typeIiiEEPvEEEEE7destroyB8ue170006INS_4pairIKiiEEvvEEvRS7_PT_, symObjAddr: 0x154E0, symBinAddr: 0x1000633C8, symSize: 0x14 }
  - { offsetInCU: 0x1B21A, offset: 0xEAA4F, size: 0x8, addend: 0x0, symName: __ZNSt3__122__hash_key_value_typesINS_17__hash_value_typeIiiEEE9__get_ptrB8ue170006ERS2_, symObjAddr: 0x154F4, symBinAddr: 0x1000633DC, symSize: 0x24 }
  - { offsetInCU: 0x1B23D, offset: 0xEAA72, size: 0x8, addend: 0x0, symName: __ZNSt3__116allocator_traitsINS_9allocatorINS_11__hash_nodeINS_17__hash_value_typeIiiEEPvEEEEE10deallocateB8ue170006ERS7_PS6_m, symObjAddr: 0x15518, symBinAddr: 0x100063400, symSize: 0x34 }
  - { offsetInCU: 0x1B27F, offset: 0xEAAB4, size: 0x8, addend: 0x0, symName: __ZNSt3__117__compressed_pairINS_16__hash_node_baseIPNS_11__hash_nodeINS_17__hash_value_typeIiiEEPvEEEENS_9allocatorIS6_EEE6secondB8ue170006Ev, symObjAddr: 0x1554C, symBinAddr: 0x100063434, symSize: 0x24 }
  - { offsetInCU: 0x1B2A5, offset: 0xEAADA, size: 0x8, addend: 0x0, symName: __ZNSt3__122__compressed_pair_elemINS_9allocatorINS_11__hash_nodeINS_17__hash_value_typeIiiEEPvEEEELi1ELb1EE5__getB8ue170006Ev, symObjAddr: 0x15570, symBinAddr: 0x100063458, symSize: 0x14 }
  - { offsetInCU: 0x1B2CB, offset: 0xEAB00, size: 0x8, addend: 0x0, symName: __ZNSt3__114pointer_traitsIPNS_16__hash_node_baseIPNS_11__hash_nodeINS_17__hash_value_typeIiiEEPvEEEEE10pointer_toB8ue170006ERS8_, symObjAddr: 0x15584, symBinAddr: 0x10006346C, symSize: 0x14 }
  - { offsetInCU: 0x1B2EE, offset: 0xEAB23, size: 0x8, addend: 0x0, symName: __ZNSt3__117__hash_value_typeIiiE11__get_valueB8ue170006Ev, symObjAddr: 0x15598, symBinAddr: 0x100063480, symSize: 0x24 }
  - { offsetInCU: 0x1B314, offset: 0xEAB49, size: 0x8, addend: 0x0, symName: __ZNSt3__19allocatorINS_11__hash_nodeINS_17__hash_value_typeIiiEEPvEEE10deallocateB8ue170006EPS5_m, symObjAddr: 0x155F4, symBinAddr: 0x1000634DC, symSize: 0x50 }
  - { offsetInCU: 0x1B356, offset: 0xEAB8B, size: 0x8, addend: 0x0, symName: __ZNSt3__122__compressed_pair_elemINS_16__hash_node_baseIPNS_11__hash_nodeINS_17__hash_value_typeIiiEEPvEEEELi0ELb0EE5__getB8ue170006Ev, symObjAddr: 0x15644, symBinAddr: 0x10006352C, symSize: 0x14 }
  - { offsetInCU: 0x1B37C, offset: 0xEABB1, size: 0x8, addend: 0x0, symName: __ZNSt3__110unique_ptrIA_PNS_16__hash_node_baseIPNS_11__hash_nodeINS_17__hash_value_typeIiiEEPvEEEENS_25__bucket_list_deallocatorINS_9allocatorIS9_EEEEED2B8ue170006Ev, symObjAddr: 0x15658, symBinAddr: 0x100063540, symSize: 0x30 }
  - { offsetInCU: 0x1B3A6, offset: 0xEABDB, size: 0x8, addend: 0x0, symName: __ZNSt3__110unique_ptrIA_PNS_16__hash_node_baseIPNS_11__hash_nodeINS_17__hash_value_typeIiiEEPvEEEENS_25__bucket_list_deallocatorINS_9allocatorIS9_EEEEE5resetB8ue170006EDn, symObjAddr: 0x15688, symBinAddr: 0x100063570, symSize: 0xE0 }
  - { offsetInCU: 0x1B3E6, offset: 0xEAC1B, size: 0x8, addend: 0x0, symName: __ZNSt3__117__compressed_pairIPPNS_16__hash_node_baseIPNS_11__hash_nodeINS_17__hash_value_typeIiiEEPvEEEENS_25__bucket_list_deallocatorINS_9allocatorIS9_EEEEE5firstB8ue170006Ev, symObjAddr: 0x15768, symBinAddr: 0x100063650, symSize: 0x24 }
  - { offsetInCU: 0x1B40C, offset: 0xEAC41, size: 0x8, addend: 0x0, symName: __ZNSt3__117__compressed_pairIPPNS_16__hash_node_baseIPNS_11__hash_nodeINS_17__hash_value_typeIiiEEPvEEEENS_25__bucket_list_deallocatorINS_9allocatorIS9_EEEEE6secondB8ue170006Ev, symObjAddr: 0x1578C, symBinAddr: 0x100063674, symSize: 0x28 }
  - { offsetInCU: 0x1B432, offset: 0xEAC67, size: 0x8, addend: 0x0, symName: __ZNSt3__125__bucket_list_deallocatorINS_9allocatorIPNS_16__hash_node_baseIPNS_11__hash_nodeINS_17__hash_value_typeIiiEEPvEEEEEEEclB8ue170006EPSA_, symObjAddr: 0x157B4, symBinAddr: 0x10006369C, symSize: 0x98 }
  - { offsetInCU: 0x1B467, offset: 0xEAC9C, size: 0x8, addend: 0x0, symName: __ZNSt3__122__compressed_pair_elemIPPNS_16__hash_node_baseIPNS_11__hash_nodeINS_17__hash_value_typeIiiEEPvEEEELi0ELb0EE5__getB8ue170006Ev, symObjAddr: 0x1584C, symBinAddr: 0x100063734, symSize: 0x14 }
  - { offsetInCU: 0x1B48D, offset: 0xEACC2, size: 0x8, addend: 0x0, symName: __ZNSt3__122__compressed_pair_elemINS_25__bucket_list_deallocatorINS_9allocatorIPNS_16__hash_node_baseIPNS_11__hash_nodeINS_17__hash_value_typeIiiEEPvEEEEEEEELi1ELb0EE5__getB8ue170006Ev, symObjAddr: 0x15860, symBinAddr: 0x100063748, symSize: 0x14 }
  - { offsetInCU: 0x1B4B3, offset: 0xEACE8, size: 0x8, addend: 0x0, symName: __ZNSt3__116allocator_traitsINS_9allocatorIPNS_16__hash_node_baseIPNS_11__hash_nodeINS_17__hash_value_typeIiiEEPvEEEEEEE10deallocateB8ue170006ERSB_PSA_m, symObjAddr: 0x15874, symBinAddr: 0x10006375C, symSize: 0x34 }
  - { offsetInCU: 0x1B4F5, offset: 0xEAD2A, size: 0x8, addend: 0x0, symName: __ZNSt3__125__bucket_list_deallocatorINS_9allocatorIPNS_16__hash_node_baseIPNS_11__hash_nodeINS_17__hash_value_typeIiiEEPvEEEEEEE7__allocB8ue170006Ev, symObjAddr: 0x158A8, symBinAddr: 0x100063790, symSize: 0x24 }
  - { offsetInCU: 0x1B51B, offset: 0xEAD50, size: 0x8, addend: 0x0, symName: __ZNSt3__125__bucket_list_deallocatorINS_9allocatorIPNS_16__hash_node_baseIPNS_11__hash_nodeINS_17__hash_value_typeIiiEEPvEEEEEEE4sizeB8ue170006Ev, symObjAddr: 0x158CC, symBinAddr: 0x1000637B4, symSize: 0x24 }
  - { offsetInCU: 0x1B541, offset: 0xEAD76, size: 0x8, addend: 0x0, symName: __ZNSt3__19allocatorIPNS_16__hash_node_baseIPNS_11__hash_nodeINS_17__hash_value_typeIiiEEPvEEEEE10deallocateB8ue170006EPS9_m, symObjAddr: 0x158F0, symBinAddr: 0x1000637D8, symSize: 0x4C }
  - { offsetInCU: 0x1B583, offset: 0xEADB8, size: 0x8, addend: 0x0, symName: __ZNSt3__117__compressed_pairImNS_9allocatorIPNS_16__hash_node_baseIPNS_11__hash_nodeINS_17__hash_value_typeIiiEEPvEEEEEEE6secondB8ue170006Ev, symObjAddr: 0x1593C, symBinAddr: 0x100063824, symSize: 0x24 }
  - { offsetInCU: 0x1B5A9, offset: 0xEADDE, size: 0x8, addend: 0x0, symName: __ZNSt3__122__compressed_pair_elemINS_9allocatorIPNS_16__hash_node_baseIPNS_11__hash_nodeINS_17__hash_value_typeIiiEEPvEEEEEELi1ELb1EE5__getB8ue170006Ev, symObjAddr: 0x15960, symBinAddr: 0x100063848, symSize: 0x14 }
  - { offsetInCU: 0x1B5CF, offset: 0xEAE04, size: 0x8, addend: 0x0, symName: __ZNSt3__117__compressed_pairImNS_9allocatorIPNS_16__hash_node_baseIPNS_11__hash_nodeINS_17__hash_value_typeIiiEEPvEEEEEEE5firstB8ue170006Ev, symObjAddr: 0x15974, symBinAddr: 0x10006385C, symSize: 0x24 }
  - { offsetInCU: 0x1B5F5, offset: 0xEAE2A, size: 0x8, addend: 0x0, symName: __ZNKSt3__19basic_iosIcNS_11char_traitsIcEEE4failB8ue170006Ev, symObjAddr: 0x15998, symBinAddr: 0x100063880, symSize: 0x28 }
  - { offsetInCU: 0x1B61B, offset: 0xEAE50, size: 0x8, addend: 0x0, symName: __ZNKSt3__18ios_base4failB8ue170006Ev, symObjAddr: 0x159C0, symBinAddr: 0x1000638A8, symSize: 0x9C }
  - { offsetInCU: 0x1B643, offset: 0xEAE78, size: 0x8, addend: 0x0, symName: __ZNSt3__112__hash_tableINS_17__hash_value_typeIiiEENS_22__unordered_map_hasherIiS2_NS_4hashIiEENS_8equal_toIiEELb1EEENS_21__unordered_map_equalIiS2_S7_S5_Lb1EEENS_9allocatorIS2_EEE4findIiEENS_15__hash_iteratorIPNS_11__hash_nodeIS2_PvEEEERKT_, symObjAddr: 0x15A5C, symBinAddr: 0x100063944, symSize: 0x484 }
  - { offsetInCU: 0x1B6CB, offset: 0xEAF00, size: 0x8, addend: 0x0, symName: __ZNSt3__119__hash_map_iteratorINS_15__hash_iteratorIPNS_11__hash_nodeINS_17__hash_value_typeIiiEEPvEEEEEC1B8ue170006ES8_, symObjAddr: 0x15EE0, symBinAddr: 0x100063DC8, symSize: 0x238 }
  - { offsetInCU: 0x1B709, offset: 0xEAF3E, size: 0x8, addend: 0x0, symName: __ZNSt3__112__hash_tableINS_17__hash_value_typeIiiEENS_22__unordered_map_hasherIiS2_NS_4hashIiEENS_8equal_toIiEELb1EEENS_21__unordered_map_equalIiS2_S7_S5_Lb1EEENS_9allocatorIS2_EEE13hash_functionB8ue170006Ev, symObjAddr: 0x16118, symBinAddr: 0x100064000, symSize: 0x28 }
  - { offsetInCU: 0x1B72F, offset: 0xEAF64, size: 0x8, addend: 0x0, symName: __ZNKSt3__122__unordered_map_hasherIiNS_17__hash_value_typeIiiEENS_4hashIiEENS_8equal_toIiEELb1EEclB8ue170006ERKi, symObjAddr: 0x16140, symBinAddr: 0x100064028, symSize: 0x9C }
  - { offsetInCU: 0x1B764, offset: 0xEAF99, size: 0x8, addend: 0x0, symName: __ZNKSt3__112__hash_tableINS_17__hash_value_typeIiiEENS_22__unordered_map_hasherIiS2_NS_4hashIiEENS_8equal_toIiEELb1EEENS_21__unordered_map_equalIiS2_S7_S5_Lb1EEENS_9allocatorIS2_EEE12bucket_countB8ue170006Ev, symObjAddr: 0x161DC, symBinAddr: 0x1000640C4, symSize: 0x28 }
  - { offsetInCU: 0x1B78A, offset: 0xEAFBF, size: 0x8, addend: 0x0, symName: __ZNKSt3__110unique_ptrIA_PNS_16__hash_node_baseIPNS_11__hash_nodeINS_17__hash_value_typeIiiEEPvEEEENS_25__bucket_list_deallocatorINS_9allocatorIS9_EEEEEixB8ue170006Em, symObjAddr: 0x1629C, symBinAddr: 0x1000640EC, symSize: 0x78 }
  - { offsetInCU: 0x1B7BF, offset: 0xEAFF4, size: 0x8, addend: 0x0, symName: __ZNKSt3__116__hash_node_baseIPNS_11__hash_nodeINS_17__hash_value_typeIiiEEPvEEE6__hashB8ue170006Ev, symObjAddr: 0x16314, symBinAddr: 0x100064164, symSize: 0x64 }
  - { offsetInCU: 0x1B7E5, offset: 0xEB01A, size: 0x8, addend: 0x0, symName: __ZNSt3__112__hash_tableINS_17__hash_value_typeIiiEENS_22__unordered_map_hasherIiS2_NS_4hashIiEENS_8equal_toIiEELb1EEENS_21__unordered_map_equalIiS2_S7_S5_Lb1EEENS_9allocatorIS2_EEE6key_eqB8ue170006Ev, symObjAddr: 0x16378, symBinAddr: 0x1000641C8, symSize: 0x28 }
  - { offsetInCU: 0x1B80B, offset: 0xEB040, size: 0x8, addend: 0x0, symName: __ZNKSt3__121__unordered_map_equalIiNS_17__hash_value_typeIiiEENS_8equal_toIiEENS_4hashIiEELb1EEclB8ue170006ERKS2_RKi, symObjAddr: 0x163A0, symBinAddr: 0x1000641F0, symSize: 0x48 }
  - { offsetInCU: 0x1B84F, offset: 0xEB084, size: 0x8, addend: 0x0, symName: __ZNSt3__115__hash_iteratorIPNS_11__hash_nodeINS_17__hash_value_typeIiiEEPvEEEC1B8ue170006EPNS_16__hash_node_baseIS6_EE, symObjAddr: 0x163E8, symBinAddr: 0x100064238, symSize: 0x34 }
  - { offsetInCU: 0x1B888, offset: 0xEB0BD, size: 0x8, addend: 0x0, symName: __ZNSt3__112__hash_tableINS_17__hash_value_typeIiiEENS_22__unordered_map_hasherIiS2_NS_4hashIiEENS_8equal_toIiEELb1EEENS_21__unordered_map_equalIiS2_S7_S5_Lb1EEENS_9allocatorIS2_EEE3endEv, symObjAddr: 0x1641C, symBinAddr: 0x10006426C, symSize: 0x1F8 }
  - { offsetInCU: 0x1B8B1, offset: 0xEB0E6, size: 0x8, addend: 0x0, symName: __ZNSt3__117__compressed_pairImNS_22__unordered_map_hasherIiNS_17__hash_value_typeIiiEENS_4hashIiEENS_8equal_toIiEELb1EEEE6secondB8ue170006Ev, symObjAddr: 0x16614, symBinAddr: 0x100064464, symSize: 0x24 }
  - { offsetInCU: 0x1B8D7, offset: 0xEB10C, size: 0x8, addend: 0x0, symName: __ZNSt3__122__compressed_pair_elemINS_22__unordered_map_hasherIiNS_17__hash_value_typeIiiEENS_4hashIiEENS_8equal_toIiEELb1EEELi1ELb1EE5__getB8ue170006Ev, symObjAddr: 0x16638, symBinAddr: 0x100064488, symSize: 0x14 }
  - { offsetInCU: 0x1B8FD, offset: 0xEB132, size: 0x8, addend: 0x0, symName: __ZNKSt3__14hashIiEclB8ue170006Ei, symObjAddr: 0x1664C, symBinAddr: 0x10006449C, symSize: 0x18 }
  - { offsetInCU: 0x1B932, offset: 0xEB167, size: 0x8, addend: 0x0, symName: __ZNKSt3__110unique_ptrIA_PNS_16__hash_node_baseIPNS_11__hash_nodeINS_17__hash_value_typeIiiEEPvEEEENS_25__bucket_list_deallocatorINS_9allocatorIS9_EEEEE11get_deleterB8ue170006Ev, symObjAddr: 0x16664, symBinAddr: 0x1000644B4, symSize: 0x24 }
  - { offsetInCU: 0x1B958, offset: 0xEB18D, size: 0x8, addend: 0x0, symName: __ZNKSt3__125__bucket_list_deallocatorINS_9allocatorIPNS_16__hash_node_baseIPNS_11__hash_nodeINS_17__hash_value_typeIiiEEPvEEEEEEE4sizeB8ue170006Ev, symObjAddr: 0x16688, symBinAddr: 0x1000644D8, symSize: 0x6C }
  - { offsetInCU: 0x1B97E, offset: 0xEB1B3, size: 0x8, addend: 0x0, symName: __ZNKSt3__117__compressed_pairIPPNS_16__hash_node_baseIPNS_11__hash_nodeINS_17__hash_value_typeIiiEEPvEEEENS_25__bucket_list_deallocatorINS_9allocatorIS9_EEEEE6secondB8ue170006Ev, symObjAddr: 0x166F4, symBinAddr: 0x100064544, symSize: 0x28 }
  - { offsetInCU: 0x1B9A4, offset: 0xEB1D9, size: 0x8, addend: 0x0, symName: __ZNKSt3__122__compressed_pair_elemINS_25__bucket_list_deallocatorINS_9allocatorIPNS_16__hash_node_baseIPNS_11__hash_nodeINS_17__hash_value_typeIiiEEPvEEEEEEEELi1ELb0EE5__getB8ue170006Ev, symObjAddr: 0x1671C, symBinAddr: 0x10006456C, symSize: 0x14 }
  - { offsetInCU: 0x1B9CA, offset: 0xEB1FF, size: 0x8, addend: 0x0, symName: __ZNKSt3__117__compressed_pairImNS_9allocatorIPNS_16__hash_node_baseIPNS_11__hash_nodeINS_17__hash_value_typeIiiEEPvEEEEEEE5firstB8ue170006Ev, symObjAddr: 0x16730, symBinAddr: 0x100064580, symSize: 0x24 }
  - { offsetInCU: 0x1B9F0, offset: 0xEB225, size: 0x8, addend: 0x0, symName: __ZNKSt3__117__compressed_pairIPPNS_16__hash_node_baseIPNS_11__hash_nodeINS_17__hash_value_typeIiiEEPvEEEENS_25__bucket_list_deallocatorINS_9allocatorIS9_EEEEE5firstB8ue170006Ev, symObjAddr: 0x16768, symBinAddr: 0x1000645A4, symSize: 0x24 }
  - { offsetInCU: 0x1BA16, offset: 0xEB24B, size: 0x8, addend: 0x0, symName: __ZNKSt3__122__compressed_pair_elemIPPNS_16__hash_node_baseIPNS_11__hash_nodeINS_17__hash_value_typeIiiEEPvEEEELi0ELb0EE5__getB8ue170006Ev, symObjAddr: 0x1678C, symBinAddr: 0x1000645C8, symSize: 0x14 }
  - { offsetInCU: 0x1BA3C, offset: 0xEB271, size: 0x8, addend: 0x0, symName: __ZNSt3__117__compressed_pairIfNS_21__unordered_map_equalIiNS_17__hash_value_typeIiiEENS_8equal_toIiEENS_4hashIiEELb1EEEE6secondB8ue170006Ev, symObjAddr: 0x167A0, symBinAddr: 0x1000645DC, symSize: 0x24 }
  - { offsetInCU: 0x1BA62, offset: 0xEB297, size: 0x8, addend: 0x0, symName: __ZNSt3__122__compressed_pair_elemINS_21__unordered_map_equalIiNS_17__hash_value_typeIiiEENS_8equal_toIiEENS_4hashIiEELb1EEELi1ELb1EE5__getB8ue170006Ev, symObjAddr: 0x167C4, symBinAddr: 0x100064600, symSize: 0x14 }
  - { offsetInCU: 0x1BA88, offset: 0xEB2BD, size: 0x8, addend: 0x0, symName: __ZNKSt3__18equal_toIiEclB8ue170006ERKiS3_, symObjAddr: 0x167D8, symBinAddr: 0x100064614, symSize: 0x10C }
  - { offsetInCU: 0x1BACC, offset: 0xEB301, size: 0x8, addend: 0x0, symName: __ZNKSt3__117__hash_value_typeIiiE11__get_valueB8ue170006Ev, symObjAddr: 0x168E4, symBinAddr: 0x100064720, symSize: 0x24 }
  - { offsetInCU: 0x1BAF2, offset: 0xEB327, size: 0x8, addend: 0x0, symName: __ZNSt3__115__hash_iteratorIPNS_11__hash_nodeINS_17__hash_value_typeIiiEEPvEEEC2B8ue170006EPNS_16__hash_node_baseIS6_EE, symObjAddr: 0x16940, symBinAddr: 0x10006477C, symSize: 0x70 }
  - { offsetInCU: 0x1BB2B, offset: 0xEB360, size: 0x8, addend: 0x0, symName: __ZNSt3__119__hash_map_iteratorINS_15__hash_iteratorIPNS_11__hash_nodeINS_17__hash_value_typeIiiEEPvEEEEEC2B8ue170006ES8_, symObjAddr: 0x169B0, symBinAddr: 0x1000647EC, symSize: 0x204 }
  - { offsetInCU: 0x1BB78, offset: 0xEB3AD, size: 0x8, addend: 0x0, symName: __ZNSt3__112__hash_tableINS_17__hash_value_typeIiiEENS_22__unordered_map_hasherIiS2_NS_4hashIiEENS_8equal_toIiEELb1EEENS_21__unordered_map_equalIiS2_S7_S5_Lb1EEENS_9allocatorIS2_EEE25__emplace_unique_key_argsIiJRKNS_21piecewise_construct_tENS_5tupleIJRKiEEENSI_IJEEEEEENS_4pairINS_15__hash_iteratorIPNS_11__hash_nodeIS2_PvEEEEbEERKT_DpOT0_, symObjAddr: 0x16C6C, symBinAddr: 0x100064AA8, symSize: 0xE04 }
  - { offsetInCU: 0x1BC8C, offset: 0xEB4C1, size: 0x8, addend: 0x0, symName: __ZNKSt3__115__hash_iteratorIPNS_11__hash_nodeINS_17__hash_value_typeIiiEEPvEEEptB8ue170006Ev, symObjAddr: 0x17C6C, symBinAddr: 0x100065AA4, symSize: 0x6C }
  - { offsetInCU: 0x1BCB2, offset: 0xEB4E7, size: 0x8, addend: 0x0, symName: __ZNSt3__112__hash_tableINS_17__hash_value_typeIiiEENS_22__unordered_map_hasherIiS2_NS_4hashIiEENS_8equal_toIiEELb1EEENS_21__unordered_map_equalIiS2_S7_S5_Lb1EEENS_9allocatorIS2_EEE21__construct_node_hashIRKNS_21piecewise_construct_tEJNS_5tupleIJRKiEEENSI_IJEEEEEENS_10unique_ptrINS_11__hash_nodeIS2_PvEENS_22__hash_node_destructorINSB_ISQ_EEEEEEmOT_DpOT0_, symObjAddr: 0x17CD8, symBinAddr: 0x100065B10, symSize: 0x428 }
  - { offsetInCU: 0x1BD55, offset: 0xEB58A, size: 0x8, addend: 0x0, symName: __ZNSt3__112__hash_tableINS_17__hash_value_typeIiiEENS_22__unordered_map_hasherIiS2_NS_4hashIiEENS_8equal_toIiEELb1EEENS_21__unordered_map_equalIiS2_S7_S5_Lb1EEENS_9allocatorIS2_EEE4sizeB8ue170006Ev, symObjAddr: 0x18100, symBinAddr: 0x100065F38, symSize: 0x28 }
  - { offsetInCU: 0x1BD7B, offset: 0xEB5B0, size: 0x8, addend: 0x0, symName: __ZNSt3__112__hash_tableINS_17__hash_value_typeIiiEENS_22__unordered_map_hasherIiS2_NS_4hashIiEENS_8equal_toIiEELb1EEENS_21__unordered_map_equalIiS2_S7_S5_Lb1EEENS_9allocatorIS2_EEE15max_load_factorB8ue170006Ev, symObjAddr: 0x18128, symBinAddr: 0x100065F60, symSize: 0x28 }
  - { offsetInCU: 0x1BDA1, offset: 0xEB5D6, size: 0x8, addend: 0x0, symName: __ZNSt3__112__hash_tableINS_17__hash_value_typeIiiEENS_22__unordered_map_hasherIiS2_NS_4hashIiEENS_8equal_toIiEELb1EEENS_21__unordered_map_equalIiS2_S7_S5_Lb1EEENS_9allocatorIS2_EEE15__rehash_uniqueB8ue170006Em, symObjAddr: 0x18150, symBinAddr: 0x100065F88, symSize: 0x2C }
  - { offsetInCU: 0x1BDD6, offset: 0xEB60B, size: 0x8, addend: 0x0, symName: __ZNSt3__116__hash_node_baseIPNS_11__hash_nodeINS_17__hash_value_typeIiiEEPvEEE5__ptrB8ue170006Ev, symObjAddr: 0x18210, symBinAddr: 0x100065FB4, symSize: 0x24 }
  - { offsetInCU: 0x1BDFC, offset: 0xEB631, size: 0x8, addend: 0x0, symName: __ZNKSt3__110unique_ptrINS_11__hash_nodeINS_17__hash_value_typeIiiEEPvEENS_22__hash_node_destructorINS_9allocatorIS5_EEEEEptB8ue170006Ev, symObjAddr: 0x18234, symBinAddr: 0x100065FD8, symSize: 0x6C }
  - { offsetInCU: 0x1BE22, offset: 0xEB657, size: 0x8, addend: 0x0, symName: __ZNKSt3__110unique_ptrINS_11__hash_nodeINS_17__hash_value_typeIiiEEPvEENS_22__hash_node_destructorINS_9allocatorIS5_EEEEE3getB8ue170006Ev, symObjAddr: 0x182A0, symBinAddr: 0x100066044, symSize: 0x6C }
  - { offsetInCU: 0x1BE48, offset: 0xEB67D, size: 0x8, addend: 0x0, symName: __ZNSt3__110unique_ptrINS_11__hash_nodeINS_17__hash_value_typeIiiEEPvEENS_22__hash_node_destructorINS_9allocatorIS5_EEEEE7releaseB8ue170006Ev, symObjAddr: 0x1830C, symBinAddr: 0x1000660B0, symSize: 0xB8 }
  - { offsetInCU: 0x1BE7D, offset: 0xEB6B2, size: 0x8, addend: 0x0, symName: __ZNSt3__110unique_ptrINS_11__hash_nodeINS_17__hash_value_typeIiiEEPvEENS_22__hash_node_destructorINS_9allocatorIS5_EEEEED1B8ue170006Ev, symObjAddr: 0x183C4, symBinAddr: 0x100066168, symSize: 0x2C }
  - { offsetInCU: 0x1BEAC, offset: 0xEB6E1, size: 0x8, addend: 0x0, symName: __ZNSt3__14pairINS_15__hash_iteratorIPNS_11__hash_nodeINS_17__hash_value_typeIiiEEPvEEEEbEC1B8ue170006IS8_RbLS5_0EEEOT_OT0_, symObjAddr: 0x183F0, symBinAddr: 0x100066194, symSize: 0x3C }
  - { offsetInCU: 0x1BF0A, offset: 0xEB73F, size: 0x8, addend: 0x0, symName: __ZNSt3__116allocator_traitsINS_9allocatorINS_11__hash_nodeINS_17__hash_value_typeIiiEEPvEEEEE8allocateB8ue170006ERS7_m, symObjAddr: 0x1842C, symBinAddr: 0x1000661D0, symSize: 0x2C }
  - { offsetInCU: 0x1BF3D, offset: 0xEB772, size: 0x8, addend: 0x0, symName: __ZNSt3__122__hash_node_destructorINS_9allocatorINS_11__hash_nodeINS_17__hash_value_typeIiiEEPvEEEEEC1B8ue170006ERS7_b, symObjAddr: 0x18458, symBinAddr: 0x1000661FC, symSize: 0x48 }
  - { offsetInCU: 0x1BF8A, offset: 0xEB7BF, size: 0x8, addend: 0x0, symName: __ZNSt3__110unique_ptrINS_11__hash_nodeINS_17__hash_value_typeIiiEEPvEENS_22__hash_node_destructorINS_9allocatorIS5_EEEEEC1B8ue170006ILb1EvEEPS5_NS_16__dependent_typeINS_27__unique_ptr_deleter_sfinaeIS9_EEXT_EE20__good_rval_ref_typeE, symObjAddr: 0x184A0, symBinAddr: 0x100066244, symSize: 0x3C }
  - { offsetInCU: 0x1BFDB, offset: 0xEB810, size: 0x8, addend: 0x0, symName: __ZNSt3__116allocator_traitsINS_9allocatorINS_11__hash_nodeINS_17__hash_value_typeIiiEEPvEEEEE9constructB8ue170006INS_4pairIKiiEEJRKNS_21piecewise_construct_tENS_5tupleIJRSB_EEENSG_IJEEEEvEEvRS7_PT_DpOT0_, symObjAddr: 0x184DC, symBinAddr: 0x100066280, symSize: 0x44 }
  - { offsetInCU: 0x1C05A, offset: 0xEB88F, size: 0x8, addend: 0x0, symName: __ZNSt3__110unique_ptrINS_11__hash_nodeINS_17__hash_value_typeIiiEEPvEENS_22__hash_node_destructorINS_9allocatorIS5_EEEEE11get_deleterB8ue170006Ev, symObjAddr: 0x18520, symBinAddr: 0x1000662C4, symSize: 0x24 }
  - { offsetInCU: 0x1C080, offset: 0xEB8B5, size: 0x8, addend: 0x0, symName: __ZNSt3__19allocatorINS_11__hash_nodeINS_17__hash_value_typeIiiEEPvEEE8allocateB8ue170006Em, symObjAddr: 0x18544, symBinAddr: 0x1000662E8, symSize: 0x60 }
  - { offsetInCU: 0x1C0BE, offset: 0xEB8F3, size: 0x8, addend: 0x0, symName: __ZNSt3__116allocator_traitsINS_9allocatorINS_11__hash_nodeINS_17__hash_value_typeIiiEEPvEEEEE8max_sizeB8ue170006IS7_vEEmRKS7_, symObjAddr: 0x185A4, symBinAddr: 0x100066348, symSize: 0x24 }
  - { offsetInCU: 0x1C0EC, offset: 0xEB921, size: 0x8, addend: 0x0, symName: __ZNKSt3__19allocatorINS_11__hash_nodeINS_17__hash_value_typeIiiEEPvEEE8max_sizeB8ue170006Ev, symObjAddr: 0x185C8, symBinAddr: 0x10006636C, symSize: 0x18 }
  - { offsetInCU: 0x1C112, offset: 0xEB947, size: 0x8, addend: 0x0, symName: __ZNSt3__122__hash_node_destructorINS_9allocatorINS_11__hash_nodeINS_17__hash_value_typeIiiEEPvEEEEEC2B8ue170006ERS7_b, symObjAddr: 0x185E0, symBinAddr: 0x100066384, symSize: 0xF0 }
  - { offsetInCU: 0x1C15A, offset: 0xEB98F, size: 0x8, addend: 0x0, symName: __ZNSt3__110unique_ptrINS_11__hash_nodeINS_17__hash_value_typeIiiEEPvEENS_22__hash_node_destructorINS_9allocatorIS5_EEEEEC2B8ue170006ILb1EvEEPS5_NS_16__dependent_typeINS_27__unique_ptr_deleter_sfinaeIS9_EEXT_EE20__good_rval_ref_typeE, symObjAddr: 0x186D0, symBinAddr: 0x100066474, symSize: 0x21C }
  - { offsetInCU: 0x1C1B1, offset: 0xEB9E6, size: 0x8, addend: 0x0, symName: __ZNSt3__117__compressed_pairIPNS_11__hash_nodeINS_17__hash_value_typeIiiEEPvEENS_22__hash_node_destructorINS_9allocatorIS5_EEEEEC1B8ue170006IRS6_SA_EEOT_OT0_, symObjAddr: 0x188EC, symBinAddr: 0x100066690, symSize: 0x3C }
  - { offsetInCU: 0x1C209, offset: 0xEBA3E, size: 0x8, addend: 0x0, symName: __ZNSt3__117__compressed_pairIPNS_11__hash_nodeINS_17__hash_value_typeIiiEEPvEENS_22__hash_node_destructorINS_9allocatorIS5_EEEEEC2B8ue170006IRS6_SA_EEOT_OT0_, symObjAddr: 0x18928, symBinAddr: 0x1000666CC, symSize: 0x48 }
  - { offsetInCU: 0x1C261, offset: 0xEBA96, size: 0x8, addend: 0x0, symName: __ZNSt3__122__compressed_pair_elemIPNS_11__hash_nodeINS_17__hash_value_typeIiiEEPvEELi0ELb0EEC2B8ue170006IRS6_vEEOT_, symObjAddr: 0x18970, symBinAddr: 0x100066714, symSize: 0xB0 }
  - { offsetInCU: 0x1C2A3, offset: 0xEBAD8, size: 0x8, addend: 0x0, symName: __ZNSt3__122__compressed_pair_elemINS_22__hash_node_destructorINS_9allocatorINS_11__hash_nodeINS_17__hash_value_typeIiiEEPvEEEEEELi1ELb0EEC2B8ue170006IS9_vEEOT_, symObjAddr: 0x18A20, symBinAddr: 0x1000667C4, symSize: 0x38 }
  - { offsetInCU: 0x1C2E5, offset: 0xEBB1A, size: 0x8, addend: 0x0, symName: __ZNSt3__19allocatorINS_11__hash_nodeINS_17__hash_value_typeIiiEEPvEEE9constructB8ue170006INS_4pairIKiiEEJRKNS_21piecewise_construct_tENS_5tupleIJRS9_EEENSE_IJEEEEEEvPT_DpOT0_, symObjAddr: 0x18A58, symBinAddr: 0x1000667FC, symSize: 0x214 }
  - { offsetInCU: 0x1C366, offset: 0xEBB9B, size: 0x8, addend: 0x0, symName: __ZNSt3__14pairIKiiEC1B8ue170006IJRS1_EJEEENS_21piecewise_construct_tENS_5tupleIJDpT_EEENS6_IJDpT0_EEE, symObjAddr: 0x18C6C, symBinAddr: 0x100066A10, symSize: 0x248 }
  - { offsetInCU: 0x1C3D7, offset: 0xEBC0C, size: 0x8, addend: 0x0, symName: __ZNSt3__14pairIKiiEC1B8ue170006IJRS1_EJEJLm0EEJEEENS_21piecewise_construct_tERNS_5tupleIJDpT_EEERNS6_IJDpT0_EEENS_15__tuple_indicesIJXspT1_EEEENSF_IJXspT2_EEEE, symObjAddr: 0x18EB4, symBinAddr: 0x100066C58, symSize: 0x3C }
  - { offsetInCU: 0x1C464, offset: 0xEBC99, size: 0x8, addend: 0x0, symName: __ZNSt3__14pairIKiiEC2B8ue170006IJRS1_EJEJLm0EEJEEENS_21piecewise_construct_tERNS_5tupleIJDpT_EEERNS6_IJDpT0_EEENS_15__tuple_indicesIJXspT1_EEEENSF_IJXspT2_EEEE, symObjAddr: 0x18EF0, symBinAddr: 0x100066C94, symSize: 0x16C }
  - { offsetInCU: 0x1C4F1, offset: 0xEBD26, size: 0x8, addend: 0x0, symName: __ZNSt3__112__tuple_leafILm0ERKiLb0EE3getB8ue170006Ev, symObjAddr: 0x19080, symBinAddr: 0x100066E24, symSize: 0x60 }
  - { offsetInCU: 0x1C517, offset: 0xEBD4C, size: 0x8, addend: 0x0, symName: __ZNSt3__117__compressed_pairIPNS_11__hash_nodeINS_17__hash_value_typeIiiEEPvEENS_22__hash_node_destructorINS_9allocatorIS5_EEEEE6secondB8ue170006Ev, symObjAddr: 0x190E0, symBinAddr: 0x100066E84, symSize: 0x28 }
  - { offsetInCU: 0x1C53D, offset: 0xEBD72, size: 0x8, addend: 0x0, symName: __ZNSt3__122__compressed_pair_elemINS_22__hash_node_destructorINS_9allocatorINS_11__hash_nodeINS_17__hash_value_typeIiiEEPvEEEEEELi1ELb0EE5__getB8ue170006Ev, symObjAddr: 0x19108, symBinAddr: 0x100066EAC, symSize: 0x14 }
  - { offsetInCU: 0x1C563, offset: 0xEBD98, size: 0x8, addend: 0x0, symName: __ZNSt3__117__compressed_pairImNS_22__unordered_map_hasherIiNS_17__hash_value_typeIiiEENS_4hashIiEENS_8equal_toIiEELb1EEEE5firstB8ue170006Ev, symObjAddr: 0x1911C, symBinAddr: 0x100066EC0, symSize: 0x24 }
  - { offsetInCU: 0x1C589, offset: 0xEBDBE, size: 0x8, addend: 0x0, symName: __ZNSt3__117__compressed_pairIfNS_21__unordered_map_equalIiNS_17__hash_value_typeIiiEENS_8equal_toIiEENS_4hashIiEELb1EEEE5firstB8ue170006Ev, symObjAddr: 0x19140, symBinAddr: 0x100066EE4, symSize: 0x24 }
  - { offsetInCU: 0x1C5AF, offset: 0xEBDE4, size: 0x8, addend: 0x0, symName: __ZNSt3__112__hash_tableINS_17__hash_value_typeIiiEENS_22__unordered_map_hasherIiS2_NS_4hashIiEENS_8equal_toIiEELb1EEENS_21__unordered_map_equalIiS2_S7_S5_Lb1EEENS_9allocatorIS2_EEE8__rehashILb1EEEvm, symObjAddr: 0x19178, symBinAddr: 0x100066F08, symSize: 0x784 }
  - { offsetInCU: 0x1C605, offset: 0xEBE3A, size: 0x8, addend: 0x0, symName: __ZNSt3__112__hash_tableINS_17__hash_value_typeIiiEENS_22__unordered_map_hasherIiS2_NS_4hashIiEENS_8equal_toIiEELb1EEENS_21__unordered_map_equalIiS2_S7_S5_Lb1EEENS_9allocatorIS2_EEE11__do_rehashILb1EEEvm, symObjAddr: 0x198FC, symBinAddr: 0x10006768C, symSize: 0x5BC }
  - { offsetInCU: 0x1C6EA, offset: 0xEBF1F, size: 0x8, addend: 0x0, symName: __ZNSt3__110unique_ptrIA_PNS_16__hash_node_baseIPNS_11__hash_nodeINS_17__hash_value_typeIiiEEPvEEEENS_25__bucket_list_deallocatorINS_9allocatorIS9_EEEEE11get_deleterB8ue170006Ev, symObjAddr: 0x19F24, symBinAddr: 0x100067C48, symSize: 0x24 }
  - { offsetInCU: 0x1C710, offset: 0xEBF45, size: 0x8, addend: 0x0, symName: __ZNSt3__110unique_ptrIA_PNS_16__hash_node_baseIPNS_11__hash_nodeINS_17__hash_value_typeIiiEEPvEEEENS_25__bucket_list_deallocatorINS_9allocatorIS9_EEEEE5resetB8ue170006IPS9_EENS_9enable_ifIXsr28_CheckArrayPointerConversionIT_EE5valueEvE4typeESJ_, symObjAddr: 0x19F48, symBinAddr: 0x100067C6C, symSize: 0xEC }
  - { offsetInCU: 0x1C75D, offset: 0xEBF92, size: 0x8, addend: 0x0, symName: __ZNSt3__116allocator_traitsINS_9allocatorIPNS_16__hash_node_baseIPNS_11__hash_nodeINS_17__hash_value_typeIiiEEPvEEEEEEE8allocateB8ue170006ERSB_m, symObjAddr: 0x1A034, symBinAddr: 0x100067D58, symSize: 0x2C }
  - { offsetInCU: 0x1C790, offset: 0xEBFC5, size: 0x8, addend: 0x0, symName: __ZNSt3__19allocatorIPNS_16__hash_node_baseIPNS_11__hash_nodeINS_17__hash_value_typeIiiEEPvEEEEE8allocateB8ue170006Em, symObjAddr: 0x1A060, symBinAddr: 0x100067D84, symSize: 0x5C }
  - { offsetInCU: 0x1C7CE, offset: 0xEC003, size: 0x8, addend: 0x0, symName: __ZNSt3__116allocator_traitsINS_9allocatorIPNS_16__hash_node_baseIPNS_11__hash_nodeINS_17__hash_value_typeIiiEEPvEEEEEEE8max_sizeB8ue170006ISB_vEEmRKSB_, symObjAddr: 0x1A0BC, symBinAddr: 0x100067DE0, symSize: 0x24 }
  - { offsetInCU: 0x1C7FC, offset: 0xEC031, size: 0x8, addend: 0x0, symName: __ZNKSt3__19allocatorIPNS_16__hash_node_baseIPNS_11__hash_nodeINS_17__hash_value_typeIiiEEPvEEEEE8max_sizeB8ue170006Ev, symObjAddr: 0x1A0E0, symBinAddr: 0x100067E04, symSize: 0x14 }
  - { offsetInCU: 0x1C822, offset: 0xEC057, size: 0x8, addend: 0x0, symName: __ZNKSt3__117__compressed_pairIPNS_11__hash_nodeINS_17__hash_value_typeIiiEEPvEENS_22__hash_node_destructorINS_9allocatorIS5_EEEEE5firstB8ue170006Ev, symObjAddr: 0x1A2F8, symBinAddr: 0x100067E18, symSize: 0x24 }
  - { offsetInCU: 0x1C848, offset: 0xEC07D, size: 0x8, addend: 0x0, symName: __ZNKSt3__122__compressed_pair_elemIPNS_11__hash_nodeINS_17__hash_value_typeIiiEEPvEELi0ELb0EE5__getB8ue170006Ev, symObjAddr: 0x1A31C, symBinAddr: 0x100067E3C, symSize: 0x14 }
  - { offsetInCU: 0x1C86E, offset: 0xEC0A3, size: 0x8, addend: 0x0, symName: __ZNSt3__117__compressed_pairIPNS_11__hash_nodeINS_17__hash_value_typeIiiEEPvEENS_22__hash_node_destructorINS_9allocatorIS5_EEEEE5firstB8ue170006Ev, symObjAddr: 0x1A330, symBinAddr: 0x100067E50, symSize: 0x24 }
  - { offsetInCU: 0x1C894, offset: 0xEC0C9, size: 0x8, addend: 0x0, symName: __ZNSt3__122__compressed_pair_elemIPNS_11__hash_nodeINS_17__hash_value_typeIiiEEPvEELi0ELb0EE5__getB8ue170006Ev, symObjAddr: 0x1A354, symBinAddr: 0x100067E74, symSize: 0x14 }
  - { offsetInCU: 0x1C8BA, offset: 0xEC0EF, size: 0x8, addend: 0x0, symName: __ZNSt3__110unique_ptrINS_11__hash_nodeINS_17__hash_value_typeIiiEEPvEENS_22__hash_node_destructorINS_9allocatorIS5_EEEEED2B8ue170006Ev, symObjAddr: 0x1A368, symBinAddr: 0x100067E88, symSize: 0x30 }
  - { offsetInCU: 0x1C8E4, offset: 0xEC119, size: 0x8, addend: 0x0, symName: __ZNSt3__110unique_ptrINS_11__hash_nodeINS_17__hash_value_typeIiiEEPvEENS_22__hash_node_destructorINS_9allocatorIS5_EEEEE5resetB8ue170006EPS5_, symObjAddr: 0x1A398, symBinAddr: 0x100067EB8, symSize: 0xEC }
  - { offsetInCU: 0x1C928, offset: 0xEC15D, size: 0x8, addend: 0x0, symName: __ZNSt3__122__hash_node_destructorINS_9allocatorINS_11__hash_nodeINS_17__hash_value_typeIiiEEPvEEEEEclB8ue170006EPS6_, symObjAddr: 0x1A484, symBinAddr: 0x100067FA4, symSize: 0x164 }
  - { offsetInCU: 0x1C95D, offset: 0xEC192, size: 0x8, addend: 0x0, symName: __ZNSt3__14pairINS_15__hash_iteratorIPNS_11__hash_nodeINS_17__hash_value_typeIiiEEPvEEEEbEC2B8ue170006IS8_RbLS5_0EEEOT_OT0_, symObjAddr: 0x1A5E8, symBinAddr: 0x100068108, symSize: 0x120 }
  - { offsetInCU: 0x1C9BB, offset: 0xEC1F0, size: 0x8, addend: 0x0, symName: __ZNSt3__15tupleIJRKiEEC1B8ue170006INS_4_AndELi0EEES2_, symObjAddr: 0x1A708, symBinAddr: 0x100068228, symSize: 0x34 }
  - { offsetInCU: 0x1CA04, offset: 0xEC239, size: 0x8, addend: 0x0, symName: __ZNSt3__15tupleIJRKiEEC2B8ue170006INS_4_AndELi0EEES2_, symObjAddr: 0x1A73C, symBinAddr: 0x10006825C, symSize: 0x34 }
  - { offsetInCU: 0x1CA4D, offset: 0xEC282, size: 0x8, addend: 0x0, symName: __ZNSt3__112__tuple_implINS_15__tuple_indicesIJLm0EEEEJRKiEEC1B8ue170006IJLm0EEJS4_EJEJEJS4_EEENS1_IJXspT_EEEENS_13__tuple_typesIJDpT0_EEENS1_IJXspT1_EEEENS8_IJDpT2_EEEDpOT3_, symObjAddr: 0x1A770, symBinAddr: 0x100068290, symSize: 0x34 }
  - { offsetInCU: 0x1CADE, offset: 0xEC313, size: 0x8, addend: 0x0, symName: __ZNSt3__112__tuple_implINS_15__tuple_indicesIJLm0EEEEJRKiEEC2B8ue170006IJLm0EEJS4_EJEJEJS4_EEENS1_IJXspT_EEEENS_13__tuple_typesIJDpT0_EEENS1_IJXspT1_EEEENS8_IJDpT2_EEEDpOT3_, symObjAddr: 0x1A7A4, symBinAddr: 0x1000682C4, symSize: 0x34 }
  - { offsetInCU: 0x1CB6F, offset: 0xEC3A4, size: 0x8, addend: 0x0, symName: __ZNSt3__112__tuple_leafILm0ERKiLb0EEC2B8ue170006IS2_vEEOT_, symObjAddr: 0x1A7D8, symBinAddr: 0x1000682F8, symSize: 0x70 }
  - { offsetInCU: 0x1CBB2, offset: 0xEC3E7, size: 0x8, addend: 0x0, symName: __ZNSt3__114pointer_traitsIPNS_17__hash_value_typeIiiEEE10pointer_toB8ue170006ERS2_, symObjAddr: 0x1A848, symBinAddr: 0x100068368, symSize: 0x14 }
  - { offsetInCU: 0x1CC07, offset: 0xEC43C, size: 0x8, addend: 0x0, symName: __ZNSt3__16vectorIP10ConnectionNS_9allocatorIS2_EEE9__end_capB8ue170006Ev, symObjAddr: 0x21DCC, symBinAddr: 0x10006837C, symSize: 0x28 }
  - { offsetInCU: 0x1CC32, offset: 0xEC467, size: 0x8, addend: 0x0, symName: __ZNSt3__16vectorIP10ConnectionNS_9allocatorIS2_EEE22__construct_one_at_endB8ue170006IJS2_EEEvDpOT_, symObjAddr: 0x21DF4, symBinAddr: 0x1000683A4, symSize: 0x36C }
  - { offsetInCU: 0x1CC87, offset: 0xEC4BC, size: 0x8, addend: 0x0, symName: __ZNSt3__16vectorIP10ConnectionNS_9allocatorIS2_EEE21__push_back_slow_pathIS2_EEvOT_, symObjAddr: 0x22160, symBinAddr: 0x100068710, symSize: 0x3C0 }
  - { offsetInCU: 0x1CCEC, offset: 0xEC521, size: 0x8, addend: 0x0, symName: __ZNSt3__117__compressed_pairIPP10ConnectionNS_9allocatorIS2_EEE5firstB8ue170006Ev, symObjAddr: 0x22520, symBinAddr: 0x100068AD0, symSize: 0x24 }
  - { offsetInCU: 0x1CD12, offset: 0xEC547, size: 0x8, addend: 0x0, symName: __ZNSt3__122__compressed_pair_elemIPP10ConnectionLi0ELb0EE5__getB8ue170006Ev, symObjAddr: 0x22544, symBinAddr: 0x100068AF4, symSize: 0x14 }
  - { offsetInCU: 0x1CD51, offset: 0xEC586, size: 0x8, addend: 0x0, symName: __ZNSt3__16vectorIP10ConnectionNS_9allocatorIS2_EEE21_ConstructTransactionC1B8ue170006ERS5_m, symObjAddr: 0x22558, symBinAddr: 0x100068B08, symSize: 0x3C }
  - { offsetInCU: 0x1CD99, offset: 0xEC5CE, size: 0x8, addend: 0x0, symName: __ZNSt3__116allocator_traitsINS_9allocatorIP10ConnectionEEE9constructB8ue170006IS3_JS3_EvEEvRS4_PT_DpOT0_, symObjAddr: 0x22594, symBinAddr: 0x100068B44, symSize: 0x34 }
  - { offsetInCU: 0x1CDF0, offset: 0xEC625, size: 0x8, addend: 0x0, symName: __ZNSt3__16vectorIP10ConnectionNS_9allocatorIS2_EEE21_ConstructTransactionD1B8ue170006Ev, symObjAddr: 0x225C8, symBinAddr: 0x100068B78, symSize: 0x2C }
  - { offsetInCU: 0x1CE1A, offset: 0xEC64F, size: 0x8, addend: 0x0, symName: __ZNSt3__16vectorIP10ConnectionNS_9allocatorIS2_EEE21_ConstructTransactionC2B8ue170006ERS5_m, symObjAddr: 0x225F4, symBinAddr: 0x100068BA4, symSize: 0x1D0 }
  - { offsetInCU: 0x1CE62, offset: 0xEC697, size: 0x8, addend: 0x0, symName: __ZNKSt3__16vectorIP10ConnectionNS_9allocatorIS2_EEE19__annotate_increaseB8ue170006Em, symObjAddr: 0x227C4, symBinAddr: 0x100068D74, symSize: 0xD8 }
  - { offsetInCU: 0x1CE97, offset: 0xEC6CC, size: 0x8, addend: 0x0, symName: __ZNSt3__19allocatorIP10ConnectionE9constructB8ue170006IS2_JS2_EEEvPT_DpOT0_, symObjAddr: 0x2289C, symBinAddr: 0x100068E4C, symSize: 0xB4 }
  - { offsetInCU: 0x1CEED, offset: 0xEC722, size: 0x8, addend: 0x0, symName: __ZNSt3__16vectorIP10ConnectionNS_9allocatorIS2_EEE21_ConstructTransactionD2B8ue170006Ev, symObjAddr: 0x22950, symBinAddr: 0x100068F00, symSize: 0x278 }
  - { offsetInCU: 0x1CF17, offset: 0xEC74C, size: 0x8, addend: 0x0, symName: __ZNKSt3__16vectorIP10ConnectionNS_9allocatorIS2_EEE17__annotate_shrinkB8ue170006Em, symObjAddr: 0x22BC8, symBinAddr: 0x100069178, symSize: 0xC8 }
  - { offsetInCU: 0x1CF4C, offset: 0xEC781, size: 0x8, addend: 0x0, symName: __ZNKSt3__16vectorIP10ConnectionNS_9allocatorIS2_EEE11__recommendB8ue170006Em, symObjAddr: 0x22C90, symBinAddr: 0x100069240, symSize: 0x384 }
  - { offsetInCU: 0x1CFA8, offset: 0xEC7DD, size: 0x8, addend: 0x0, symName: __ZNSt3__114__split_bufferIP10ConnectionRNS_9allocatorIS2_EEEC1EmmS5_, symObjAddr: 0x23014, symBinAddr: 0x1000695C4, symSize: 0x44 }
  - { offsetInCU: 0x1CFFE, offset: 0xEC833, size: 0x8, addend: 0x0, symName: __ZNSt3__114__split_bufferIP10ConnectionRNS_9allocatorIS2_EEED1Ev, symObjAddr: 0x235C4, symBinAddr: 0x100069B74, symSize: 0x2C }
  - { offsetInCU: 0x1D02A, offset: 0xEC85F, size: 0x8, addend: 0x0, symName: __ZNKSt3__16vectorIP10ConnectionNS_9allocatorIS2_EEE8max_sizeEv, symObjAddr: 0x235F0, symBinAddr: 0x100069BA0, symSize: 0x2FC }
  - { offsetInCU: 0x1D053, offset: 0xEC888, size: 0x8, addend: 0x0, symName: __ZNKSt3__16vectorIP10ConnectionNS_9allocatorIS2_EEE20__throw_length_errorB8ue170006Ev, symObjAddr: 0x238EC, symBinAddr: 0x100069E9C, symSize: 0x20 }
  - { offsetInCU: 0x1D083, offset: 0xEC8B8, size: 0x8, addend: 0x0, symName: __ZNSt3__116allocator_traitsINS_9allocatorIP10ConnectionEEE8max_sizeB8ue170006IS4_vEEmRKS4_, symObjAddr: 0x2390C, symBinAddr: 0x100069EBC, symSize: 0x24 }
  - { offsetInCU: 0x1D0B1, offset: 0xEC8E6, size: 0x8, addend: 0x0, symName: __ZNKSt3__16vectorIP10ConnectionNS_9allocatorIS2_EEE7__allocB8ue170006Ev, symObjAddr: 0x23930, symBinAddr: 0x100069EE0, symSize: 0x28 }
  - { offsetInCU: 0x1D0D7, offset: 0xEC90C, size: 0x8, addend: 0x0, symName: __ZNKSt3__19allocatorIP10ConnectionE8max_sizeB8ue170006Ev, symObjAddr: 0x23958, symBinAddr: 0x100069F08, symSize: 0x14 }
  - { offsetInCU: 0x1D0FD, offset: 0xEC932, size: 0x8, addend: 0x0, symName: __ZNKSt3__117__compressed_pairIPP10ConnectionNS_9allocatorIS2_EEE6secondB8ue170006Ev, symObjAddr: 0x2396C, symBinAddr: 0x100069F1C, symSize: 0x24 }
  - { offsetInCU: 0x1D123, offset: 0xEC958, size: 0x8, addend: 0x0, symName: __ZNKSt3__122__compressed_pair_elemINS_9allocatorIP10ConnectionEELi1ELb1EE5__getB8ue170006Ev, symObjAddr: 0x23990, symBinAddr: 0x100069F40, symSize: 0x14 }
  - { offsetInCU: 0x1D149, offset: 0xEC97E, size: 0x8, addend: 0x0, symName: __ZNSt3__114__split_bufferIP10ConnectionRNS_9allocatorIS2_EEEC2EmmS5_, symObjAddr: 0x239A4, symBinAddr: 0x100069F54, symSize: 0x520 }
  - { offsetInCU: 0x1D1C4, offset: 0xEC9F9, size: 0x8, addend: 0x0, symName: __ZNSt3__117__compressed_pairIPP10ConnectionRNS_9allocatorIS2_EEEC1B8ue170006IDnS6_EEOT_OT0_, symObjAddr: 0x23EC4, symBinAddr: 0x10006A474, symSize: 0x3C }
  - { offsetInCU: 0x1D21C, offset: 0xECA51, size: 0x8, addend: 0x0, symName: __ZNSt3__114__split_bufferIP10ConnectionRNS_9allocatorIS2_EEE7__allocB8ue170006Ev, symObjAddr: 0x2418C, symBinAddr: 0x10006A73C, symSize: 0x28 }
  - { offsetInCU: 0x1D242, offset: 0xECA77, size: 0x8, addend: 0x0, symName: __ZNSt3__114__split_bufferIP10ConnectionRNS_9allocatorIS2_EEE9__end_capB8ue170006Ev, symObjAddr: 0x241B4, symBinAddr: 0x10006A764, symSize: 0x28 }
  - { offsetInCU: 0x1D268, offset: 0xECA9D, size: 0x8, addend: 0x0, symName: __ZNSt3__117__compressed_pairIPP10ConnectionRNS_9allocatorIS2_EEEC2B8ue170006IDnS6_EEOT_OT0_, symObjAddr: 0x241DC, symBinAddr: 0x10006A78C, symSize: 0x48 }
  - { offsetInCU: 0x1D2C0, offset: 0xECAF5, size: 0x8, addend: 0x0, symName: __ZNSt3__122__compressed_pair_elemIPP10ConnectionLi0ELb0EEC2B8ue170006IDnvEEOT_, symObjAddr: 0x24224, symBinAddr: 0x10006A7D4, symSize: 0x64 }
  - { offsetInCU: 0x1D302, offset: 0xECB37, size: 0x8, addend: 0x0, symName: __ZNSt3__122__compressed_pair_elemIRNS_9allocatorIP10ConnectionEELi1ELb0EEC2B8ue170006IS5_vEEOT_, symObjAddr: 0x24288, symBinAddr: 0x10006A838, symSize: 0x70 }
  - { offsetInCU: 0x1D344, offset: 0xECB79, size: 0x8, addend: 0x0, symName: __ZNSt3__19allocatorIP10ConnectionE8allocateB8ue170006Em, symObjAddr: 0x242F8, symBinAddr: 0x10006A8A8, symSize: 0x5C }
  - { offsetInCU: 0x1D378, offset: 0xECBAD, size: 0x8, addend: 0x0, symName: __ZNSt3__117__compressed_pairIPP10ConnectionRNS_9allocatorIS2_EEE6secondB8ue170006Ev, symObjAddr: 0x24354, symBinAddr: 0x10006A904, symSize: 0x28 }
  - { offsetInCU: 0x1D39E, offset: 0xECBD3, size: 0x8, addend: 0x0, symName: __ZNSt3__122__compressed_pair_elemIRNS_9allocatorIP10ConnectionEELi1ELb0EE5__getB8ue170006Ev, symObjAddr: 0x2437C, symBinAddr: 0x10006A92C, symSize: 0x60 }
  - { offsetInCU: 0x1D3C4, offset: 0xECBF9, size: 0x8, addend: 0x0, symName: __ZNSt3__117__compressed_pairIPP10ConnectionRNS_9allocatorIS2_EEE5firstB8ue170006Ev, symObjAddr: 0x243DC, symBinAddr: 0x10006A98C, symSize: 0x24 }
  - { offsetInCU: 0x1D3EA, offset: 0xECC1F, size: 0x8, addend: 0x0, symName: __ZNSt3__116reverse_iteratorIPP10ConnectionEC1B8ue170006ES3_, symObjAddr: 0x248A8, symBinAddr: 0x10006AE58, symSize: 0x34 }
  - { offsetInCU: 0x1D422, offset: 0xECC57, size: 0x8, addend: 0x0, symName: __ZNKSt3__116reverse_iteratorIPP10ConnectionE4baseB8ue170006Ev, symObjAddr: 0x248DC, symBinAddr: 0x10006AE8C, symSize: 0x64 }
  - { offsetInCU: 0x1D448, offset: 0xECC7D, size: 0x8, addend: 0x0, symName: __ZNKSt3__16vectorIP10ConnectionNS_9allocatorIS2_EEE14__annotate_newB8ue170006Em, symObjAddr: 0x24A74, symBinAddr: 0x10006B024, symSize: 0xC0 }
  - { offsetInCU: 0x1D496, offset: 0xECCCB, size: 0x8, addend: 0x0, symName: __ZNKSt3__111__move_loopINS_17_ClassicAlgPolicyEEclB8ue170006INS_16reverse_iteratorIPP10ConnectionEES8_S8_EENS_4pairIT_T1_EESA_T0_SB_, symObjAddr: 0x264F4, symBinAddr: 0x10006CAA4, symSize: 0x3A8 }
  - { offsetInCU: 0x1D50E, offset: 0xECD43, size: 0x8, addend: 0x0, symName: __ZNSt3__18_IterOpsINS_17_ClassicAlgPolicyEE11__iter_moveB8ue170006IRNS_16reverse_iteratorIPP10ConnectionEEEENS_9enable_ifIXsr12is_referenceIDTdeclsr3stdE7declvalIRT_EEEEE5valueEDTclsr3stdE4movedeclsr3stdE7declvalISC_EEEEE4typeEOSB_, symObjAddr: 0x273C4, symBinAddr: 0x10006D974, symSize: 0x28 }
  - { offsetInCU: 0x1D53A, offset: 0xECD6F, size: 0x8, addend: 0x0, symName: __ZNKSt3__116reverse_iteratorIPP10ConnectionEdeB8ue170006Ev, symObjAddr: 0x273EC, symBinAddr: 0x10006D99C, symSize: 0x74 }
  - { offsetInCU: 0x1D56E, offset: 0xECDA3, size: 0x8, addend: 0x0, symName: __ZNSt3__116reverse_iteratorIPP10ConnectionEppB8ue170006Ev, symObjAddr: 0x27460, symBinAddr: 0x10006DA10, symSize: 0x6C }
  - { offsetInCU: 0x1D594, offset: 0xECDC9, size: 0x8, addend: 0x0, symName: __ZNSt3__18_IterOpsINS_17_ClassicAlgPolicyEE25__validate_iter_referenceB8ue170006IRNS_16reverse_iteratorIPP10ConnectionEEEEvv, symObjAddr: 0x274CC, symBinAddr: 0x10006DA7C, symSize: 0x4 }
  - { offsetInCU: 0x1D5B2, offset: 0xECDE7, size: 0x8, addend: 0x0, symName: __ZNSt3__118__unwrap_iter_implINS_16reverse_iteratorIPP10ConnectionEELb0EE8__unwrapB8ue170006ES5_, symObjAddr: 0x274D0, symBinAddr: 0x10006DA80, symSize: 0x274 }
  - { offsetInCU: 0x1D5DE, offset: 0xECE13, size: 0x8, addend: 0x0, symName: __ZNSt3__14pairINS_16reverse_iteratorIPP10ConnectionEES5_EC1B8ue170006IS5_S5_LPv0EEEOT_OT0_, symObjAddr: 0x27744, symBinAddr: 0x10006DCF4, symSize: 0x3C }
  - { offsetInCU: 0x1D63C, offset: 0xECE71, size: 0x8, addend: 0x0, symName: __ZNSt3__14pairINS_16reverse_iteratorIPP10ConnectionEES5_EC2B8ue170006IS5_S5_LPv0EEEOT_OT0_, symObjAddr: 0x27780, symBinAddr: 0x10006DD30, symSize: 0x54 }
  - { offsetInCU: 0x1D69A, offset: 0xECECF, size: 0x8, addend: 0x0, symName: __ZNSt3__118__unwrap_iter_implINS_16reverse_iteratorIPP10ConnectionEELb0EE8__rewrapB8ue170006ES5_S5_, symObjAddr: 0x277D4, symBinAddr: 0x10006DD84, symSize: 0x2E0 }
  - { offsetInCU: 0x1D6CF, offset: 0xECF04, size: 0x8, addend: 0x0, symName: __ZNSt3__116reverse_iteratorIPP10ConnectionEC2B8ue170006ES3_, symObjAddr: 0x27AB4, symBinAddr: 0x10006E064, symSize: 0xB8 }
  - { offsetInCU: 0x1D707, offset: 0xECF3C, size: 0x8, addend: 0x0, symName: __ZNSt3__114__split_bufferIP10ConnectionRNS_9allocatorIS2_EEED2Ev, symObjAddr: 0x27B6C, symBinAddr: 0x10006E11C, symSize: 0x104 }
  - { offsetInCU: 0x1D733, offset: 0xECF68, size: 0x8, addend: 0x0, symName: __ZNSt3__114__split_bufferIP10ConnectionRNS_9allocatorIS2_EEE5clearB8ue170006Ev, symObjAddr: 0x27C70, symBinAddr: 0x10006E220, symSize: 0x68 }
  - { offsetInCU: 0x1D759, offset: 0xECF8E, size: 0x8, addend: 0x0, symName: __ZNKSt3__114__split_bufferIP10ConnectionRNS_9allocatorIS2_EEE8capacityB8ue170006Ev, symObjAddr: 0x27CD8, symBinAddr: 0x10006E288, symSize: 0xBC }
  - { offsetInCU: 0x1D77F, offset: 0xECFB4, size: 0x8, addend: 0x0, symName: __ZNSt3__114__split_bufferIP10ConnectionRNS_9allocatorIS2_EEE17__destruct_at_endB8ue170006EPS2_, symObjAddr: 0x27D94, symBinAddr: 0x10006E344, symSize: 0x2C }
  - { offsetInCU: 0x1D7B3, offset: 0xECFE8, size: 0x8, addend: 0x0, symName: __ZNSt3__114__split_bufferIP10ConnectionRNS_9allocatorIS2_EEE17__destruct_at_endB8ue170006EPS2_NS_17integral_constantIbLb0EEE, symObjAddr: 0x27DC0, symBinAddr: 0x10006E370, symSize: 0x10C }
  - { offsetInCU: 0x1D7F3, offset: 0xED028, size: 0x8, addend: 0x0, symName: __ZNKSt3__114__split_bufferIP10ConnectionRNS_9allocatorIS2_EEE9__end_capB8ue170006Ev, symObjAddr: 0x27ECC, symBinAddr: 0x10006E47C, symSize: 0x28 }
  - { offsetInCU: 0x1D819, offset: 0xED04E, size: 0x8, addend: 0x0, symName: __ZNKSt3__117__compressed_pairIPP10ConnectionRNS_9allocatorIS2_EEE5firstB8ue170006Ev, symObjAddr: 0x27EF4, symBinAddr: 0x10006E4A4, symSize: 0x24 }
  - { offsetInCU: 0x1D83F, offset: 0xED074, size: 0x8, addend: 0x0, symName: __ZNSt3__112__hash_tableINS_17__hash_value_typeIP4NodeP4EdgeEENS_22__unordered_map_hasherIS3_S6_NS_4hashIS3_EENS_8equal_toIS3_EELb1EEENS_21__unordered_map_equalIS3_S6_SB_S9_Lb1EEENS_9allocatorIS6_EEE25__emplace_unique_key_argsIS3_JRKNS_21piecewise_construct_tENS_5tupleIJRKS3_EEENSM_IJEEEEEENS_4pairINS_15__hash_iteratorIPNS_11__hash_nodeIS6_PvEEEEbEERKT_DpOT0_, symObjAddr: 0x27F18, symBinAddr: 0x10006E4C8, symSize: 0xE04 }
  - { offsetInCU: 0x1D953, offset: 0xED188, size: 0x8, addend: 0x0, symName: __ZNSt3__112__hash_tableINS_17__hash_value_typeIP4NodeP4EdgeEENS_22__unordered_map_hasherIS3_S6_NS_4hashIS3_EENS_8equal_toIS3_EELb1EEENS_21__unordered_map_equalIS3_S6_SB_S9_Lb1EEENS_9allocatorIS6_EEE13hash_functionB8ue170006Ev, symObjAddr: 0x28F80, symBinAddr: 0x10006F2CC, symSize: 0x28 }
  - { offsetInCU: 0x1D979, offset: 0xED1AE, size: 0x8, addend: 0x0, symName: __ZNKSt3__122__unordered_map_hasherIP4NodeNS_17__hash_value_typeIS2_P4EdgeEENS_4hashIS2_EENS_8equal_toIS2_EELb1EEclB8ue170006ERKS2_, symObjAddr: 0x28FA8, symBinAddr: 0x10006F2F4, symSize: 0x74 }
  - { offsetInCU: 0x1D9AE, offset: 0xED1E3, size: 0x8, addend: 0x0, symName: __ZNKSt3__112__hash_tableINS_17__hash_value_typeIP4NodeP4EdgeEENS_22__unordered_map_hasherIS3_S6_NS_4hashIS3_EENS_8equal_toIS3_EELb1EEENS_21__unordered_map_equalIS3_S6_SB_S9_Lb1EEENS_9allocatorIS6_EEE12bucket_countB8ue170006Ev, symObjAddr: 0x2901C, symBinAddr: 0x10006F368, symSize: 0x28 }
  - { offsetInCU: 0x1D9D4, offset: 0xED209, size: 0x8, addend: 0x0, symName: __ZNKSt3__110unique_ptrIA_PNS_16__hash_node_baseIPNS_11__hash_nodeINS_17__hash_value_typeIP4NodeP4EdgeEEPvEEEENS_25__bucket_list_deallocatorINS_9allocatorISD_EEEEEixB8ue170006Em, symObjAddr: 0x29044, symBinAddr: 0x10006F390, symSize: 0x78 }
  - { offsetInCU: 0x1DA09, offset: 0xED23E, size: 0x8, addend: 0x0, symName: __ZNKSt3__116__hash_node_baseIPNS_11__hash_nodeINS_17__hash_value_typeIP4NodeP4EdgeEEPvEEE6__hashB8ue170006Ev, symObjAddr: 0x290BC, symBinAddr: 0x10006F408, symSize: 0x64 }
  - { offsetInCU: 0x1DA2F, offset: 0xED264, size: 0x8, addend: 0x0, symName: __ZNSt3__112__hash_tableINS_17__hash_value_typeIP4NodeP4EdgeEENS_22__unordered_map_hasherIS3_S6_NS_4hashIS3_EENS_8equal_toIS3_EELb1EEENS_21__unordered_map_equalIS3_S6_SB_S9_Lb1EEENS_9allocatorIS6_EEE6key_eqB8ue170006Ev, symObjAddr: 0x29120, symBinAddr: 0x10006F46C, symSize: 0x28 }
  - { offsetInCU: 0x1DA55, offset: 0xED28A, size: 0x8, addend: 0x0, symName: __ZNKSt3__121__unordered_map_equalIP4NodeNS_17__hash_value_typeIS2_P4EdgeEENS_8equal_toIS2_EENS_4hashIS2_EELb1EEclB8ue170006ERKS6_RKS2_, symObjAddr: 0x29148, symBinAddr: 0x10006F494, symSize: 0x48 }
  - { offsetInCU: 0x1DA99, offset: 0xED2CE, size: 0x8, addend: 0x0, symName: __ZNSt3__112__hash_tableINS_17__hash_value_typeIP4NodeP4EdgeEENS_22__unordered_map_hasherIS3_S6_NS_4hashIS3_EENS_8equal_toIS3_EELb1EEENS_21__unordered_map_equalIS3_S6_SB_S9_Lb1EEENS_9allocatorIS6_EEE21__construct_node_hashIRKNS_21piecewise_construct_tEJNS_5tupleIJRKS3_EEENSM_IJEEEEEENS_10unique_ptrINS_11__hash_nodeIS6_PvEENS_22__hash_node_destructorINSF_ISU_EEEEEEmOT_DpOT0_, symObjAddr: 0x29190, symBinAddr: 0x10006F4DC, symSize: 0x428 }
  - { offsetInCU: 0x1DB3C, offset: 0xED371, size: 0x8, addend: 0x0, symName: __ZNSt3__112__hash_tableINS_17__hash_value_typeIP4NodeP4EdgeEENS_22__unordered_map_hasherIS3_S6_NS_4hashIS3_EENS_8equal_toIS3_EELb1EEENS_21__unordered_map_equalIS3_S6_SB_S9_Lb1EEENS_9allocatorIS6_EEE4sizeB8ue170006Ev, symObjAddr: 0x295B8, symBinAddr: 0x10006F904, symSize: 0x28 }
  - { offsetInCU: 0x1DB62, offset: 0xED397, size: 0x8, addend: 0x0, symName: __ZNSt3__112__hash_tableINS_17__hash_value_typeIP4NodeP4EdgeEENS_22__unordered_map_hasherIS3_S6_NS_4hashIS3_EENS_8equal_toIS3_EELb1EEENS_21__unordered_map_equalIS3_S6_SB_S9_Lb1EEENS_9allocatorIS6_EEE15max_load_factorB8ue170006Ev, symObjAddr: 0x295E0, symBinAddr: 0x10006F92C, symSize: 0x28 }
  - { offsetInCU: 0x1DB88, offset: 0xED3BD, size: 0x8, addend: 0x0, symName: __ZNSt3__112__hash_tableINS_17__hash_value_typeIP4NodeP4EdgeEENS_22__unordered_map_hasherIS3_S6_NS_4hashIS3_EENS_8equal_toIS3_EELb1EEENS_21__unordered_map_equalIS3_S6_SB_S9_Lb1EEENS_9allocatorIS6_EEE15__rehash_uniqueB8ue170006Em, symObjAddr: 0x29608, symBinAddr: 0x10006F954, symSize: 0x2C }
  - { offsetInCU: 0x1DBBD, offset: 0xED3F2, size: 0x8, addend: 0x0, symName: __ZNSt3__116__hash_node_baseIPNS_11__hash_nodeINS_17__hash_value_typeIP4NodeP4EdgeEEPvEEE5__ptrB8ue170006Ev, symObjAddr: 0x29634, symBinAddr: 0x10006F980, symSize: 0x24 }
  - { offsetInCU: 0x1DBE3, offset: 0xED418, size: 0x8, addend: 0x0, symName: __ZNKSt3__110unique_ptrINS_11__hash_nodeINS_17__hash_value_typeIP4NodeP4EdgeEEPvEENS_22__hash_node_destructorINS_9allocatorIS9_EEEEEptB8ue170006Ev, symObjAddr: 0x29658, symBinAddr: 0x10006F9A4, symSize: 0x6C }
  - { offsetInCU: 0x1DC09, offset: 0xED43E, size: 0x8, addend: 0x0, symName: __ZNKSt3__110unique_ptrINS_11__hash_nodeINS_17__hash_value_typeIP4NodeP4EdgeEEPvEENS_22__hash_node_destructorINS_9allocatorIS9_EEEEE3getB8ue170006Ev, symObjAddr: 0x296C4, symBinAddr: 0x10006FA10, symSize: 0x6C }
  - { offsetInCU: 0x1DC2F, offset: 0xED464, size: 0x8, addend: 0x0, symName: __ZNSt3__110unique_ptrINS_11__hash_nodeINS_17__hash_value_typeIP4NodeP4EdgeEEPvEENS_22__hash_node_destructorINS_9allocatorIS9_EEEEE7releaseB8ue170006Ev, symObjAddr: 0x29730, symBinAddr: 0x10006FA7C, symSize: 0xB8 }
  - { offsetInCU: 0x1DC64, offset: 0xED499, size: 0x8, addend: 0x0, symName: __ZNSt3__110unique_ptrINS_11__hash_nodeINS_17__hash_value_typeIP4NodeP4EdgeEEPvEENS_22__hash_node_destructorINS_9allocatorIS9_EEEEED1B8ue170006Ev, symObjAddr: 0x297E8, symBinAddr: 0x10006FB34, symSize: 0x2C }
  - { offsetInCU: 0x1DC93, offset: 0xED4C8, size: 0x8, addend: 0x0, symName: __ZNSt3__14pairINS_15__hash_iteratorIPNS_11__hash_nodeINS_17__hash_value_typeIP4NodeP4EdgeEEPvEEEEbEC1B8ue170006ISC_RbLS9_0EEEOT_OT0_, symObjAddr: 0x29848, symBinAddr: 0x10006FB60, symSize: 0x3C }
  - { offsetInCU: 0x1DCF1, offset: 0xED526, size: 0x8, addend: 0x0, symName: __ZNSt3__117__compressed_pairImNS_22__unordered_map_hasherIP4NodeNS_17__hash_value_typeIS3_P4EdgeEENS_4hashIS3_EENS_8equal_toIS3_EELb1EEEE6secondB8ue170006Ev, symObjAddr: 0x29884, symBinAddr: 0x10006FB9C, symSize: 0x24 }
  - { offsetInCU: 0x1DD17, offset: 0xED54C, size: 0x8, addend: 0x0, symName: __ZNSt3__122__compressed_pair_elemINS_22__unordered_map_hasherIP4NodeNS_17__hash_value_typeIS3_P4EdgeEENS_4hashIS3_EENS_8equal_toIS3_EELb1EEELi1ELb1EE5__getB8ue170006Ev, symObjAddr: 0x298A8, symBinAddr: 0x10006FBC0, symSize: 0x14 }
  - { offsetInCU: 0x1DD3D, offset: 0xED572, size: 0x8, addend: 0x0, symName: __ZNKSt3__110unique_ptrIA_PNS_16__hash_node_baseIPNS_11__hash_nodeINS_17__hash_value_typeIP4NodeP4EdgeEEPvEEEENS_25__bucket_list_deallocatorINS_9allocatorISD_EEEEE11get_deleterB8ue170006Ev, symObjAddr: 0x2BF68, symBinAddr: 0x10006FBD4, symSize: 0x24 }
  - { offsetInCU: 0x1DD63, offset: 0xED598, size: 0x8, addend: 0x0, symName: __ZNKSt3__125__bucket_list_deallocatorINS_9allocatorIPNS_16__hash_node_baseIPNS_11__hash_nodeINS_17__hash_value_typeIP4NodeP4EdgeEEPvEEEEEEE4sizeB8ue170006Ev, symObjAddr: 0x2BF8C, symBinAddr: 0x10006FBF8, symSize: 0x6C }
  - { offsetInCU: 0x1DD89, offset: 0xED5BE, size: 0x8, addend: 0x0, symName: __ZNKSt3__117__compressed_pairIPPNS_16__hash_node_baseIPNS_11__hash_nodeINS_17__hash_value_typeIP4NodeP4EdgeEEPvEEEENS_25__bucket_list_deallocatorINS_9allocatorISD_EEEEE6secondB8ue170006Ev, symObjAddr: 0x2BFF8, symBinAddr: 0x10006FC64, symSize: 0x28 }
  - { offsetInCU: 0x1DDAF, offset: 0xED5E4, size: 0x8, addend: 0x0, symName: __ZNKSt3__122__compressed_pair_elemINS_25__bucket_list_deallocatorINS_9allocatorIPNS_16__hash_node_baseIPNS_11__hash_nodeINS_17__hash_value_typeIP4NodeP4EdgeEEPvEEEEEEEELi1ELb0EE5__getB8ue170006Ev, symObjAddr: 0x2C020, symBinAddr: 0x10006FC8C, symSize: 0x14 }
  - { offsetInCU: 0x1DDD5, offset: 0xED60A, size: 0x8, addend: 0x0, symName: __ZNKSt3__117__compressed_pairImNS_9allocatorIPNS_16__hash_node_baseIPNS_11__hash_nodeINS_17__hash_value_typeIP4NodeP4EdgeEEPvEEEEEEE5firstB8ue170006Ev, symObjAddr: 0x2C034, symBinAddr: 0x10006FCA0, symSize: 0x24 }
  - { offsetInCU: 0x1DDFB, offset: 0xED630, size: 0x8, addend: 0x0, symName: __ZNKSt3__117__compressed_pairIPPNS_16__hash_node_baseIPNS_11__hash_nodeINS_17__hash_value_typeIP4NodeP4EdgeEEPvEEEENS_25__bucket_list_deallocatorINS_9allocatorISD_EEEEE5firstB8ue170006Ev, symObjAddr: 0x2C058, symBinAddr: 0x10006FCC4, symSize: 0x24 }
  - { offsetInCU: 0x1DE21, offset: 0xED656, size: 0x8, addend: 0x0, symName: __ZNKSt3__122__compressed_pair_elemIPPNS_16__hash_node_baseIPNS_11__hash_nodeINS_17__hash_value_typeIP4NodeP4EdgeEEPvEEEELi0ELb0EE5__getB8ue170006Ev, symObjAddr: 0x2C07C, symBinAddr: 0x10006FCE8, symSize: 0x14 }
  - { offsetInCU: 0x1DE47, offset: 0xED67C, size: 0x8, addend: 0x0, symName: __ZNSt3__117__compressed_pairIfNS_21__unordered_map_equalIP4NodeNS_17__hash_value_typeIS3_P4EdgeEENS_8equal_toIS3_EENS_4hashIS3_EELb1EEEE6secondB8ue170006Ev, symObjAddr: 0x2C090, symBinAddr: 0x10006FCFC, symSize: 0x24 }
  - { offsetInCU: 0x1DE6D, offset: 0xED6A2, size: 0x8, addend: 0x0, symName: __ZNSt3__122__compressed_pair_elemINS_21__unordered_map_equalIP4NodeNS_17__hash_value_typeIS3_P4EdgeEENS_8equal_toIS3_EENS_4hashIS3_EELb1EEELi1ELb1EE5__getB8ue170006Ev, symObjAddr: 0x2C0B4, symBinAddr: 0x10006FD20, symSize: 0x14 }
  - { offsetInCU: 0x1DE93, offset: 0xED6C8, size: 0x8, addend: 0x0, symName: __ZNKSt3__117__hash_value_typeIP4NodeP4EdgeE11__get_valueB8ue170006Ev, symObjAddr: 0x2C184, symBinAddr: 0x10006FD34, symSize: 0x24 }
  - { offsetInCU: 0x1DEB9, offset: 0xED6EE, size: 0x8, addend: 0x0, symName: __ZNSt3__116allocator_traitsINS_9allocatorINS_11__hash_nodeINS_17__hash_value_typeIP4NodeP4EdgeEEPvEEEEE8allocateB8ue170006ERSB_m, symObjAddr: 0x2C1E0, symBinAddr: 0x10006FD90, symSize: 0x2C }
  - { offsetInCU: 0x1DEEC, offset: 0xED721, size: 0x8, addend: 0x0, symName: __ZNSt3__122__hash_node_destructorINS_9allocatorINS_11__hash_nodeINS_17__hash_value_typeIP4NodeP4EdgeEEPvEEEEEC1B8ue170006ERSB_b, symObjAddr: 0x2C20C, symBinAddr: 0x10006FDBC, symSize: 0x48 }
  - { offsetInCU: 0x1DF39, offset: 0xED76E, size: 0x8, addend: 0x0, symName: __ZNSt3__110unique_ptrINS_11__hash_nodeINS_17__hash_value_typeIP4NodeP4EdgeEEPvEENS_22__hash_node_destructorINS_9allocatorIS9_EEEEEC1B8ue170006ILb1EvEEPS9_NS_16__dependent_typeINS_27__unique_ptr_deleter_sfinaeISD_EEXT_EE20__good_rval_ref_typeE, symObjAddr: 0x2C254, symBinAddr: 0x10006FE04, symSize: 0x3C }
  - { offsetInCU: 0x1DF8A, offset: 0xED7BF, size: 0x8, addend: 0x0, symName: __ZNSt3__116allocator_traitsINS_9allocatorINS_11__hash_nodeINS_17__hash_value_typeIP4NodeP4EdgeEEPvEEEEE9constructB8ue170006INS_4pairIKS5_S7_EEJRKNS_21piecewise_construct_tENS_5tupleIJRSF_EEENSK_IJEEEEvEEvRSB_PT_DpOT0_, symObjAddr: 0x2C290, symBinAddr: 0x10006FE40, symSize: 0x44 }
  - { offsetInCU: 0x1E009, offset: 0xED83E, size: 0x8, addend: 0x0, symName: __ZNSt3__110unique_ptrINS_11__hash_nodeINS_17__hash_value_typeIP4NodeP4EdgeEEPvEENS_22__hash_node_destructorINS_9allocatorIS9_EEEEE11get_deleterB8ue170006Ev, symObjAddr: 0x2C2D4, symBinAddr: 0x10006FE84, symSize: 0x24 }
  - { offsetInCU: 0x1E02F, offset: 0xED864, size: 0x8, addend: 0x0, symName: __ZNSt3__19allocatorINS_11__hash_nodeINS_17__hash_value_typeIP4NodeP4EdgeEEPvEEE8allocateB8ue170006Em, symObjAddr: 0x2C2F8, symBinAddr: 0x10006FEA8, symSize: 0x5C }
  - { offsetInCU: 0x1E06D, offset: 0xED8A2, size: 0x8, addend: 0x0, symName: __ZNSt3__116allocator_traitsINS_9allocatorINS_11__hash_nodeINS_17__hash_value_typeIP4NodeP4EdgeEEPvEEEEE8max_sizeB8ue170006ISB_vEEmRKSB_, symObjAddr: 0x2C354, symBinAddr: 0x10006FF04, symSize: 0x24 }
  - { offsetInCU: 0x1E09B, offset: 0xED8D0, size: 0x8, addend: 0x0, symName: __ZNKSt3__19allocatorINS_11__hash_nodeINS_17__hash_value_typeIP4NodeP4EdgeEEPvEEE8max_sizeB8ue170006Ev, symObjAddr: 0x2C378, symBinAddr: 0x10006FF28, symSize: 0x14 }
  - { offsetInCU: 0x1E0C1, offset: 0xED8F6, size: 0x8, addend: 0x0, symName: __ZNSt3__122__hash_node_destructorINS_9allocatorINS_11__hash_nodeINS_17__hash_value_typeIP4NodeP4EdgeEEPvEEEEEC2B8ue170006ERSB_b, symObjAddr: 0x2C38C, symBinAddr: 0x10006FF3C, symSize: 0xF0 }
  - { offsetInCU: 0x1E109, offset: 0xED93E, size: 0x8, addend: 0x0, symName: __ZNSt3__110unique_ptrINS_11__hash_nodeINS_17__hash_value_typeIP4NodeP4EdgeEEPvEENS_22__hash_node_destructorINS_9allocatorIS9_EEEEEC2B8ue170006ILb1EvEEPS9_NS_16__dependent_typeINS_27__unique_ptr_deleter_sfinaeISD_EEXT_EE20__good_rval_ref_typeE, symObjAddr: 0x2C47C, symBinAddr: 0x10007002C, symSize: 0x21C }
  - { offsetInCU: 0x1E160, offset: 0xED995, size: 0x8, addend: 0x0, symName: __ZNSt3__117__compressed_pairIPNS_11__hash_nodeINS_17__hash_value_typeIP4NodeP4EdgeEEPvEENS_22__hash_node_destructorINS_9allocatorIS9_EEEEEC1B8ue170006IRSA_SE_EEOT_OT0_, symObjAddr: 0x2C698, symBinAddr: 0x100070248, symSize: 0x3C }
  - { offsetInCU: 0x1E1B8, offset: 0xED9ED, size: 0x8, addend: 0x0, symName: __ZNSt3__117__compressed_pairIPNS_11__hash_nodeINS_17__hash_value_typeIP4NodeP4EdgeEEPvEENS_22__hash_node_destructorINS_9allocatorIS9_EEEEEC2B8ue170006IRSA_SE_EEOT_OT0_, symObjAddr: 0x2C6D4, symBinAddr: 0x100070284, symSize: 0x48 }
  - { offsetInCU: 0x1E210, offset: 0xEDA45, size: 0x8, addend: 0x0, symName: __ZNSt3__122__compressed_pair_elemIPNS_11__hash_nodeINS_17__hash_value_typeIP4NodeP4EdgeEEPvEELi0ELb0EEC2B8ue170006IRSA_vEEOT_, symObjAddr: 0x2C71C, symBinAddr: 0x1000702CC, symSize: 0xB0 }
  - { offsetInCU: 0x1E252, offset: 0xEDA87, size: 0x8, addend: 0x0, symName: __ZNSt3__122__compressed_pair_elemINS_22__hash_node_destructorINS_9allocatorINS_11__hash_nodeINS_17__hash_value_typeIP4NodeP4EdgeEEPvEEEEEELi1ELb0EEC2B8ue170006ISD_vEEOT_, symObjAddr: 0x2C7CC, symBinAddr: 0x10007037C, symSize: 0x38 }
  - { offsetInCU: 0x1E294, offset: 0xEDAC9, size: 0x8, addend: 0x0, symName: __ZNSt3__19allocatorINS_11__hash_nodeINS_17__hash_value_typeIP4NodeP4EdgeEEPvEEE9constructB8ue170006INS_4pairIKS4_S6_EEJRKNS_21piecewise_construct_tENS_5tupleIJRSD_EEENSI_IJEEEEEEvPT_DpOT0_, symObjAddr: 0x2C804, symBinAddr: 0x1000703B4, symSize: 0x214 }
  - { offsetInCU: 0x1E315, offset: 0xEDB4A, size: 0x8, addend: 0x0, symName: __ZNSt3__14pairIKP4NodeP4EdgeEC1B8ue170006IJRS3_EJEEENS_21piecewise_construct_tENS_5tupleIJDpT_EEENSA_IJDpT0_EEE, symObjAddr: 0x2CA18, symBinAddr: 0x1000705C8, symSize: 0x248 }
  - { offsetInCU: 0x1E386, offset: 0xEDBBB, size: 0x8, addend: 0x0, symName: __ZNSt3__14pairIKP4NodeP4EdgeEC1B8ue170006IJRS3_EJEJLm0EEJEEENS_21piecewise_construct_tERNS_5tupleIJDpT_EEERNSA_IJDpT0_EEENS_15__tuple_indicesIJXspT1_EEEENSJ_IJXspT2_EEEE, symObjAddr: 0x2CC60, symBinAddr: 0x100070810, symSize: 0x3C }
  - { offsetInCU: 0x1E413, offset: 0xEDC48, size: 0x8, addend: 0x0, symName: __ZNSt3__14pairIKP4NodeP4EdgeEC2B8ue170006IJRS3_EJEJLm0EEJEEENS_21piecewise_construct_tERNS_5tupleIJDpT_EEERNSA_IJDpT0_EEENS_15__tuple_indicesIJXspT1_EEEENSJ_IJXspT2_EEEE, symObjAddr: 0x2CC9C, symBinAddr: 0x10007084C, symSize: 0xF4 }
  - { offsetInCU: 0x1E4A0, offset: 0xEDCD5, size: 0x8, addend: 0x0, symName: __ZNSt3__117__compressed_pairIPNS_11__hash_nodeINS_17__hash_value_typeIP4NodeP4EdgeEEPvEENS_22__hash_node_destructorINS_9allocatorIS9_EEEEE6secondB8ue170006Ev, symObjAddr: 0x2CE14, symBinAddr: 0x100070940, symSize: 0x28 }
  - { offsetInCU: 0x1E4C6, offset: 0xEDCFB, size: 0x8, addend: 0x0, symName: __ZNSt3__122__compressed_pair_elemINS_22__hash_node_destructorINS_9allocatorINS_11__hash_nodeINS_17__hash_value_typeIP4NodeP4EdgeEEPvEEEEEELi1ELb0EE5__getB8ue170006Ev, symObjAddr: 0x2CE3C, symBinAddr: 0x100070968, symSize: 0x14 }
  - { offsetInCU: 0x1E4EC, offset: 0xEDD21, size: 0x8, addend: 0x0, symName: __ZNSt3__117__compressed_pairImNS_22__unordered_map_hasherIP4NodeNS_17__hash_value_typeIS3_P4EdgeEENS_4hashIS3_EENS_8equal_toIS3_EELb1EEEE5firstB8ue170006Ev, symObjAddr: 0x2CE50, symBinAddr: 0x10007097C, symSize: 0x24 }
  - { offsetInCU: 0x1E512, offset: 0xEDD47, size: 0x8, addend: 0x0, symName: __ZNSt3__117__compressed_pairIfNS_21__unordered_map_equalIP4NodeNS_17__hash_value_typeIS3_P4EdgeEENS_8equal_toIS3_EENS_4hashIS3_EELb1EEEE5firstB8ue170006Ev, symObjAddr: 0x2CE74, symBinAddr: 0x1000709A0, symSize: 0x24 }
  - { offsetInCU: 0x1E538, offset: 0xEDD6D, size: 0x8, addend: 0x0, symName: __ZNSt3__112__hash_tableINS_17__hash_value_typeIP4NodeP4EdgeEENS_22__unordered_map_hasherIS3_S6_NS_4hashIS3_EENS_8equal_toIS3_EELb1EEENS_21__unordered_map_equalIS3_S6_SB_S9_Lb1EEENS_9allocatorIS6_EEE8__rehashILb1EEEvm, symObjAddr: 0x2CE98, symBinAddr: 0x1000709C4, symSize: 0x784 }
  - { offsetInCU: 0x1E58E, offset: 0xEDDC3, size: 0x8, addend: 0x0, symName: __ZNSt3__112__hash_tableINS_17__hash_value_typeIP4NodeP4EdgeEENS_22__unordered_map_hasherIS3_S6_NS_4hashIS3_EENS_8equal_toIS3_EELb1EEENS_21__unordered_map_equalIS3_S6_SB_S9_Lb1EEENS_9allocatorIS6_EEE11__do_rehashILb1EEEvm, symObjAddr: 0x2D61C, symBinAddr: 0x100071148, symSize: 0x5BC }
  - { offsetInCU: 0x1E673, offset: 0xEDEA8, size: 0x8, addend: 0x0, symName: __ZNSt3__110unique_ptrIA_PNS_16__hash_node_baseIPNS_11__hash_nodeINS_17__hash_value_typeIP4NodeP4EdgeEEPvEEEENS_25__bucket_list_deallocatorINS_9allocatorISD_EEEEE11get_deleterB8ue170006Ev, symObjAddr: 0x2DBD8, symBinAddr: 0x100071704, symSize: 0x24 }
  - { offsetInCU: 0x1E699, offset: 0xEDECE, size: 0x8, addend: 0x0, symName: __ZNSt3__110unique_ptrIA_PNS_16__hash_node_baseIPNS_11__hash_nodeINS_17__hash_value_typeIP4NodeP4EdgeEEPvEEEENS_25__bucket_list_deallocatorINS_9allocatorISD_EEEEE5resetB8ue170006IPSD_EENS_9enable_ifIXsr28_CheckArrayPointerConversionIT_EE5valueEvE4typeESN_, symObjAddr: 0x2DBFC, symBinAddr: 0x100071728, symSize: 0xEC }
  - { offsetInCU: 0x1E6E6, offset: 0xEDF1B, size: 0x8, addend: 0x0, symName: __ZNSt3__116allocator_traitsINS_9allocatorIPNS_16__hash_node_baseIPNS_11__hash_nodeINS_17__hash_value_typeIP4NodeP4EdgeEEPvEEEEEEE8allocateB8ue170006ERSF_m, symObjAddr: 0x2DCE8, symBinAddr: 0x100071814, symSize: 0x2C }
  - { offsetInCU: 0x1E719, offset: 0xEDF4E, size: 0x8, addend: 0x0, symName: __ZNSt3__19allocatorIPNS_16__hash_node_baseIPNS_11__hash_nodeINS_17__hash_value_typeIP4NodeP4EdgeEEPvEEEEE8allocateB8ue170006Em, symObjAddr: 0x2DD14, symBinAddr: 0x100071840, symSize: 0x5C }
  - { offsetInCU: 0x1E757, offset: 0xEDF8C, size: 0x8, addend: 0x0, symName: __ZNSt3__116allocator_traitsINS_9allocatorIPNS_16__hash_node_baseIPNS_11__hash_nodeINS_17__hash_value_typeIP4NodeP4EdgeEEPvEEEEEEE8max_sizeB8ue170006ISF_vEEmRKSF_, symObjAddr: 0x2DD70, symBinAddr: 0x10007189C, symSize: 0x24 }
  - { offsetInCU: 0x1E785, offset: 0xEDFBA, size: 0x8, addend: 0x0, symName: __ZNKSt3__19allocatorIPNS_16__hash_node_baseIPNS_11__hash_nodeINS_17__hash_value_typeIP4NodeP4EdgeEEPvEEEEE8max_sizeB8ue170006Ev, symObjAddr: 0x2DD94, symBinAddr: 0x1000718C0, symSize: 0x14 }
  - { offsetInCU: 0x1E7AB, offset: 0xEDFE0, size: 0x8, addend: 0x0, symName: __ZNKSt3__117__compressed_pairIPNS_11__hash_nodeINS_17__hash_value_typeIP4NodeP4EdgeEEPvEENS_22__hash_node_destructorINS_9allocatorIS9_EEEEE5firstB8ue170006Ev, symObjAddr: 0x2DDA8, symBinAddr: 0x1000718D4, symSize: 0x24 }
  - { offsetInCU: 0x1E7D1, offset: 0xEE006, size: 0x8, addend: 0x0, symName: __ZNKSt3__122__compressed_pair_elemIPNS_11__hash_nodeINS_17__hash_value_typeIP4NodeP4EdgeEEPvEELi0ELb0EE5__getB8ue170006Ev, symObjAddr: 0x2DDCC, symBinAddr: 0x1000718F8, symSize: 0x14 }
  - { offsetInCU: 0x1E7F7, offset: 0xEE02C, size: 0x8, addend: 0x0, symName: __ZNSt3__117__compressed_pairIPNS_11__hash_nodeINS_17__hash_value_typeIP4NodeP4EdgeEEPvEENS_22__hash_node_destructorINS_9allocatorIS9_EEEEE5firstB8ue170006Ev, symObjAddr: 0x2DDE0, symBinAddr: 0x10007190C, symSize: 0x24 }
  - { offsetInCU: 0x1E81D, offset: 0xEE052, size: 0x8, addend: 0x0, symName: __ZNSt3__122__compressed_pair_elemIPNS_11__hash_nodeINS_17__hash_value_typeIP4NodeP4EdgeEEPvEELi0ELb0EE5__getB8ue170006Ev, symObjAddr: 0x2DE04, symBinAddr: 0x100071930, symSize: 0x14 }
  - { offsetInCU: 0x1E843, offset: 0xEE078, size: 0x8, addend: 0x0, symName: __ZNSt3__110unique_ptrINS_11__hash_nodeINS_17__hash_value_typeIP4NodeP4EdgeEEPvEENS_22__hash_node_destructorINS_9allocatorIS9_EEEEED2B8ue170006Ev, symObjAddr: 0x2DE18, symBinAddr: 0x100071944, symSize: 0x30 }
  - { offsetInCU: 0x1E86D, offset: 0xEE0A2, size: 0x8, addend: 0x0, symName: __ZNSt3__110unique_ptrINS_11__hash_nodeINS_17__hash_value_typeIP4NodeP4EdgeEEPvEENS_22__hash_node_destructorINS_9allocatorIS9_EEEEE5resetB8ue170006EPS9_, symObjAddr: 0x2DE48, symBinAddr: 0x100071974, symSize: 0xEC }
  - { offsetInCU: 0x1E8B1, offset: 0xEE0E6, size: 0x8, addend: 0x0, symName: __ZNSt3__122__hash_node_destructorINS_9allocatorINS_11__hash_nodeINS_17__hash_value_typeIP4NodeP4EdgeEEPvEEEEEclB8ue170006EPSA_, symObjAddr: 0x2DF34, symBinAddr: 0x100071A60, symSize: 0x164 }
  - { offsetInCU: 0x1E8E6, offset: 0xEE11B, size: 0x8, addend: 0x0, symName: __ZNSt3__14pairINS_15__hash_iteratorIPNS_11__hash_nodeINS_17__hash_value_typeIP4NodeP4EdgeEEPvEEEEbEC2B8ue170006ISC_RbLS9_0EEEOT_OT0_, symObjAddr: 0x2E108, symBinAddr: 0x100071BC4, symSize: 0x120 }
  - { offsetInCU: 0x1E944, offset: 0xEE179, size: 0x8, addend: 0x0, symName: __ZNSt3__112__hash_tableINS_17__hash_value_typeIP4NodeP4EdgeEENS_22__unordered_map_hasherIS3_S6_NS_4hashIS3_EENS_8equal_toIS3_EELb1EEENS_21__unordered_map_equalIS3_S6_SB_S9_Lb1EEENS_9allocatorIS6_EEE4findIS3_EENS_15__hash_iteratorIPNS_11__hash_nodeIS6_PvEEEERKT_, symObjAddr: 0x31AC4, symBinAddr: 0x100071CE4, symSize: 0x484 }
  - { offsetInCU: 0x1E9CC, offset: 0xEE201, size: 0x8, addend: 0x0, symName: __ZNSt3__125__hash_map_const_iteratorINS_21__hash_const_iteratorIPNS_11__hash_nodeINS_17__hash_value_typeIP4NodeP4EdgeEEPvEEEEEC2B8ue170006ENS_19__hash_map_iteratorINS_15__hash_iteratorISB_EEEE, symObjAddr: 0x3257C, symBinAddr: 0x100072168, symSize: 0x200 }
  - { offsetInCU: 0x1EA0A, offset: 0xEE23F, size: 0x8, addend: 0x0, symName: __ZNSt3__121__hash_const_iteratorIPNS_11__hash_nodeINS_17__hash_value_typeIP4NodeP4EdgeEEPvEEEC1B8ue170006ERKNS_15__hash_iteratorISA_EE, symObjAddr: 0x3277C, symBinAddr: 0x100072368, symSize: 0x34 }
  - { offsetInCU: 0x1EA43, offset: 0xEE278, size: 0x8, addend: 0x0, symName: __ZNSt3__121__hash_const_iteratorIPNS_11__hash_nodeINS_17__hash_value_typeIP4NodeP4EdgeEEPvEEEC2B8ue170006ERKNS_15__hash_iteratorISA_EE, symObjAddr: 0x327B0, symBinAddr: 0x10007239C, symSize: 0xB0 }
  - { offsetInCU: 0x1EA7C, offset: 0xEE2B1, size: 0x8, addend: 0x0, symName: __ZNSt3__114pointer_traitsIPKNS_4pairIKP4NodeP4EdgeEEE10pointer_toB8ue170006ERS8_, symObjAddr: 0x3294C, symBinAddr: 0x100072538, symSize: 0x14 }
  - { offsetInCU: 0x1EA9F, offset: 0xEE2D4, size: 0x8, addend: 0x0, symName: __ZNKSt3__121__hash_const_iteratorIPNS_11__hash_nodeINS_17__hash_value_typeIP4NodeP4EdgeEEPvEEEptB8ue170006Ev, symObjAddr: 0x32960, symBinAddr: 0x10007254C, symSize: 0x6C }
  - { offsetInCU: 0x1EAC5, offset: 0xEE2FA, size: 0x8, addend: 0x0, symName: __ZNSt3__114pointer_traitsIPKNS_17__hash_value_typeIP4NodeP4EdgeEEE10pointer_toB8ue170006ERS7_, symObjAddr: 0x329CC, symBinAddr: 0x1000725B8, symSize: 0x14 }
  - { offsetInCU: 0x3B, offset: 0xEE578, size: 0x8, addend: 0x0, symName: _.str, symObjAddr: 0x5BC0, symBinAddr: 0x1000B52C0, symSize: 0x0 }
  - { offsetInCU: 0x6B, offset: 0xEE5A8, size: 0x8, addend: 0x0, symName: _.str.1, symObjAddr: 0x5BE0, symBinAddr: 0x1000B52E0, symSize: 0x0 }
  - { offsetInCU: 0x88, offset: 0xEE5C5, size: 0x8, addend: 0x0, symName: _.str.2, symObjAddr: 0x5C20, symBinAddr: 0x1000B5320, symSize: 0x0 }
  - { offsetInCU: 0xA5, offset: 0xEE5E2, size: 0x8, addend: 0x0, symName: _.str.3, symObjAddr: 0x5C40, symBinAddr: 0x1000B5340, symSize: 0x0 }
  - { offsetInCU: 0xC2, offset: 0xEE5FF, size: 0x8, addend: 0x0, symName: _.str.4, symObjAddr: 0x5C60, symBinAddr: 0x1000B5360, symSize: 0x0 }
  - { offsetInCU: 0xD3, offset: 0xEE610, size: 0x8, addend: 0x0, symName: _.str.5, symObjAddr: 0x5C80, symBinAddr: 0x1000B5380, symSize: 0x0 }
  - { offsetInCU: 0xE4, offset: 0xEE621, size: 0x8, addend: 0x0, symName: _.str.6, symObjAddr: 0x5CA0, symBinAddr: 0x1000B53A0, symSize: 0x0 }
  - { offsetInCU: 0x101, offset: 0xEE63E, size: 0x8, addend: 0x0, symName: _.str.7, symObjAddr: 0x5CC0, symBinAddr: 0x1000B53C0, symSize: 0x0 }
  - { offsetInCU: 0x112, offset: 0xEE64F, size: 0x8, addend: 0x0, symName: _.str.8, symObjAddr: 0x5CE0, symBinAddr: 0x1000B53E0, symSize: 0x0 }
  - { offsetInCU: 0x12F, offset: 0xEE66C, size: 0x8, addend: 0x0, symName: _.str.9, symObjAddr: 0x5D00, symBinAddr: 0x1000B5400, symSize: 0x0 }
  - { offsetInCU: 0x14C, offset: 0xEE689, size: 0x8, addend: 0x0, symName: _.str.10, symObjAddr: 0x5D20, symBinAddr: 0x1000B5420, symSize: 0x0 }
  - { offsetInCU: 0x15D, offset: 0xEE69A, size: 0x8, addend: 0x0, symName: _.str.11, symObjAddr: 0x5D60, symBinAddr: 0x1000B5460, symSize: 0x0 }
  - { offsetInCU: 0x17A, offset: 0xEE6B7, size: 0x8, addend: 0x0, symName: _.str.12, symObjAddr: 0x5DA0, symBinAddr: 0x1000B54A0, symSize: 0x0 }
  - { offsetInCU: 0xB58A, offset: 0xF9AC7, size: 0x8, addend: 0x0, symName: __ZNSt3__1neB8ue170006IPKNS_12basic_stringIcNS_11char_traitsIcEENS_9allocatorIcEEEEEEbRKNS_11__wrap_iterIT_EESD_, symObjAddr: 0x1518, symBinAddr: 0x1000739E8, symSize: 0x34 }
  - { offsetInCU: 0xB5CD, offset: 0xF9B0A, size: 0x8, addend: 0x0, symName: __ZNSt3__1plB8ue170006IcNS_11char_traitsIcEENS_9allocatorIcEEEENS_12basic_stringIT_T0_T1_EEOS9_PKS6_, symObjAddr: 0x16C4, symBinAddr: 0x100073B94, symSize: 0x40 }
  - { offsetInCU: 0xE94B, offset: 0xFCE88, size: 0x8, addend: 0x0, symName: __ZNSt3__1eqB8ue170006IPKNS_12basic_stringIcNS_11char_traitsIcEENS_9allocatorIcEEEEEEbRKNS_11__wrap_iterIT_EESD_, symObjAddr: 0x275C, symBinAddr: 0x100074C2C, symSize: 0x48 }
  - { offsetInCU: 0x10E08, offset: 0xFF345, size: 0x8, addend: 0x0, symName: __Z11data_to_csvNSt3__112basic_stringIcNS_11char_traitsIcEENS_9allocatorIcEEEERKNS_6vectorIS5_NS3_IS5_EEEERKNS6_ImNS3_ImEEEESE_SA_RKNS6_ISC_NS3_ISC_EEEESI_, symObjAddr: 0x0, symBinAddr: 0x100072664, symSize: 0xBA4 }
  - { offsetInCU: 0x10F76, offset: 0xFF4B3, size: 0x8, addend: 0x0, symName: __ZNSt3__112basic_stringIcNS_11char_traitsIcEENS_9allocatorIcEEEC1B8ue170006ILi0EEEPKc, symObjAddr: 0xBA4, symBinAddr: 0x100073208, symSize: 0x34 }
  - { offsetInCU: 0x1100C, offset: 0xFF549, size: 0x8, addend: 0x0, symName: __ZNSt3__114basic_ofstreamIcNS_11char_traitsIcEEEC1ERKNS_12basic_stringIcS2_NS_9allocatorIcEEEEj, symObjAddr: 0xBD8, symBinAddr: 0x10007323C, symSize: 0x2AC }
  - { offsetInCU: 0x11056, offset: 0xFF593, size: 0x8, addend: 0x0, symName: __ZNKSt3__114basic_ofstreamIcNS_11char_traitsIcEEE7is_openEv, symObjAddr: 0xE84, symBinAddr: 0x1000734E8, symSize: 0x2C }
  - { offsetInCU: 0x1107E, offset: 0xFF5BB, size: 0x8, addend: 0x0, symName: __ZNKSt3__16vectorINS_12basic_stringIcNS_11char_traitsIcEENS_9allocatorIcEEEENS4_IS6_EEE5beginB8ue170006Ev, symObjAddr: 0x1044, symBinAddr: 0x100073514, symSize: 0x268 }
  - { offsetInCU: 0x110A7, offset: 0xFF5E4, size: 0x8, addend: 0x0, symName: __ZNKSt3__16vectorINS_12basic_stringIcNS_11char_traitsIcEENS_9allocatorIcEEEENS4_IS6_EEE3endB8ue170006Ev, symObjAddr: 0x12AC, symBinAddr: 0x10007377C, symSize: 0x26C }
  - { offsetInCU: 0x110D1, offset: 0xFF60E, size: 0x8, addend: 0x0, symName: __ZNKSt3__111__wrap_iterIPKNS_12basic_stringIcNS_11char_traitsIcEENS_9allocatorIcEEEEEdeB8ue170006Ev, symObjAddr: 0x154C, symBinAddr: 0x100073A1C, symSize: 0x60 }
  - { offsetInCU: 0x110F7, offset: 0xFF634, size: 0x8, addend: 0x0, symName: __ZNSt3__111__wrap_iterIPKNS_12basic_stringIcNS_11char_traitsIcEENS_9allocatorIcEEEEEppB8ue170006Ev, symObjAddr: 0x15AC, symBinAddr: 0x100073A7C, symSize: 0x68 }
  - { offsetInCU: 0x1111D, offset: 0xFF65A, size: 0x8, addend: 0x0, symName: __ZNKSt3__16vectorINS_12basic_stringIcNS_11char_traitsIcEENS_9allocatorIcEEEENS4_IS6_EEE4sizeB8ue170006Ev, symObjAddr: 0x1614, symBinAddr: 0x100073AE4, symSize: 0xB0 }
  - { offsetInCU: 0x11142, offset: 0xFF67F, size: 0x8, addend: 0x0, symName: __ZNKSt3__16vectorINS_12basic_stringIcNS_11char_traitsIcEENS_9allocatorIcEEEENS4_IS6_EEEixB8ue170006Em, symObjAddr: 0x1704, symBinAddr: 0x100073BD4, symSize: 0x74 }
  - { offsetInCU: 0x111E2, offset: 0xFF71F, size: 0x8, addend: 0x0, symName: __ZNKSt3__16vectorImNS_9allocatorImEEEixB8ue170006Em, symObjAddr: 0x1778, symBinAddr: 0x100073C48, symSize: 0x6C }
  - { offsetInCU: 0x112FF, offset: 0xFF83C, size: 0x8, addend: 0x0, symName: __ZNKSt3__16vectorINS0_ImNS_9allocatorImEEEENS1_IS3_EEEixB8ue170006Em, symObjAddr: 0x17E4, symBinAddr: 0x100073CB4, symSize: 0x74 }
  - { offsetInCU: 0x11336, offset: 0xFF873, size: 0x8, addend: 0x0, symName: __ZNSt3__114basic_ofstreamIcNS_11char_traitsIcEEE5closeEv, symObjAddr: 0x1858, symBinAddr: 0x100073D28, symSize: 0xD4 }
  - { offsetInCU: 0x11364, offset: 0xFF8A1, size: 0x8, addend: 0x0, symName: __ZNSt3__114basic_ofstreamIcNS_11char_traitsIcEEED1Ev, symObjAddr: 0x192C, symBinAddr: 0x100073DFC, symSize: 0x40 }
  - { offsetInCU: 0x11390, offset: 0xFF8CD, size: 0x8, addend: 0x0, symName: __Z20data_to_csv_repeatedNSt3__112basic_stringIcNS_11char_traitsIcEENS_9allocatorIcEEEERKNS_6vectorIS5_NS3_IS5_EEEERKNS6_ImNS3_ImEEEESE_SA_RKNS6_INS6_IdNS3_IdEEEENS3_ISG_EEEESK_SK_SK_, symObjAddr: 0x196C, symBinAddr: 0x100073E3C, symSize: 0xD10 }
  - { offsetInCU: 0x116F2, offset: 0xFFC2F, size: 0x8, addend: 0x0, symName: __ZNKSt3__16vectorINS0_IdNS_9allocatorIdEEEENS1_IS3_EEEixB8ue170006Em, symObjAddr: 0x267C, symBinAddr: 0x100074B4C, symSize: 0x74 }
  - { offsetInCU: 0x11729, offset: 0xFFC66, size: 0x8, addend: 0x0, symName: __ZNKSt3__16vectorIdNS_9allocatorIdEEEixB8ue170006Em, symObjAddr: 0x26F0, symBinAddr: 0x100074BC0, symSize: 0x6C }
  - { offsetInCU: 0x11761, offset: 0xFFC9E, size: 0x8, addend: 0x0, symName: __ZNKSt3__111__wrap_iterIPKNS_12basic_stringIcNS_11char_traitsIcEENS_9allocatorIcEEEEE4baseB8ue170006Ev, symObjAddr: 0x27A4, symBinAddr: 0x100074C74, symSize: 0x60 }
  - { offsetInCU: 0x11787, offset: 0xFFCC4, size: 0x8, addend: 0x0, symName: __ZNSt3__114basic_ofstreamIcNS_11char_traitsIcEEED2Ev, symObjAddr: 0x2804, symBinAddr: 0x100074CD4, symSize: 0x198 }
  - { offsetInCU: 0x117C1, offset: 0xFFCFE, size: 0x8, addend: 0x0, symName: __ZTv0_n24_NSt3__114basic_ofstreamIcNS_11char_traitsIcEEED1Ev, symObjAddr: 0x299C, symBinAddr: 0x100074E6C, symSize: 0xB0 }
  - { offsetInCU: 0x117D7, offset: 0xFFD14, size: 0x8, addend: 0x0, symName: __ZNSt3__112basic_stringIcNS_11char_traitsIcEENS_9allocatorIcEEEC2B8ue170006ILi0EEEPKc, symObjAddr: 0x2A4C, symBinAddr: 0x100074F1C, symSize: 0x210 }
  - { offsetInCU: 0x11818, offset: 0xFFD55, size: 0x8, addend: 0x0, symName: __ZNSt3__113basic_ostreamIcNS_11char_traitsIcEEEC2B8ue170006EPNS_15basic_streambufIcS2_EE, symObjAddr: 0x2E48, symBinAddr: 0x10007512C, symSize: 0x1D4 }
  - { offsetInCU: 0x1187C, offset: 0xFFDB9, size: 0x8, addend: 0x0, symName: __ZNKSt3__16vectorINS_12basic_stringIcNS_11char_traitsIcEENS_9allocatorIcEEEENS4_IS6_EEE11__make_iterB8ue170006EPKS6_, symObjAddr: 0x5368, symBinAddr: 0x100075300, symSize: 0x1FC }
  - { offsetInCU: 0x118B2, offset: 0xFFDEF, size: 0x8, addend: 0x0, symName: __ZNSt3__111__wrap_iterIPKNS_12basic_stringIcNS_11char_traitsIcEENS_9allocatorIcEEEEEC1B8ue170006ES8_, symObjAddr: 0x5564, symBinAddr: 0x1000754FC, symSize: 0x34 }
  - { offsetInCU: 0x118EA, offset: 0xFFE27, size: 0x8, addend: 0x0, symName: __ZNSt3__111__wrap_iterIPKNS_12basic_stringIcNS_11char_traitsIcEENS_9allocatorIcEEEEEC2B8ue170006ES8_, symObjAddr: 0x5598, symBinAddr: 0x100075530, symSize: 0x70 }
  - { offsetInCU: 0x11922, offset: 0xFFE5F, size: 0x8, addend: 0x0, symName: __ZNSt3__112basic_stringIcNS_11char_traitsIcEENS_9allocatorIcEEEC1B8ue170006EOS5_, symObjAddr: 0x5608, symBinAddr: 0x1000755A0, symSize: 0x34 }
  - { offsetInCU: 0x1195B, offset: 0xFFE98, size: 0x8, addend: 0x0, symName: __ZNSt3__112basic_stringIcNS_11char_traitsIcEENS_9allocatorIcEEEC2B8ue170006EOS5_, symObjAddr: 0x563C, symBinAddr: 0x1000755D4, symSize: 0x54 }
  - { offsetInCU: 0x3C, offset: 0xFFF3F, size: 0x8, addend: 0x0, symName: _.str, symObjAddr: 0x3F240, symBinAddr: 0x1000B54E0, symSize: 0x0 }
  - { offsetInCU: 0x6D, offset: 0xFFF70, size: 0x8, addend: 0x0, symName: _.str.1, symObjAddr: 0x3F280, symBinAddr: 0x1000B5520, symSize: 0x0 }
  - { offsetInCU: 0x7F, offset: 0xFFF82, size: 0x8, addend: 0x0, symName: _.str.2, symObjAddr: 0x3F2C0, symBinAddr: 0x1000B5560, symSize: 0x0 }
  - { offsetInCU: 0x9D, offset: 0xFFFA0, size: 0x8, addend: 0x0, symName: _.str.3, symObjAddr: 0x3F300, symBinAddr: 0x1000B55A0, symSize: 0x0 }
  - { offsetInCU: 0xBB, offset: 0xFFFBE, size: 0x8, addend: 0x0, symName: _.str.4, symObjAddr: 0x3F340, symBinAddr: 0x1000B55E0, symSize: 0x0 }
  - { offsetInCU: 0xCD, offset: 0xFFFD0, size: 0x8, addend: 0x0, symName: _.str.5, symObjAddr: 0x3F380, symBinAddr: 0x1000B5620, symSize: 0x0 }
  - { offsetInCU: 0xEB, offset: 0xFFFEE, size: 0x8, addend: 0x0, symName: _.str.6, symObjAddr: 0x3F3C0, symBinAddr: 0x1000B5660, symSize: 0x0 }
  - { offsetInCU: 0xFD, offset: 0x100000, size: 0x8, addend: 0x0, symName: _.str.7, symObjAddr: 0x3F400, symBinAddr: 0x1000B56A0, symSize: 0x0 }
  - { offsetInCU: 0x11B, offset: 0x10001E, size: 0x8, addend: 0x0, symName: _.str.8, symObjAddr: 0x3F440, symBinAddr: 0x1000B56E0, symSize: 0x0 }
  - { offsetInCU: 0x12D, offset: 0x100030, size: 0x8, addend: 0x0, symName: _.str.9, symObjAddr: 0x3F480, symBinAddr: 0x1000B5720, symSize: 0x0 }
  - { offsetInCU: 0x14B, offset: 0x10004E, size: 0x8, addend: 0x0, symName: _.str.10, symObjAddr: 0x3F4E0, symBinAddr: 0x1000B5780, symSize: 0x0 }
  - { offsetInCU: 0x15D, offset: 0x100060, size: 0x8, addend: 0x0, symName: _.str.11, symObjAddr: 0x3F540, symBinAddr: 0x1000B57E0, symSize: 0x0 }
  - { offsetInCU: 0x16F, offset: 0x100072, size: 0x8, addend: 0x0, symName: _.str.12, symObjAddr: 0x3F5A0, symBinAddr: 0x1000B5840, symSize: 0x0 }
  - { offsetInCU: 0x181, offset: 0x100084, size: 0x8, addend: 0x0, symName: _.str.13, symObjAddr: 0x3F600, symBinAddr: 0x1000B58A0, symSize: 0x0 }
  - { offsetInCU: 0x193, offset: 0x100096, size: 0x8, addend: 0x0, symName: _.str.14, symObjAddr: 0x3F660, symBinAddr: 0x1000B5900, symSize: 0x0 }
  - { offsetInCU: 0x1A5, offset: 0x1000A8, size: 0x8, addend: 0x0, symName: _.str.15, symObjAddr: 0x3F6C0, symBinAddr: 0x1000B5960, symSize: 0x0 }
  - { offsetInCU: 0x1B7, offset: 0x1000BA, size: 0x8, addend: 0x0, symName: _.str.16, symObjAddr: 0x3F720, symBinAddr: 0x1000B59C0, symSize: 0x0 }
  - { offsetInCU: 0x1C9, offset: 0x1000CC, size: 0x8, addend: 0x0, symName: _.str.17, symObjAddr: 0x3F780, symBinAddr: 0x1000B5A20, symSize: 0x0 }
  - { offsetInCU: 0x1DB, offset: 0x1000DE, size: 0x8, addend: 0x0, symName: _.str.18, symObjAddr: 0x3F7E0, symBinAddr: 0x1000B5A80, symSize: 0x0 }
  - { offsetInCU: 0x1F9, offset: 0x1000FC, size: 0x8, addend: 0x0, symName: _.str.19, symObjAddr: 0x3F840, symBinAddr: 0x1000B5AE0, symSize: 0x0 }
  - { offsetInCU: 0x20B, offset: 0x10010E, size: 0x8, addend: 0x0, symName: _.str.20, symObjAddr: 0x3F8A0, symBinAddr: 0x1000B5B40, symSize: 0x0 }
  - { offsetInCU: 0x221, offset: 0x100124, size: 0x8, addend: 0x0, symName: _datasets, symObjAddr: 0x10EA20, symBinAddr: 0x1000E2E40, symSize: 0x0 }
  - { offsetInCU: 0xACBF, offset: 0x10ABC2, size: 0x8, addend: 0x0, symName: __ZNSt3__17advanceB8ue170006INS_11__wrap_iterIPNS_12basic_stringIcNS_11char_traitsIcEENS_9allocatorIcEEEEEEllvEEvRT_T0_, symObjAddr: 0x93F0, symBinAddr: 0x10007E030, symSize: 0x38 }
  - { offsetInCU: 0x13C93, offset: 0x113B96, size: 0x8, addend: 0x0, symName: __ZNSt3__16chronomiB8ue170006IxNS_5ratioILl1ELl1000000000EEExS3_EENS_11common_typeIJNS0_8durationIT_T0_EENS5_IT1_T2_EEEE4typeERKS8_RKSB_, symObjAddr: 0x3AF00, symBinAddr: 0x1000A9E54, symSize: 0x334 }
  - { offsetInCU: 0x13D0A, offset: 0x113C0D, size: 0x8, addend: 0x0, symName: __ZNSt3__16chrono13duration_castB8ue170006INS0_8durationIxNS_5ratioILl1ELl1EEEEExNS3_ILl1ELl1000000000EEEEENS_9enable_ifIXsr13__is_durationIT_EE5valueES8_E4typeERKNS2_IT0_T1_EE, symObjAddr: 0x17670, symBinAddr: 0x10008B0A4, symSize: 0x27C }
  - { offsetInCU: 0x13D52, offset: 0x113C55, size: 0x8, addend: 0x0, symName: __ZNSt3__16chronomiB8ue170006INS0_12steady_clockENS0_8durationIxNS_5ratioILl1ELl1000000000EEEEES6_EENS_11common_typeIJT0_T1_EE4typeERKNS0_10time_pointIT_S8_EERKNSC_ISD_S9_EE, symObjAddr: 0x178EC, symBinAddr: 0x10008B320, symSize: 0x338 }
  - { offsetInCU: 0x13DAC, offset: 0x113CAF, size: 0x8, addend: 0x0, symName: __ZNSt3__16chrono13duration_castB8ue170006INS0_8durationIxNS_5ratioILl1ELl1000EEEEExNS3_ILl1ELl1000000000EEEEENS_9enable_ifIXsr13__is_durationIT_EE5valueES8_E4typeERKNS2_IT0_T1_EE, symObjAddr: 0x27E70, symBinAddr: 0x100097EC0, symSize: 0x27C }
  - { offsetInCU: 0x19585, offset: 0x119488, size: 0x8, addend: 0x0, symName: __ZNSt3__122__make_exception_guardB8ue170006INS_6vectorINS_12basic_stringIcNS_11char_traitsIcEENS_9allocatorIcEEEENS5_IS7_EEE16__destroy_vectorEEENS_28__exception_guard_exceptionsIT_EESC_, symObjAddr: 0x2E1C, symBinAddr: 0x100078130, symSize: 0x278 }
  - { offsetInCU: 0x195BE, offset: 0x1194C1, size: 0x8, addend: 0x0, symName: __ZNSt3__119__allocate_at_leastB8ue170006INS_9allocatorINS_12basic_stringIcNS_11char_traitsIcEENS1_IcEEEEEEEENS_19__allocation_resultINS_16allocator_traitsIT_E7pointerEEERSA_m, symObjAddr: 0x43D4, symBinAddr: 0x1000796E8, symSize: 0x28C }
  - { offsetInCU: 0x19603, offset: 0x119506, size: 0x8, addend: 0x0, symName: __ZNSt3__112__to_addressB8ue170006INS_12basic_stringIcNS_11char_traitsIcEENS_9allocatorIcEEEEEEPT_S8_, symObjAddr: 0x4F8C, symBinAddr: 0x100079D84, symSize: 0x14 }
  - { offsetInCU: 0x19638, offset: 0x11953B, size: 0x8, addend: 0x0, symName: __ZNSt3__130__uninitialized_allocator_copyB8ue170006INS_9allocatorINS_12basic_stringIcNS_11char_traitsIcEENS1_IcEEEEEEPKS6_S9_PS6_EET2_RT_T0_T1_SB_, symObjAddr: 0x503C, symBinAddr: 0x100079E34, symSize: 0x2DC }
  - { offsetInCU: 0x196DE, offset: 0x1195E1, size: 0x8, addend: 0x0, symName: __ZNSt3__114__unwrap_rangeB8ue170006IPKNS_12basic_stringIcNS_11char_traitsIcEENS_9allocatorIcEEEES8_EENS_4pairIT0_SA_EET_SC_, symObjAddr: 0x56C4, symBinAddr: 0x10007A40C, symSize: 0x350 }
  - { offsetInCU: 0x1972C, offset: 0x11962F, size: 0x8, addend: 0x0, symName: __ZNSt3__135__uninitialized_allocator_copy_implB8ue170006INS_9allocatorINS_12basic_stringIcNS_11char_traitsIcEENS1_IcEEEEEEPKS6_S9_PS6_EET2_RT_T0_T1_SB_, symObjAddr: 0x5A14, symBinAddr: 0x10007A75C, symSize: 0x520 }
  - { offsetInCU: 0x197D8, offset: 0x1196DB, size: 0x8, addend: 0x0, symName: __ZNSt3__113__unwrap_iterB8ue170006IPNS_12basic_stringIcNS_11char_traitsIcEENS_9allocatorIcEEEENS_18__unwrap_iter_implIS7_Lb1EEELi0EEEDTclsrT0_8__unwrapclsr3stdE7declvalIT_EEEESB_, symObjAddr: 0x5F34, symBinAddr: 0x10007AC7C, symSize: 0x24 }
  - { offsetInCU: 0x1981C, offset: 0x11971F, size: 0x8, addend: 0x0, symName: __ZNSt3__113__rewrap_iterB8ue170006IPNS_12basic_stringIcNS_11char_traitsIcEENS_9allocatorIcEEEES7_NS_18__unwrap_iter_implIS7_Lb1EEEEET_SA_T0_, symObjAddr: 0x5F58, symBinAddr: 0x10007ACA0, symSize: 0x48 }
  - { offsetInCU: 0x19871, offset: 0x119774, size: 0x8, addend: 0x0, symName: __ZNSt3__19make_pairB8ue170006IPKNS_12basic_stringIcNS_11char_traitsIcEENS_9allocatorIcEEEES8_EENS_4pairINS_18__unwrap_ref_decayIT_E4typeENSA_IT0_E4typeEEEOSB_OSE_, symObjAddr: 0x5FA0, symBinAddr: 0x10007ACE8, symSize: 0x20C }
  - { offsetInCU: 0x198C2, offset: 0x1197C5, size: 0x8, addend: 0x0, symName: __ZNSt3__113__unwrap_iterB8ue170006IPKNS_12basic_stringIcNS_11char_traitsIcEENS_9allocatorIcEEEENS_18__unwrap_iter_implIS8_Lb1EEELi0EEEDTclsrT0_8__unwrapclsr3stdE7declvalIT_EEEESC_, symObjAddr: 0x61AC, symBinAddr: 0x10007AEF4, symSize: 0x24 }
  - { offsetInCU: 0x19A2D, offset: 0x119930, size: 0x8, addend: 0x0, symName: __ZNSt3__112__to_addressB8ue170006IKNS_12basic_stringIcNS_11char_traitsIcEENS_9allocatorIcEEEEEEPT_S9_, symObjAddr: 0x6368, symBinAddr: 0x10007B0B0, symSize: 0x14 }
  - { offsetInCU: 0x19A62, offset: 0x119965, size: 0x8, addend: 0x0, symName: __ZNSt3__122__make_exception_guardB8ue170006INS_29_AllocatorDestroyRangeReverseINS_9allocatorINS_12basic_stringIcNS_11char_traitsIcEENS2_IcEEEEEEPS7_EEEENS_28__exception_guard_exceptionsIT_EESC_, symObjAddr: 0x637C, symBinAddr: 0x10007B0C4, symSize: 0x1F8 }
  - { offsetInCU: 0x19A99, offset: 0x11999C, size: 0x8, addend: 0x0, symName: __ZNSt3__119__allocator_destroyB8ue170006INS_9allocatorINS_12basic_stringIcNS_11char_traitsIcEENS1_IcEEEEEENS_16reverse_iteratorIPS6_EESA_EEvRT_T0_T1_, symObjAddr: 0x6D08, symBinAddr: 0x10007BA50, symSize: 0x2B8 }
  - { offsetInCU: 0x19B05, offset: 0x119A08, size: 0x8, addend: 0x0, symName: __ZNSt3__1neB8ue170006IPNS_12basic_stringIcNS_11char_traitsIcEENS_9allocatorIcEEEES7_EEbRKNS_16reverse_iteratorIT_EERKNS8_IT0_EE, symObjAddr: 0x6FF4, symBinAddr: 0x10007BD3C, symSize: 0x48 }
  - { offsetInCU: 0x19B51, offset: 0x119A54, size: 0x8, addend: 0x0, symName: __ZNSt3__112__to_addressB8ue170006INS_16reverse_iteratorIPNS_12basic_stringIcNS_11char_traitsIcEENS_9allocatorIcEEEEEEvEEu7__decayIDTclsr19__to_address_helperIT_EE6__callclsr3stdE7declvalIRKSA_EEEEESC_, symObjAddr: 0x7068, symBinAddr: 0x10007BDB0, symSize: 0x24 }
  - { offsetInCU: 0x19C04, offset: 0x119B07, size: 0x8, addend: 0x0, symName: __ZNSt3__18distanceB8ue170006INS_11__wrap_iterIPNS_12basic_stringIcNS_11char_traitsIcEENS_9allocatorIcEEEEEEEENS_15iterator_traitsIT_E15difference_typeESB_SB_, symObjAddr: 0x8DD0, symBinAddr: 0x10007DA10, symSize: 0x350 }
  - { offsetInCU: 0x19C4F, offset: 0x119B52, size: 0x8, addend: 0x0, symName: __ZNSt3__1miB8ue170006IPKNS_12basic_stringIcNS_11char_traitsIcEENS_9allocatorIcEEEEPS6_EEDTmicldtfp_4baseEcldtfp0_4baseEERKNS_11__wrap_iterIT_EERKNSB_IT0_EE, symObjAddr: 0x9120, symBinAddr: 0x10007DD60, symSize: 0x48 }
  - { offsetInCU: 0x19C9B, offset: 0x119B9E, size: 0x8, addend: 0x0, symName: __ZNSt3__14nextB8ue170006INS_11__wrap_iterIPNS_12basic_stringIcNS_11char_traitsIcEENS_9allocatorIcEEEEEEEENS_9enable_ifIXsr29__has_input_iterator_categoryIT_EE5valueESB_E4typeESB_NS_15iterator_traitsISB_E15difference_typeE, symObjAddr: 0x9168, symBinAddr: 0x10007DDA8, symSize: 0x288 }
  - { offsetInCU: 0x19CE3, offset: 0x119BE6, size: 0x8, addend: 0x0, symName: __ZNSt3__14copyB8ue170006INS_11__wrap_iterIPNS_12basic_stringIcNS_11char_traitsIcEENS_9allocatorIcEEEEEES8_EET0_T_SB_SA_, symObjAddr: 0x9DD0, symBinAddr: 0x10007EA10, symSize: 0x428 }
  - { offsetInCU: 0x19D46, offset: 0x119C49, size: 0x8, addend: 0x0, symName: __ZNSt3__19__advanceB8ue170006INS_11__wrap_iterIPNS_12basic_stringIcNS_11char_traitsIcEENS_9allocatorIcEEEEEEEEvRT_NS_15iterator_traitsISA_E15difference_typeENS_26random_access_iterator_tagE, symObjAddr: 0xB150, symBinAddr: 0x10007FD1C, symSize: 0x2C }
  - { offsetInCU: 0x19D8F, offset: 0x119C92, size: 0x8, addend: 0x0, symName: __ZNSt3__130__uninitialized_allocator_copyB8ue170006INS_9allocatorINS_12basic_stringIcNS_11char_traitsIcEENS1_IcEEEEEENS_11__wrap_iterIPS6_EESA_S9_EET2_RT_T0_T1_SB_, symObjAddr: 0xB1FC, symBinAddr: 0x10007FDC8, symSize: 0x498 }
  - { offsetInCU: 0x19E3B, offset: 0x119D3E, size: 0x8, addend: 0x0, symName: __ZNSt3__114__unwrap_rangeB8ue170006INS_11__wrap_iterIPNS_12basic_stringIcNS_11char_traitsIcEENS_9allocatorIcEEEEEES8_EENS_4pairIT0_SB_EET_SD_, symObjAddr: 0xB694, symBinAddr: 0x100080260, symSize: 0x4D4 }
  - { offsetInCU: 0x19E8F, offset: 0x119D92, size: 0x8, addend: 0x0, symName: __ZNSt3__135__uninitialized_allocator_copy_implB8ue170006INS_9allocatorINS_12basic_stringIcNS_11char_traitsIcEENS1_IcEEEEEEPS6_S8_S8_EET2_RT_T0_T1_S9_, symObjAddr: 0xBB68, symBinAddr: 0x100080734, symSize: 0x520 }
  - { offsetInCU: 0x19F3B, offset: 0x119E3E, size: 0x8, addend: 0x0, symName: __ZNSt3__19make_pairB8ue170006IPNS_12basic_stringIcNS_11char_traitsIcEENS_9allocatorIcEEEES7_EENS_4pairINS_18__unwrap_ref_decayIT_E4typeENS9_IT0_E4typeEEEOSA_OSD_, symObjAddr: 0xC088, symBinAddr: 0x100080C54, symSize: 0x20C }
  - { offsetInCU: 0x19F8C, offset: 0x119E8F, size: 0x8, addend: 0x0, symName: __ZNSt3__113__unwrap_iterB8ue170006INS_11__wrap_iterIPNS_12basic_stringIcNS_11char_traitsIcEENS_9allocatorIcEEEEEENS_18__unwrap_iter_implIS9_Lb1EEELi0EEEDTclsrT0_8__unwrapclsr3stdE7declvalIT_EEEESD_, symObjAddr: 0xC294, symBinAddr: 0x100080E60, symSize: 0x274 }
  - { offsetInCU: 0x1A0FB, offset: 0x119FFE, size: 0x8, addend: 0x0, symName: __ZNSt3__112__to_addressB8ue170006INS_11__wrap_iterIPNS_12basic_stringIcNS_11char_traitsIcEENS_9allocatorIcEEEEEEvEEu7__decayIDTclsr19__to_address_helperIT_EE6__callclsr3stdE7declvalIRKSA_EEEEESC_, symObjAddr: 0xC86C, symBinAddr: 0x100081438, symSize: 0x24 }
  - { offsetInCU: 0x1A1D7, offset: 0x11A0DA, size: 0x8, addend: 0x0, symName: __ZNSt3__113move_backwardB8ue170006IPNS_12basic_stringIcNS_11char_traitsIcEENS_9allocatorIcEEEES7_EET0_T_S9_S8_, symObjAddr: 0xCD1C, symBinAddr: 0x1000818E8, symSize: 0x26C }
  - { offsetInCU: 0x1A234, offset: 0x11A137, size: 0x8, addend: 0x0, symName: __ZNSt3__115__move_backwardB8ue170006INS_17_ClassicAlgPolicyEPNS_12basic_stringIcNS_11char_traitsIcEENS_9allocatorIcEEEES8_S8_EENS_4pairIT0_T2_EESA_T1_SB_, symObjAddr: 0xD2A4, symBinAddr: 0x100081B84, symSize: 0x22C }
  - { offsetInCU: 0x1A2A3, offset: 0x11A1A6, size: 0x8, addend: 0x0, symName: __ZNSt3__123__dispatch_copy_or_moveB8ue170006INS_17_ClassicAlgPolicyENS_20__move_backward_loopIS1_EENS_23__move_backward_trivialEPNS_12basic_stringIcNS_11char_traitsIcEENS_9allocatorIcEEEESB_SB_EENS_4pairIT2_T4_EESD_T3_SE_, symObjAddr: 0xD4D0, symBinAddr: 0x100081DB0, symSize: 0x22C }
  - { offsetInCU: 0x1A324, offset: 0x11A227, size: 0x8, addend: 0x0, symName: __ZNSt3__121__unwrap_and_dispatchB8ue170006INS_10__overloadINS_20__move_backward_loopINS_17_ClassicAlgPolicyEEENS_23__move_backward_trivialEEEPNS_12basic_stringIcNS_11char_traitsIcEENS_9allocatorIcEEEESD_SD_Li0EEENS_4pairIT0_T2_EESF_T1_SG_, symObjAddr: 0xD6FC, symBinAddr: 0x100081FDC, symSize: 0x5A4 }
  - { offsetInCU: 0x1A3BD, offset: 0x11A2C0, size: 0x8, addend: 0x0, symName: __ZNSt3__114__unwrap_rangeB8ue170006IPNS_12basic_stringIcNS_11char_traitsIcEENS_9allocatorIcEEEES7_EENS_4pairIT0_S9_EET_SB_, symObjAddr: 0xDCA0, symBinAddr: 0x100082580, symSize: 0x350 }
  - { offsetInCU: 0x1A45D, offset: 0x11A360, size: 0x8, addend: 0x0, symName: __ZNSt3__114__rewrap_rangeB8ue170006IPNS_12basic_stringIcNS_11char_traitsIcEENS_9allocatorIcEEEES7_EET_S8_T0_, symObjAddr: 0xE4E0, symBinAddr: 0x100082DC0, symSize: 0x2C }
  - { offsetInCU: 0x1A5CF, offset: 0x11A4D2, size: 0x8, addend: 0x0, symName: __ZNSt3__16__copyB8ue170006INS_17_ClassicAlgPolicyENS_11__wrap_iterIPNS_12basic_stringIcNS_11char_traitsIcEENS_9allocatorIcEEEEEESA_S9_EENS_4pairIT0_T2_EESC_T1_SD_, symObjAddr: 0xEDF8, symBinAddr: 0x100083330, symSize: 0x3E4 }
  - { offsetInCU: 0x1A644, offset: 0x11A547, size: 0x8, addend: 0x0, symName: __ZNSt3__123__dispatch_copy_or_moveB8ue170006INS_17_ClassicAlgPolicyENS_11__copy_loopIS1_EENS_14__copy_trivialENS_11__wrap_iterIPNS_12basic_stringIcNS_11char_traitsIcEENS_9allocatorIcEEEEEESD_SC_EENS_4pairIT2_T4_EESF_T3_SG_, symObjAddr: 0xF1DC, symBinAddr: 0x100083714, symSize: 0x3E4 }
  - { offsetInCU: 0x1A6CB, offset: 0x11A5CE, size: 0x8, addend: 0x0, symName: __ZNSt3__121__unwrap_and_dispatchB8ue170006INS_10__overloadINS_11__copy_loopINS_17_ClassicAlgPolicyEEENS_14__copy_trivialEEENS_11__wrap_iterIPNS_12basic_stringIcNS_11char_traitsIcEENS_9allocatorIcEEEEEESF_SE_Li0EEENS_4pairIT0_T2_EESH_T1_SI_, symObjAddr: 0xF5C0, symBinAddr: 0x100083AF8, symSize: 0x768 }
  - { offsetInCU: 0x1A7BE, offset: 0x11A6C1, size: 0x8, addend: 0x0, symName: __ZNSt3__19make_pairB8ue170006INS_11__wrap_iterIPNS_12basic_stringIcNS_11char_traitsIcEENS_9allocatorIcEEEEEES8_EENS_4pairINS_18__unwrap_ref_decayIT_E4typeENSB_IT0_E4typeEEEOSC_OSF_, symObjAddr: 0x10180, symBinAddr: 0x1000846B8, symSize: 0x20C }
  - { offsetInCU: 0x1A80F, offset: 0x11A712, size: 0x8, addend: 0x0, symName: __ZNSt3__114__rewrap_rangeB8ue170006INS_11__wrap_iterIPNS_12basic_stringIcNS_11char_traitsIcEENS_9allocatorIcEEEEEES8_EET_SA_T0_, symObjAddr: 0x1038C, symBinAddr: 0x1000848C4, symSize: 0x324 }
  - { offsetInCU: 0x1A934, offset: 0x11A837, size: 0x8, addend: 0x0, symName: __ZNSt3__113__rewrap_iterB8ue170006INS_11__wrap_iterIPNS_12basic_stringIcNS_11char_traitsIcEENS_9allocatorIcEEEEEES8_NS_18__unwrap_iter_implIS9_Lb1EEEEET_SC_T0_, symObjAddr: 0x107BC, symBinAddr: 0x100084CF4, symSize: 0x338 }
  - { offsetInCU: 0x1A98E, offset: 0x11A891, size: 0x8, addend: 0x0, symName: __ZNSt3__142__uninitialized_allocator_move_if_noexceptB8ue170006INS_9allocatorINS_12basic_stringIcNS_11char_traitsIcEENS1_IcEEEEEENS_16reverse_iteratorIPS6_EESA_SA_EET2_RT_T0_T1_SB_, symObjAddr: 0x11CA4, symBinAddr: 0x100085FC8, symSize: 0x534 }
  - { offsetInCU: 0x1AA43, offset: 0x11A946, size: 0x8, addend: 0x0, symName: __ZNSt3__142__uninitialized_allocator_move_if_noexceptB8ue170006INS_9allocatorINS_12basic_stringIcNS_11char_traitsIcEENS1_IcEEEEEEPS6_S8_S8_EET2_RT_T0_T1_S9_, symObjAddr: 0x121D8, symBinAddr: 0x1000864FC, symSize: 0x520 }
  - { offsetInCU: 0x1AAEF, offset: 0x11A9F2, size: 0x8, addend: 0x0, symName: __ZNSt3__14swapB8ue170006IPNS_12basic_stringIcNS_11char_traitsIcEENS_9allocatorIcEEEEEENS_9enable_ifIXaasr21is_move_constructibleIT_EE5valuesr18is_move_assignableIS9_EE5valueEvE4typeERS9_SC_, symObjAddr: 0x126F8, symBinAddr: 0x100086A1C, symSize: 0x134 }
  - { offsetInCU: 0x1AB40, offset: 0x11AA43, size: 0x8, addend: 0x0, symName: __ZNSt3__122__make_exception_guardB8ue170006INS_29_AllocatorDestroyRangeReverseINS_9allocatorINS_12basic_stringIcNS_11char_traitsIcEENS2_IcEEEEEENS_16reverse_iteratorIPS7_EEEEEENS_28__exception_guard_exceptionsIT_EESE_, symObjAddr: 0x1282C, symBinAddr: 0x100086B50, symSize: 0x1F8 }
  - { offsetInCU: 0x1AB77, offset: 0x11AA7A, size: 0x8, addend: 0x0, symName: __ZNSt3__119__allocator_destroyB8ue170006INS_9allocatorINS_12basic_stringIcNS_11char_traitsIcEENS1_IcEEEEEENS_16reverse_iteratorINS8_IPS6_EEEESB_EEvRT_T0_T1_, symObjAddr: 0x13160, symBinAddr: 0x100087484, symSize: 0x70 }
  - { offsetInCU: 0x1ABDC, offset: 0x11AADF, size: 0x8, addend: 0x0, symName: __ZNSt3__1neB8ue170006INS_16reverse_iteratorIPNS_12basic_stringIcNS_11char_traitsIcEENS_9allocatorIcEEEEEES9_EEbRKNS1_IT_EERKNS1_IT0_EE, symObjAddr: 0x13418, symBinAddr: 0x10008773C, symSize: 0x2CC }
  - { offsetInCU: 0x1AC2A, offset: 0x11AB2D, size: 0x8, addend: 0x0, symName: __ZNSt3__112__to_addressB8ue170006INS_16reverse_iteratorINS1_IPNS_12basic_stringIcNS_11char_traitsIcEENS_9allocatorIcEEEEEEEEvEEu7__decayIDTclsr19__to_address_helperIT_EE6__callclsr3stdE7declvalIRKSB_EEEEESD_, symObjAddr: 0x136E4, symBinAddr: 0x100087A08, symSize: 0x24 }
  - { offsetInCU: 0x1AC8A, offset: 0x11AB8D, size: 0x8, addend: 0x0, symName: __ZNSt3__110__distanceB8ue170006INS_11__wrap_iterIPNS_12basic_stringIcNS_11char_traitsIcEENS_9allocatorIcEEEEEEEENS_15iterator_traitsIT_E15difference_typeESB_SB_NS_26random_access_iterator_tagE, symObjAddr: 0x141DC, symBinAddr: 0x100088500, symSize: 0x274 }
  - { offsetInCU: 0x1ACE0, offset: 0x11ABE3, size: 0x8, addend: 0x0, symName: __ZNSt3__1miB8ue170006IPNS_12basic_stringIcNS_11char_traitsIcEENS_9allocatorIcEEEES7_EEDTmicldtfp_4baseEcldtfp0_4baseEERKNS_11__wrap_iterIT_EERKNS9_IT0_EE, symObjAddr: 0x14450, symBinAddr: 0x100088774, symSize: 0x48 }
  - { offsetInCU: 0x1AD2C, offset: 0x11AC2F, size: 0x8, addend: 0x0, symName: __ZNSt3__1neB8ue170006IPP5GraphEEbRKNS_11__wrap_iterIT_EES8_, symObjAddr: 0x15564, symBinAddr: 0x100088F98, symSize: 0x34 }
  - { offsetInCU: 0x1AD6F, offset: 0x11AC72, size: 0x8, addend: 0x0, symName: __ZNSt3__112__to_addressB8ue170006IP5GraphEEPT_S4_, symObjAddr: 0x1AFD4, symBinAddr: 0x10008C368, symSize: 0x14 }
  - { offsetInCU: 0x1ADA4, offset: 0x11ACA7, size: 0x8, addend: 0x0, symName: __ZNSt3__119__allocate_at_leastB8ue170006INS_9allocatorIP5GraphEEEENS_19__allocation_resultINS_16allocator_traitsIT_E7pointerEEERS7_m, symObjAddr: 0x1CB30, symBinAddr: 0x10008DEC4, symSize: 0x28C }
  - { offsetInCU: 0x1ADE9, offset: 0x11ACEC, size: 0x8, addend: 0x0, symName: __ZNSt3__142__uninitialized_allocator_move_if_noexceptB8ue170006INS_9allocatorIP5GraphEENS_16reverse_iteratorIPS3_EES7_S3_vEET1_RT_T0_SB_S8_, symObjAddr: 0x1D098, symBinAddr: 0x10008E42C, symSize: 0x4A8 }
  - { offsetInCU: 0x1AE73, offset: 0x11AD76, size: 0x8, addend: 0x0, symName: __ZNSt3__14swapB8ue170006IPP5GraphEENS_9enable_ifIXaasr21is_move_constructibleIT_EE5valuesr18is_move_assignableIS5_EE5valueEvE4typeERS5_S8_, symObjAddr: 0x1D5D8, symBinAddr: 0x10008E96C, symSize: 0x134 }
  - { offsetInCU: 0x1AEC4, offset: 0x11ADC7, size: 0x8, addend: 0x0, symName: __ZNSt3__14moveB8ue170006INS_16reverse_iteratorIPP5GraphEES5_EET0_T_S7_S6_, symObjAddr: 0x1D7CC, symBinAddr: 0x10008EB60, symSize: 0x4B0 }
  - { offsetInCU: 0x1AF2B, offset: 0x11AE2E, size: 0x8, addend: 0x0, symName: __ZNSt3__16__moveB8ue170006INS_17_ClassicAlgPolicyENS_16reverse_iteratorIPP5GraphEES6_S6_EENS_4pairIT0_T2_EES8_T1_S9_, symObjAddr: 0x1DC7C, symBinAddr: 0x10008F010, symSize: 0x424 }
  - { offsetInCU: 0x1AFA3, offset: 0x11AEA6, size: 0x8, addend: 0x0, symName: __ZNSt3__123__dispatch_copy_or_moveB8ue170006INS_17_ClassicAlgPolicyENS_11__move_loopIS1_EENS_14__move_trivialENS_16reverse_iteratorIPP5GraphEES9_S9_EENS_4pairIT2_T4_EESB_T3_SC_, symObjAddr: 0x1E0A0, symBinAddr: 0x10008F434, symSize: 0x424 }
  - { offsetInCU: 0x1B02D, offset: 0x11AF30, size: 0x8, addend: 0x0, symName: __ZNSt3__121__unwrap_and_dispatchB8ue170006INS_10__overloadINS_11__move_loopINS_17_ClassicAlgPolicyEEENS_14__move_trivialEEENS_16reverse_iteratorIPP5GraphEESB_SB_Li0EEENS_4pairIT0_T2_EESD_T1_SE_, symObjAddr: 0x1E4C4, symBinAddr: 0x10008F858, symSize: 0x880 }
  - { offsetInCU: 0x1B0D1, offset: 0x11AFD4, size: 0x8, addend: 0x0, symName: __ZNSt3__114__unwrap_rangeB8ue170006INS_16reverse_iteratorIPP5GraphEES5_EENS_4pairIT0_S7_EET_S9_, symObjAddr: 0x1ED44, symBinAddr: 0x1000900D8, symSize: 0x448 }
  - { offsetInCU: 0x1B2C9, offset: 0x11B1CC, size: 0x8, addend: 0x0, symName: __ZNSt3__113__unwrap_iterB8ue170006INS_16reverse_iteratorIPP5GraphEENS_18__unwrap_iter_implIS5_Lb0EEELi0EEEDTclsrT0_8__unwrapclsr3stdE7declvalIT_EEEES9_, symObjAddr: 0x1F534, symBinAddr: 0x1000908C8, symSize: 0x2EC }
  - { offsetInCU: 0x1B311, offset: 0x11B214, size: 0x8, addend: 0x0, symName: __ZNSt3__19make_pairB8ue170006INS_16reverse_iteratorIPP5GraphEES5_EENS_4pairINS_18__unwrap_ref_decayIT_E4typeENS7_IT0_E4typeEEEOS8_OSB_, symObjAddr: 0x1F820, symBinAddr: 0x100090BB4, symSize: 0x38 }
  - { offsetInCU: 0x1B360, offset: 0x11B263, size: 0x8, addend: 0x0, symName: __ZNSt3__114__rewrap_rangeB8ue170006INS_16reverse_iteratorIPP5GraphEES5_EET_S6_T0_, symObjAddr: 0x1F858, symBinAddr: 0x100090BEC, symSize: 0x3D4 }
  - { offsetInCU: 0x1B3B4, offset: 0x11B2B7, size: 0x8, addend: 0x0, symName: __ZNSt3__113__rewrap_iterB8ue170006INS_16reverse_iteratorIPP5GraphEES5_NS_18__unwrap_iter_implIS5_Lb0EEEEET_S8_T0_, symObjAddr: 0x1FC2C, symBinAddr: 0x100090FC0, symSize: 0x3E8 }
  - { offsetInCU: 0x1B411, offset: 0x11B314, size: 0x8, addend: 0x0, symName: __ZNSt3__1neB8ue170006IPP5GraphS3_EEbRKNS_16reverse_iteratorIT_EERKNS4_IT0_EE, symObjAddr: 0x20014, symBinAddr: 0x1000913A8, symSize: 0x48 }
  - { offsetInCU: 0x1B4C9, offset: 0x11B3CC, size: 0x8, addend: 0x0, symName: __ZNSt3__142__uninitialized_allocator_move_if_noexceptB8ue170006INS_9allocatorImEENS_16reverse_iteratorIPmEES5_mvEET1_RT_T0_S9_S6_, symObjAddr: 0x23608, symBinAddr: 0x100093888, symSize: 0x4A8 }
  - { offsetInCU: 0x1B553, offset: 0x11B456, size: 0x8, addend: 0x0, symName: __ZNSt3__14swapB8ue170006IPmEENS_9enable_ifIXaasr21is_move_constructibleIT_EE5valuesr18is_move_assignableIS3_EE5valueEvE4typeERS3_S6_, symObjAddr: 0x23B48, symBinAddr: 0x100093DC8, symSize: 0x134 }
  - { offsetInCU: 0x1B5A4, offset: 0x11B4A7, size: 0x8, addend: 0x0, symName: __ZNSt3__14moveB8ue170006INS_16reverse_iteratorIPmEES3_EET0_T_S5_S4_, symObjAddr: 0x23D3C, symBinAddr: 0x100093EFC, symSize: 0x4B0 }
  - { offsetInCU: 0x1B60B, offset: 0x11B50E, size: 0x8, addend: 0x0, symName: __ZNSt3__16__moveB8ue170006INS_17_ClassicAlgPolicyENS_16reverse_iteratorIPmEES4_S4_EENS_4pairIT0_T2_EES6_T1_S7_, symObjAddr: 0x241EC, symBinAddr: 0x1000943AC, symSize: 0x424 }
  - { offsetInCU: 0x1B683, offset: 0x11B586, size: 0x8, addend: 0x0, symName: __ZNSt3__123__dispatch_copy_or_moveB8ue170006INS_17_ClassicAlgPolicyENS_11__move_loopIS1_EENS_14__move_trivialENS_16reverse_iteratorIPmEES7_S7_EENS_4pairIT2_T4_EES9_T3_SA_, symObjAddr: 0x24610, symBinAddr: 0x1000947D0, symSize: 0x424 }
  - { offsetInCU: 0x1B70D, offset: 0x11B610, size: 0x8, addend: 0x0, symName: __ZNSt3__121__unwrap_and_dispatchB8ue170006INS_10__overloadINS_11__move_loopINS_17_ClassicAlgPolicyEEENS_14__move_trivialEEENS_16reverse_iteratorIPmEES9_S9_Li0EEENS_4pairIT0_T2_EESB_T1_SC_, symObjAddr: 0x24A34, symBinAddr: 0x100094BF4, symSize: 0x880 }
  - { offsetInCU: 0x1B7B1, offset: 0x11B6B4, size: 0x8, addend: 0x0, symName: __ZNSt3__114__unwrap_rangeB8ue170006INS_16reverse_iteratorIPmEES3_EENS_4pairIT0_S5_EET_S7_, symObjAddr: 0x252B4, symBinAddr: 0x100095474, symSize: 0x448 }
  - { offsetInCU: 0x1B8D9, offset: 0x11B7DC, size: 0x8, addend: 0x0, symName: __ZNSt3__113__unwrap_iterB8ue170006INS_16reverse_iteratorIPmEENS_18__unwrap_iter_implIS3_Lb0EEELi0EEEDTclsrT0_8__unwrapclsr3stdE7declvalIT_EEEES7_, symObjAddr: 0x25AA4, symBinAddr: 0x100095C64, symSize: 0x2EC }
  - { offsetInCU: 0x1B921, offset: 0x11B824, size: 0x8, addend: 0x0, symName: __ZNSt3__19make_pairB8ue170006INS_16reverse_iteratorIPmEES3_EENS_4pairINS_18__unwrap_ref_decayIT_E4typeENS5_IT0_E4typeEEEOS6_OS9_, symObjAddr: 0x25D90, symBinAddr: 0x100095F50, symSize: 0x38 }
  - { offsetInCU: 0x1B970, offset: 0x11B873, size: 0x8, addend: 0x0, symName: __ZNSt3__114__rewrap_rangeB8ue170006INS_16reverse_iteratorIPmEES3_EET_S4_T0_, symObjAddr: 0x25DC8, symBinAddr: 0x100095F88, symSize: 0x3D4 }
  - { offsetInCU: 0x1B9C4, offset: 0x11B8C7, size: 0x8, addend: 0x0, symName: __ZNSt3__113__rewrap_iterB8ue170006INS_16reverse_iteratorIPmEES3_NS_18__unwrap_iter_implIS3_Lb0EEEEET_S6_T0_, symObjAddr: 0x2619C, symBinAddr: 0x10009635C, symSize: 0x3E8 }
  - { offsetInCU: 0x1BA21, offset: 0x11B924, size: 0x8, addend: 0x0, symName: __ZNSt3__1neB8ue170006IPmS1_EEbRKNS_16reverse_iteratorIT_EERKNS2_IT0_EE, symObjAddr: 0x26584, symBinAddr: 0x100096744, symSize: 0x48 }
  - { offsetInCU: 0x1BAD9, offset: 0x11B9DC, size: 0x8, addend: 0x0, symName: __ZNSt3__1eqB8ue170006IPP5GraphEEbRKNS_11__wrap_iterIT_EES8_, symObjAddr: 0x27480, symBinAddr: 0x100097580, symSize: 0x48 }
  - { offsetInCU: 0x1BB1C, offset: 0x11BA1F, size: 0x8, addend: 0x0, symName: __ZNSt3__112__to_addressB8ue170006IdEEPT_S2_, symObjAddr: 0x2ACC4, symBinAddr: 0x10009A170, symSize: 0x14 }
  - { offsetInCU: 0x1BB51, offset: 0x11BA54, size: 0x8, addend: 0x0, symName: __ZNSt3__119__allocate_at_leastB8ue170006INS_9allocatorIdEEEENS_19__allocation_resultINS_16allocator_traitsIT_E7pointerEEERS5_m, symObjAddr: 0x2C8D0, symBinAddr: 0x10009BD7C, symSize: 0x28C }
  - { offsetInCU: 0x1BB96, offset: 0x11BA99, size: 0x8, addend: 0x0, symName: __ZNSt3__142__uninitialized_allocator_move_if_noexceptB8ue170006INS_9allocatorIdEENS_16reverse_iteratorIPdEES5_dvEET1_RT_T0_S9_S6_, symObjAddr: 0x2CE38, symBinAddr: 0x10009C2E4, symSize: 0x4A8 }
  - { offsetInCU: 0x1BC20, offset: 0x11BB23, size: 0x8, addend: 0x0, symName: __ZNSt3__14swapB8ue170006IPdEENS_9enable_ifIXaasr21is_move_constructibleIT_EE5valuesr18is_move_assignableIS3_EE5valueEvE4typeERS3_S6_, symObjAddr: 0x2D378, symBinAddr: 0x10009C824, symSize: 0x134 }
  - { offsetInCU: 0x1BC71, offset: 0x11BB74, size: 0x8, addend: 0x0, symName: __ZNSt3__14moveB8ue170006INS_16reverse_iteratorIPdEES3_EET0_T_S5_S4_, symObjAddr: 0x2D56C, symBinAddr: 0x10009CA18, symSize: 0x4B0 }
  - { offsetInCU: 0x1BCD8, offset: 0x11BBDB, size: 0x8, addend: 0x0, symName: __ZNSt3__16__moveB8ue170006INS_17_ClassicAlgPolicyENS_16reverse_iteratorIPdEES4_S4_EENS_4pairIT0_T2_EES6_T1_S7_, symObjAddr: 0x2DA1C, symBinAddr: 0x10009CEC8, symSize: 0x424 }
  - { offsetInCU: 0x1BD50, offset: 0x11BC53, size: 0x8, addend: 0x0, symName: __ZNSt3__123__dispatch_copy_or_moveB8ue170006INS_17_ClassicAlgPolicyENS_11__move_loopIS1_EENS_14__move_trivialENS_16reverse_iteratorIPdEES7_S7_EENS_4pairIT2_T4_EES9_T3_SA_, symObjAddr: 0x2DE40, symBinAddr: 0x10009D2EC, symSize: 0x424 }
  - { offsetInCU: 0x1BDDA, offset: 0x11BCDD, size: 0x8, addend: 0x0, symName: __ZNSt3__121__unwrap_and_dispatchB8ue170006INS_10__overloadINS_11__move_loopINS_17_ClassicAlgPolicyEEENS_14__move_trivialEEENS_16reverse_iteratorIPdEES9_S9_Li0EEENS_4pairIT0_T2_EESB_T1_SC_, symObjAddr: 0x2E264, symBinAddr: 0x10009D710, symSize: 0x880 }
  - { offsetInCU: 0x1BE7E, offset: 0x11BD81, size: 0x8, addend: 0x0, symName: __ZNSt3__114__unwrap_rangeB8ue170006INS_16reverse_iteratorIPdEES3_EENS_4pairIT0_S5_EET_S7_, symObjAddr: 0x2EAE4, symBinAddr: 0x10009DF90, symSize: 0x448 }
  - { offsetInCU: 0x1BFA6, offset: 0x11BEA9, size: 0x8, addend: 0x0, symName: __ZNSt3__113__unwrap_iterB8ue170006INS_16reverse_iteratorIPdEENS_18__unwrap_iter_implIS3_Lb0EEELi0EEEDTclsrT0_8__unwrapclsr3stdE7declvalIT_EEEES7_, symObjAddr: 0x2F2D4, symBinAddr: 0x10009E780, symSize: 0x2EC }
  - { offsetInCU: 0x1BFEE, offset: 0x11BEF1, size: 0x8, addend: 0x0, symName: __ZNSt3__19make_pairB8ue170006INS_16reverse_iteratorIPdEES3_EENS_4pairINS_18__unwrap_ref_decayIT_E4typeENS5_IT0_E4typeEEEOS6_OS9_, symObjAddr: 0x2F5C0, symBinAddr: 0x10009EA6C, symSize: 0x38 }
  - { offsetInCU: 0x1C03D, offset: 0x11BF40, size: 0x8, addend: 0x0, symName: __ZNSt3__114__rewrap_rangeB8ue170006INS_16reverse_iteratorIPdEES3_EET_S4_T0_, symObjAddr: 0x2F5F8, symBinAddr: 0x10009EAA4, symSize: 0x3D4 }
  - { offsetInCU: 0x1C091, offset: 0x11BF94, size: 0x8, addend: 0x0, symName: __ZNSt3__113__rewrap_iterB8ue170006INS_16reverse_iteratorIPdEES3_NS_18__unwrap_iter_implIS3_Lb0EEEEET_S6_T0_, symObjAddr: 0x2F9CC, symBinAddr: 0x10009EE78, symSize: 0x3E8 }
  - { offsetInCU: 0x1C0EE, offset: 0x11BFF1, size: 0x8, addend: 0x0, symName: __ZNSt3__1neB8ue170006IPdS1_EEbRKNS_16reverse_iteratorIT_EERKNS2_IT0_EE, symObjAddr: 0x2FDB4, symBinAddr: 0x10009F260, symSize: 0x48 }
  - { offsetInCU: 0x1C1A6, offset: 0x11C0A9, size: 0x8, addend: 0x0, symName: __ZNSt3__112__to_addressB8ue170006INS_6vectorIdNS_9allocatorIdEEEEEEPT_S6_, symObjAddr: 0x31A48, symBinAddr: 0x1000A0EF4, symSize: 0x14 }
  - { offsetInCU: 0x1C1DB, offset: 0x11C0DE, size: 0x8, addend: 0x0, symName: __ZNSt3__122__make_exception_guardB8ue170006INS_6vectorIdNS_9allocatorIdEEE16__destroy_vectorEEENS_28__exception_guard_exceptionsIT_EES7_, symObjAddr: 0x327D0, symBinAddr: 0x1000A1C7C, symSize: 0x278 }
  - { offsetInCU: 0x1C214, offset: 0x11C117, size: 0x8, addend: 0x0, symName: __ZNSt3__130__uninitialized_allocator_copyB8ue170006INS_9allocatorIdEEPdS3_S3_EET2_RT_T0_T1_S4_, symObjAddr: 0x337E0, symBinAddr: 0x1000A2C8C, symSize: 0x2DC }
  - { offsetInCU: 0x1C2BA, offset: 0x11C1BD, size: 0x8, addend: 0x0, symName: __ZNSt3__114__unwrap_rangeB8ue170006IPdS1_EENS_4pairIT0_S3_EET_S5_, symObjAddr: 0x33ABC, symBinAddr: 0x1000A2F68, symSize: 0x350 }
  - { offsetInCU: 0x1C308, offset: 0x11C20B, size: 0x8, addend: 0x0, symName: __ZNSt3__135__uninitialized_allocator_copy_implB8ue170006INS_9allocatorIdEEdddLPv0EEEPT2_RT_PT0_S9_S5_, symObjAddr: 0x33E0C, symBinAddr: 0x1000A32B8, symSize: 0x38 }
  - { offsetInCU: 0x1C389, offset: 0x11C28C, size: 0x8, addend: 0x0, symName: __ZNSt3__113__unwrap_iterB8ue170006IPdNS_18__unwrap_iter_implIS1_Lb1EEELi0EEEDTclsrT0_8__unwrapclsr3stdE7declvalIT_EEEES5_, symObjAddr: 0x33E44, symBinAddr: 0x1000A32F0, symSize: 0x24 }
  - { offsetInCU: 0x1C3CD, offset: 0x11C2D0, size: 0x8, addend: 0x0, symName: __ZNSt3__113__rewrap_iterB8ue170006IPdS1_NS_18__unwrap_iter_implIS1_Lb1EEEEET_S4_T0_, symObjAddr: 0x33E68, symBinAddr: 0x1000A3314, symSize: 0x48 }
  - { offsetInCU: 0x1C422, offset: 0x11C325, size: 0x8, addend: 0x0, symName: __ZNSt3__19make_pairB8ue170006IPdS1_EENS_4pairINS_18__unwrap_ref_decayIT_E4typeENS3_IT0_E4typeEEEOS4_OS7_, symObjAddr: 0x33EB0, symBinAddr: 0x1000A335C, symSize: 0x20C }
  - { offsetInCU: 0x1C576, offset: 0x11C479, size: 0x8, addend: 0x0, symName: __ZNSt3__14copyB8ue170006IPdS1_EET0_T_S3_S2_, symObjAddr: 0x34230, symBinAddr: 0x1000A36DC, symSize: 0x26C }
  - { offsetInCU: 0x1C5D3, offset: 0x11C4D6, size: 0x8, addend: 0x0, symName: __ZNSt3__16__copyB8ue170006INS_17_ClassicAlgPolicyEPdS2_S2_EENS_4pairIT0_T2_EES4_T1_S5_, symObjAddr: 0x3449C, symBinAddr: 0x1000A3948, symSize: 0x22C }
  - { offsetInCU: 0x1C642, offset: 0x11C545, size: 0x8, addend: 0x0, symName: __ZNSt3__123__dispatch_copy_or_moveB8ue170006INS_17_ClassicAlgPolicyENS_11__copy_loopIS1_EENS_14__copy_trivialEPdS5_S5_EENS_4pairIT2_T4_EES7_T3_S8_, symObjAddr: 0x346C8, symBinAddr: 0x1000A3B74, symSize: 0x22C }
  - { offsetInCU: 0x1C6C3, offset: 0x11C5C6, size: 0x8, addend: 0x0, symName: __ZNSt3__121__unwrap_and_dispatchB8ue170006INS_10__overloadINS_11__copy_loopINS_17_ClassicAlgPolicyEEENS_14__copy_trivialEEEPdS7_S7_Li0EEENS_4pairIT0_T2_EES9_T1_SA_, symObjAddr: 0x348F4, symBinAddr: 0x1000A3DA0, symSize: 0x5A4 }
  - { offsetInCU: 0x1C7A2, offset: 0x11C6A5, size: 0x8, addend: 0x0, symName: __ZNSt3__114__rewrap_rangeB8ue170006IPdS1_EET_S2_T0_, symObjAddr: 0x350C8, symBinAddr: 0x1000A4574, symSize: 0x2C }
  - { offsetInCU: 0x1C7EE, offset: 0x11C6F1, size: 0x8, addend: 0x0, symName: __ZNSt3__119__copy_trivial_implB8ue170006IddEENS_4pairIPT_PT0_EES3_S3_S5_, symObjAddr: 0x350F4, symBinAddr: 0x1000A45A0, symSize: 0x3B4 }
  - { offsetInCU: 0x1C85D, offset: 0x11C760, size: 0x8, addend: 0x0, symName: __ZNSt3__119__constexpr_memmoveB8ue170006IddLi0EEEPT_S2_PT0_NS_15__element_countE, symObjAddr: 0x354A8, symBinAddr: 0x1000A4954, symSize: 0x64 }
  - { offsetInCU: 0x1C8CB, offset: 0x11C7CE, size: 0x8, addend: 0x0, symName: __ZNSt3__19make_pairB8ue170006IRPdS1_EENS_4pairINS_18__unwrap_ref_decayIT_E4typeENS4_IT0_E4typeEEEOS5_OS8_, symObjAddr: 0x3550C, symBinAddr: 0x1000A49B8, symSize: 0x20C }
  - { offsetInCU: 0x1C96F, offset: 0x11C872, size: 0x8, addend: 0x0, symName: __ZNSt3__119__allocate_at_leastB8ue170006INS_9allocatorINS_6vectorIdNS1_IdEEEEEEEENS_19__allocation_resultINS_16allocator_traitsIT_E7pointerEEERS8_m, symObjAddr: 0x37374, symBinAddr: 0x1000A6820, symSize: 0x28C }
  - { offsetInCU: 0x1C9B4, offset: 0x11C8B7, size: 0x8, addend: 0x0, symName: __ZNSt3__142__uninitialized_allocator_move_if_noexceptB8ue170006INS_9allocatorINS_6vectorIdNS1_IdEEEEEENS_16reverse_iteratorIPS4_EES8_S8_EET2_RT_T0_T1_S9_, symObjAddr: 0x378FC, symBinAddr: 0x1000A6DA8, symSize: 0x544 }
  - { offsetInCU: 0x1CA69, offset: 0x11C96C, size: 0x8, addend: 0x0, symName: __ZNSt3__14swapB8ue170006IPNS_6vectorIdNS_9allocatorIdEEEEEENS_9enable_ifIXaasr21is_move_constructibleIT_EE5valuesr18is_move_assignableIS7_EE5valueEvE4typeERS7_SA_, symObjAddr: 0x37ED8, symBinAddr: 0x1000A7384, symSize: 0x134 }
  - { offsetInCU: 0x1CABA, offset: 0x11C9BD, size: 0x8, addend: 0x0, symName: __ZNSt3__122__make_exception_guardB8ue170006INS_29_AllocatorDestroyRangeReverseINS_9allocatorINS_6vectorIdNS2_IdEEEEEENS_16reverse_iteratorIPS5_EEEEEENS_28__exception_guard_exceptionsIT_EESC_, symObjAddr: 0x380E8, symBinAddr: 0x1000A7594, symSize: 0x1F8 }
  - { offsetInCU: 0x1CAF1, offset: 0x11C9F4, size: 0x8, addend: 0x0, symName: __ZNSt3__1neB8ue170006IPNS_6vectorIdNS_9allocatorIdEEEES5_EEbRKNS_16reverse_iteratorIT_EERKNS6_IT0_EE, symObjAddr: 0x38324, symBinAddr: 0x1000A77D0, symSize: 0x48 }
  - { offsetInCU: 0x1CB3D, offset: 0x11CA40, size: 0x8, addend: 0x0, symName: __ZNSt3__112__to_addressB8ue170006INS_16reverse_iteratorIPNS_6vectorIdNS_9allocatorIdEEEEEEvEEu7__decayIDTclsr19__to_address_helperIT_EE6__callclsr3stdE7declvalIRKS8_EEEEESA_, symObjAddr: 0x383A0, symBinAddr: 0x1000A784C, symSize: 0x24 }
  - { offsetInCU: 0x1CB9D, offset: 0x11CAA0, size: 0x8, addend: 0x0, symName: __ZNSt3__119__allocator_destroyB8ue170006INS_9allocatorINS_6vectorIdNS1_IdEEEEEENS_16reverse_iteratorINS6_IPS4_EEEES9_EEvRT_T0_T1_, symObjAddr: 0x3915C, symBinAddr: 0x1000A8608, symSize: 0x70 }
  - { offsetInCU: 0x1CC02, offset: 0x11CB05, size: 0x8, addend: 0x0, symName: __ZNSt3__1neB8ue170006INS_16reverse_iteratorIPNS_6vectorIdNS_9allocatorIdEEEEEES7_EEbRKNS1_IT_EERKNS1_IT0_EE, symObjAddr: 0x39414, symBinAddr: 0x1000A88C0, symSize: 0x2CC }
  - { offsetInCU: 0x1CC50, offset: 0x11CB53, size: 0x8, addend: 0x0, symName: __ZNSt3__112__to_addressB8ue170006INS_16reverse_iteratorINS1_IPNS_6vectorIdNS_9allocatorIdEEEEEEEEvEEu7__decayIDTclsr19__to_address_helperIT_EE6__callclsr3stdE7declvalIRKS9_EEEEESB_, symObjAddr: 0x3970C, symBinAddr: 0x1000A8BB8, symSize: 0x24 }
  - { offsetInCU: 0x1CCB0, offset: 0x11CBB3, size: 0x8, addend: 0x0, symName: __ZNSt3__130__uninitialized_allocator_copyB8ue170006INS_9allocatorINS_12basic_stringIcNS_11char_traitsIcEENS1_IcEEEEEEPS6_S8_S8_EET2_RT_T0_T1_S9_, symObjAddr: 0x3D2E0, symBinAddr: 0x1000ABBF8, symSize: 0x2DC }
  - { offsetInCU: 0x1D47B, offset: 0x11D37E, size: 0x8, addend: 0x0, symName: _.str.22, symObjAddr: 0x3F8E0, symBinAddr: 0x1000B5B80, symSize: 0x0 }
  - { offsetInCU: 0x1D48D, offset: 0x11D390, size: 0x8, addend: 0x0, symName: _.str.23, symObjAddr: 0x3F940, symBinAddr: 0x1000B5BE0, symSize: 0x0 }
  - { offsetInCU: 0x1D49F, offset: 0x11D3A2, size: 0x8, addend: 0x0, symName: _.str.24, symObjAddr: 0x3F9A0, symBinAddr: 0x1000B5C40, symSize: 0x0 }
  - { offsetInCU: 0x1D4B1, offset: 0x11D3B4, size: 0x8, addend: 0x0, symName: _.str.25, symObjAddr: 0x3FA00, symBinAddr: 0x1000B5CA0, symSize: 0x0 }
  - { offsetInCU: 0x1D4C3, offset: 0x11D3C6, size: 0x8, addend: 0x0, symName: _.str.26, symObjAddr: 0x3FA60, symBinAddr: 0x1000B5D00, symSize: 0x0 }
  - { offsetInCU: 0x1D4D5, offset: 0x11D3D8, size: 0x8, addend: 0x0, symName: _.str.27, symObjAddr: 0x3FAC0, symBinAddr: 0x1000B5D60, symSize: 0x0 }
  - { offsetInCU: 0x1D4E7, offset: 0x11D3EA, size: 0x8, addend: 0x0, symName: _.str.28, symObjAddr: 0x3FB20, symBinAddr: 0x1000B5DC0, symSize: 0x0 }
  - { offsetInCU: 0x1D509, offset: 0x11D40C, size: 0x8, addend: 0x0, symName: _big_datasets, symObjAddr: 0x10EA60, symBinAddr: 0x1000E2E80, symSize: 0x0 }
  - { offsetInCU: 0x1D51C, offset: 0x11D41F, size: 0x8, addend: 0x0, symName: _.str.30, symObjAddr: 0x3FB80, symBinAddr: 0x1000B5E20, symSize: 0x0 }
  - { offsetInCU: 0x1D53F, offset: 0x11D442, size: 0x8, addend: 0x0, symName: __ZL12DATASET_PATH, symObjAddr: 0x10EAA0, symBinAddr: 0x1000E2EC0, symSize: 0x0 }
  - { offsetInCU: 0x1D55A, offset: 0x11D45D, size: 0x8, addend: 0x0, symName: _.str.31, symObjAddr: 0x3FBA0, symBinAddr: 0x1000B5E40, symSize: 0x0 }
  - { offsetInCU: 0x1D57C, offset: 0x11D47F, size: 0x8, addend: 0x0, symName: _PROFILER_OUT_PATH, symObjAddr: 0x3FE80, symBinAddr: 0x1000E0000, symSize: 0x0 }
  - { offsetInCU: 0x1D58F, offset: 0x11D492, size: 0x8, addend: 0x0, symName: _.str.33, symObjAddr: 0x3FBE0, symBinAddr: 0x1000B5E80, symSize: 0x0 }
  - { offsetInCU: 0x1D5B2, offset: 0x11D4B5, size: 0x8, addend: 0x0, symName: __ZL12CSV_OUT_PATH, symObjAddr: 0x10EAE0, symBinAddr: 0x1000E2F00, symSize: 0x0 }
  - { offsetInCU: 0x1D5C8, offset: 0x11D4CB, size: 0x8, addend: 0x0, symName: _.str.34, symObjAddr: 0x3FC00, symBinAddr: 0x1000B5EA0, symSize: 0x0 }
  - { offsetInCU: 0x1D5E6, offset: 0x11D4E9, size: 0x8, addend: 0x0, symName: _.str.35, symObjAddr: 0x3FC20, symBinAddr: 0x1000B5EC0, symSize: 0x0 }
  - { offsetInCU: 0x1D5F8, offset: 0x11D4FB, size: 0x8, addend: 0x0, symName: _.str.36, symObjAddr: 0x3FC60, symBinAddr: 0x1000B5F00, symSize: 0x0 }
  - { offsetInCU: 0x1D616, offset: 0x11D519, size: 0x8, addend: 0x0, symName: _.str.37, symObjAddr: 0x3FC80, symBinAddr: 0x1000B5F20, symSize: 0x0 }
  - { offsetInCU: 0x1D628, offset: 0x11D52B, size: 0x8, addend: 0x0, symName: _.str.38, symObjAddr: 0x3FCA0, symBinAddr: 0x1000B5F40, symSize: 0x0 }
  - { offsetInCU: 0x1D646, offset: 0x11D549, size: 0x8, addend: 0x0, symName: _.str.39, symObjAddr: 0x3FCE0, symBinAddr: 0x1000B5F80, symSize: 0x0 }
  - { offsetInCU: 0x1D658, offset: 0x11D55B, size: 0x8, addend: 0x0, symName: _.str.40, symObjAddr: 0x3FD20, symBinAddr: 0x1000B5FC0, symSize: 0x0 }
  - { offsetInCU: 0x1D66A, offset: 0x11D56D, size: 0x8, addend: 0x0, symName: _.str.41, symObjAddr: 0x3FD40, symBinAddr: 0x1000B5FE0, symSize: 0x0 }
  - { offsetInCU: 0x1D688, offset: 0x11D58B, size: 0x8, addend: 0x0, symName: _.str.42, symObjAddr: 0x3FD80, symBinAddr: 0x1000B6020, symSize: 0x0 }
  - { offsetInCU: 0x1D6A6, offset: 0x11D5A9, size: 0x8, addend: 0x0, symName: _.str.43, symObjAddr: 0x3FDA0, symBinAddr: 0x1000B6040, symSize: 0x0 }
  - { offsetInCU: 0x1D6C4, offset: 0x11D5C7, size: 0x8, addend: 0x0, symName: _.str.44, symObjAddr: 0x3FDC0, symBinAddr: 0x1000B6060, symSize: 0x0 }
  - { offsetInCU: 0x1D6E2, offset: 0x11D5E5, size: 0x8, addend: 0x0, symName: _.str.45, symObjAddr: 0x3FDE0, symBinAddr: 0x1000B6080, symSize: 0x0 }
  - { offsetInCU: 0x1D700, offset: 0x11D603, size: 0x8, addend: 0x0, symName: _.str.46, symObjAddr: 0x3FE00, symBinAddr: 0x1000B60A0, symSize: 0x0 }
  - { offsetInCU: 0x1D712, offset: 0x11D615, size: 0x8, addend: 0x0, symName: _.str.47, symObjAddr: 0x3FE20, symBinAddr: 0x1000B60C0, symSize: 0x0 }
  - { offsetInCU: 0x1D724, offset: 0x11D627, size: 0x8, addend: 0x0, symName: _.str.48, symObjAddr: 0x3FE40, symBinAddr: 0x1000B60E0, symSize: 0x0 }
  - { offsetInCU: 0x1DADF, offset: 0x11D9E2, size: 0x8, addend: 0x0, symName: __ZNSt3__16vectorINS_12basic_stringIcNS_11char_traitsIcEENS_9allocatorIcEEEENS4_IS6_EEE26__swap_out_circular_bufferERNS_14__split_bufferIS6_RS7_EEPS6_, symObjAddr: 0xAA38, symBinAddr: 0x10007F678, symSize: 0x678 }
  - { offsetInCU: 0x1E773, offset: 0x11E676, size: 0x8, addend: 0x0, symName: __ZNSt3__16vectorIP5GraphNS_9allocatorIS2_EEE26__swap_out_circular_bufferERNS_14__split_bufferIS2_RS4_EE, symObjAddr: 0x1BC88, symBinAddr: 0x10008D01C, symSize: 0x56C }
  - { offsetInCU: 0x1E7CC, offset: 0x11E6CF, size: 0x8, addend: 0x0, symName: __ZNSt3__16vectorImNS_9allocatorImEEE26__swap_out_circular_bufferERNS_14__split_bufferImRS2_EE, symObjAddr: 0x221F8, symBinAddr: 0x100092BE0, symSize: 0x56C }
  - { offsetInCU: 0x1E825, offset: 0x11E728, size: 0x8, addend: 0x0, symName: __ZNSt3__16vectorINS_12basic_stringIcNS_11char_traitsIcEENS_9allocatorIcEEEENS4_IS6_EEE26__swap_out_circular_bufferERNS_14__split_bufferIS6_RS7_EE, symObjAddr: 0x28B70, symBinAddr: 0x100098BC0, symSize: 0x56C }
  - { offsetInCU: 0x1E8BF, offset: 0x11E7C2, size: 0x8, addend: 0x0, symName: __ZNKSt3__16chrono15__duration_castINS0_8durationIxNS_5ratioILl1ELl1000000000EEEEENS2_IxNS3_ILl1ELl1000EEEEENS3_ILl1ELl1000000EEELb1ELb0EEclB8ue170006ERKS5_, symObjAddr: 0x29510, symBinAddr: 0x100099560, symSize: 0x29C }
  - { offsetInCU: 0x1EAE0, offset: 0x11E9E3, size: 0x8, addend: 0x0, symName: __ZNSt3__16vectorIdNS_9allocatorIdEEE26__swap_out_circular_bufferERNS_14__split_bufferIdRS2_EE, symObjAddr: 0x2BA28, symBinAddr: 0x10009AED4, symSize: 0x56C }
  - { offsetInCU: 0x1ECB0, offset: 0x11EBB3, size: 0x8, addend: 0x0, symName: __ZNSt3__16vectorINS0_IdNS_9allocatorIdEEEENS1_IS3_EEE26__swap_out_circular_bufferERNS_14__split_bufferIS3_RS4_EE, symObjAddr: 0x364B8, symBinAddr: 0x1000A5964, symSize: 0x56C }
  - { offsetInCU: 0x1EDD6, offset: 0x11ECD9, size: 0x8, addend: 0x0, symName: __ZNKSt3__16chrono15__duration_castINS0_8durationIxNS_5ratioILl1ELl1000000000EEEEENS2_IxNS3_ILl1ELl1EEEEES4_Lb1ELb0EEclB8ue170006ERKS5_, symObjAddr: 0x3AB74, symBinAddr: 0x1000A9AC8, symSize: 0x29C }
  - { offsetInCU: 0x20B71, offset: 0x120A74, size: 0x8, addend: 0x0, symName: __ZNSt3__16vectorINS_12basic_stringIcNS_11char_traitsIcEENS_9allocatorIcEEEENS4_IS6_EEEC1B8ue170006ESt16initializer_listIS6_E, symObjAddr: 0x34, symBinAddr: 0x1000756C0, symSize: 0x248 }
  - { offsetInCU: 0x20BB1, offset: 0x120AB4, size: 0x8, addend: 0x0, symName: __ZNSt3__16vectorINS_12basic_stringIcNS_11char_traitsIcEENS_9allocatorIcEEEENS4_IS6_EEED1B8ue170006Ev, symObjAddr: 0x27C, symBinAddr: 0x100075908, symSize: 0x2C }
  - { offsetInCU: 0x20BDB, offset: 0x120ADE, size: 0x8, addend: 0x0, symName: _main, symObjAddr: 0x2A8, symBinAddr: 0x100075934, symSize: 0x57C }
  - { offsetInCU: 0x20BF6, offset: 0x120AF9, size: 0x8, addend: 0x0, symName: __ZNSt3__16vectorINS_12basic_stringIcNS_11char_traitsIcEENS_9allocatorIcEEEENS4_IS6_EEE6insertINS_11__wrap_iterIPS6_EELi0EEESC_NSA_IPKS6_EET_SG_, symObjAddr: 0x824, symBinAddr: 0x100075EB0, symSize: 0x54C }
  - { offsetInCU: 0x20C68, offset: 0x120B6B, size: 0x8, addend: 0x0, symName: __ZNSt3__16vectorINS_12basic_stringIcNS_11char_traitsIcEENS_9allocatorIcEEEENS4_IS6_EEE3endB8ue170006Ev, symObjAddr: 0xD70, symBinAddr: 0x1000763FC, symSize: 0x26C }
  - { offsetInCU: 0x20C9B, offset: 0x120B9E, size: 0x8, addend: 0x0, symName: __ZNSt3__111__wrap_iterIPKNS_12basic_stringIcNS_11char_traitsIcEENS_9allocatorIcEEEEEC1B8ue170006IPS6_EERKNS0_IT_EEPNS_9enable_ifIXsr14is_convertibleISC_S8_EE5valueEvE4typeE, symObjAddr: 0xFDC, symBinAddr: 0x100076668, symSize: 0x3C }
  - { offsetInCU: 0x20CE6, offset: 0x120BE9, size: 0x8, addend: 0x0, symName: __ZNSt3__16vectorINS_12basic_stringIcNS_11char_traitsIcEENS_9allocatorIcEEEENS4_IS6_EEE5beginB8ue170006Ev, symObjAddr: 0x1018, symBinAddr: 0x1000766A4, symSize: 0x268 }
  - { offsetInCU: 0x20D0E, offset: 0x120C11, size: 0x8, addend: 0x0, symName: __Z19csv_on_all_repeatedIJ8ECC_QEC17ECC_REDEEvNSt3__16vectorINS2_12basic_stringIcNS2_11char_traitsIcEENS2_9allocatorIcEEEENS7_IS9_EEEES9_m, symObjAddr: 0x1280, symBinAddr: 0x10007690C, symSize: 0x11A8 }
  - { offsetInCU: 0x20F0C, offset: 0x120E0F, size: 0x8, addend: 0x0, symName: __ZNSt3__16vectorINS_12basic_stringIcNS_11char_traitsIcEENS_9allocatorIcEEEENS4_IS6_EEEC1ERKS8_, symObjAddr: 0x2428, symBinAddr: 0x100077AB4, symSize: 0x34 }
  - { offsetInCU: 0x20F47, offset: 0x120E4A, size: 0x8, addend: 0x0, symName: __ZNSt3__111__wrap_iterIPKNS_12basic_stringIcNS_11char_traitsIcEENS_9allocatorIcEEEEEC2B8ue170006IPS6_EERKNS0_IT_EEPNS_9enable_ifIXsr14is_convertibleISC_S8_EE5valueEvE4typeE, symObjAddr: 0x245C, symBinAddr: 0x100077AE8, symSize: 0x84 }
  - { offsetInCU: 0x20F92, offset: 0x120E95, size: 0x8, addend: 0x0, symName: __ZNKSt3__111__wrap_iterIPNS_12basic_stringIcNS_11char_traitsIcEENS_9allocatorIcEEEEE4baseB8ue170006Ev, symObjAddr: 0x24E0, symBinAddr: 0x100077B6C, symSize: 0x60 }
  - { offsetInCU: 0x20FBD, offset: 0x120EC0, size: 0x8, addend: 0x0, symName: __ZNSt3__16vectorINS_12basic_stringIcNS_11char_traitsIcEENS_9allocatorIcEEEENS4_IS6_EEEC2B8ue170006ESt16initializer_listIS6_E, symObjAddr: 0x28B8, symBinAddr: 0x100077BCC, symSize: 0x528 }
  - { offsetInCU: 0x2101B, offset: 0x120F1E, size: 0x8, addend: 0x0, symName: __ZNSt3__117__compressed_pairIPNS_12basic_stringIcNS_11char_traitsIcEENS_9allocatorIcEEEENS4_IS6_EEEC1B8ue170006IDnNS_18__default_init_tagEEEOT_OT0_, symObjAddr: 0x2DE0, symBinAddr: 0x1000780F4, symSize: 0x3C }
  - { offsetInCU: 0x21073, offset: 0x120F76, size: 0x8, addend: 0x0, symName: __ZNSt3__16vectorINS_12basic_stringIcNS_11char_traitsIcEENS_9allocatorIcEEEENS4_IS6_EEE16__destroy_vectorC1B8ue170006ERS8_, symObjAddr: 0x3094, symBinAddr: 0x1000783A8, symSize: 0x34 }
  - { offsetInCU: 0x210AC, offset: 0x120FAF, size: 0x8, addend: 0x0, symName: __ZNKSt16initializer_listINSt3__112basic_stringIcNS0_11char_traitsIcEENS0_9allocatorIcEEEEE4sizeB8ue170006Ev, symObjAddr: 0x30C8, symBinAddr: 0x1000783DC, symSize: 0x64 }
  - { offsetInCU: 0x210D2, offset: 0x120FD5, size: 0x8, addend: 0x0, symName: __ZNSt3__16vectorINS_12basic_stringIcNS_11char_traitsIcEENS_9allocatorIcEEEENS4_IS6_EEE11__vallocateB8ue170006Em, symObjAddr: 0x312C, symBinAddr: 0x100078440, symSize: 0x428 }
  - { offsetInCU: 0x2111C, offset: 0x12101F, size: 0x8, addend: 0x0, symName: __ZNSt3__16vectorINS_12basic_stringIcNS_11char_traitsIcEENS_9allocatorIcEEEENS4_IS6_EEE18__construct_at_endIPKS6_SB_EEvT_T0_m, symObjAddr: 0x3554, symBinAddr: 0x100078868, symSize: 0x380 }
  - { offsetInCU: 0x2119A, offset: 0x12109D, size: 0x8, addend: 0x0, symName: __ZNKSt16initializer_listINSt3__112basic_stringIcNS0_11char_traitsIcEENS0_9allocatorIcEEEEE5beginB8ue170006Ev, symObjAddr: 0x38D4, symBinAddr: 0x100078BE8, symSize: 0x60 }
  - { offsetInCU: 0x211C0, offset: 0x1210C3, size: 0x8, addend: 0x0, symName: __ZNKSt16initializer_listINSt3__112basic_stringIcNS0_11char_traitsIcEENS0_9allocatorIcEEEEE3endB8ue170006Ev, symObjAddr: 0x3934, symBinAddr: 0x100078C48, symSize: 0xB0 }
  - { offsetInCU: 0x211E6, offset: 0x1210E9, size: 0x8, addend: 0x0, symName: __ZNSt3__128__exception_guard_exceptionsINS_6vectorINS_12basic_stringIcNS_11char_traitsIcEENS_9allocatorIcEEEENS5_IS7_EEE16__destroy_vectorEE10__completeB8ue170006Ev, symObjAddr: 0x39E4, symBinAddr: 0x100078CF8, symSize: 0x8C }
  - { offsetInCU: 0x2120C, offset: 0x12110F, size: 0x8, addend: 0x0, symName: __ZNSt3__128__exception_guard_exceptionsINS_6vectorINS_12basic_stringIcNS_11char_traitsIcEENS_9allocatorIcEEEENS5_IS7_EEE16__destroy_vectorEED1B8ue170006Ev, symObjAddr: 0x3A70, symBinAddr: 0x100078D84, symSize: 0x2C }
  - { offsetInCU: 0x21236, offset: 0x121139, size: 0x8, addend: 0x0, symName: __ZNSt3__117__compressed_pairIPNS_12basic_stringIcNS_11char_traitsIcEENS_9allocatorIcEEEENS4_IS6_EEEC2B8ue170006IDnNS_18__default_init_tagEEEOT_OT0_, symObjAddr: 0x3A9C, symBinAddr: 0x100078DB0, symSize: 0x40 }
  - { offsetInCU: 0x2128E, offset: 0x121191, size: 0x8, addend: 0x0, symName: __ZNSt3__122__compressed_pair_elemIPNS_12basic_stringIcNS_11char_traitsIcEENS_9allocatorIcEEEELi0ELb0EEC2B8ue170006IDnvEEOT_, symObjAddr: 0x3ADC, symBinAddr: 0x100078DF0, symSize: 0x64 }
  - { offsetInCU: 0x212D0, offset: 0x1211D3, size: 0x8, addend: 0x0, symName: __ZNSt3__122__compressed_pair_elemINS_9allocatorINS_12basic_stringIcNS_11char_traitsIcEENS1_IcEEEEEELi1ELb1EEC2B8ue170006ENS_18__default_init_tagE, symObjAddr: 0x3B40, symBinAddr: 0x100078E54, symSize: 0x2C }
  - { offsetInCU: 0x21304, offset: 0x121207, size: 0x8, addend: 0x0, symName: __ZNSt3__19allocatorINS_12basic_stringIcNS_11char_traitsIcEENS0_IcEEEEEC2B8ue170006Ev, symObjAddr: 0x3B6C, symBinAddr: 0x100078E80, symSize: 0x2C }
  - { offsetInCU: 0x2132E, offset: 0x121231, size: 0x8, addend: 0x0, symName: __ZNSt3__116__non_trivial_ifILb1ENS_9allocatorINS_12basic_stringIcNS_11char_traitsIcEENS1_IcEEEEEEEC2B8ue170006Ev, symObjAddr: 0x3B98, symBinAddr: 0x100078EAC, symSize: 0x14 }
  - { offsetInCU: 0x21358, offset: 0x12125B, size: 0x8, addend: 0x0, symName: __ZNSt3__128__exception_guard_exceptionsINS_6vectorINS_12basic_stringIcNS_11char_traitsIcEENS_9allocatorIcEEEENS5_IS7_EEE16__destroy_vectorEEC1B8ue170006ESA_, symObjAddr: 0x3BAC, symBinAddr: 0x100078EC0, symSize: 0x238 }
  - { offsetInCU: 0x21395, offset: 0x121298, size: 0x8, addend: 0x0, symName: __ZNSt3__128__exception_guard_exceptionsINS_6vectorINS_12basic_stringIcNS_11char_traitsIcEENS_9allocatorIcEEEENS5_IS7_EEE16__destroy_vectorEEC2B8ue170006ESA_, symObjAddr: 0x3DE4, symBinAddr: 0x1000790F8, symSize: 0x264 }
  - { offsetInCU: 0x213D2, offset: 0x1212D5, size: 0x8, addend: 0x0, symName: __ZNSt3__16vectorINS_12basic_stringIcNS_11char_traitsIcEENS_9allocatorIcEEEENS4_IS6_EEE16__destroy_vectorC2B8ue170006ERS8_, symObjAddr: 0x4048, symBinAddr: 0x10007935C, symSize: 0x70 }
  - { offsetInCU: 0x2140B, offset: 0x12130E, size: 0x8, addend: 0x0, symName: __ZNKSt3__16vectorINS_12basic_stringIcNS_11char_traitsIcEENS_9allocatorIcEEEENS4_IS6_EEE8max_sizeEv, symObjAddr: 0x40B8, symBinAddr: 0x1000793CC, symSize: 0x2FC }
  - { offsetInCU: 0x21434, offset: 0x121337, size: 0x8, addend: 0x0, symName: __ZNKSt3__16vectorINS_12basic_stringIcNS_11char_traitsIcEENS_9allocatorIcEEEENS4_IS6_EEE20__throw_length_errorB8ue170006Ev, symObjAddr: 0x43B4, symBinAddr: 0x1000796C8, symSize: 0x20 }
  - { offsetInCU: 0x2145A, offset: 0x12135D, size: 0x8, addend: 0x0, symName: __ZNSt3__16vectorINS_12basic_stringIcNS_11char_traitsIcEENS_9allocatorIcEEEENS4_IS6_EEE7__allocB8ue170006Ev, symObjAddr: 0x4660, symBinAddr: 0x100079974, symSize: 0x28 }
  - { offsetInCU: 0x21480, offset: 0x121383, size: 0x8, addend: 0x0, symName: __ZNSt3__16vectorINS_12basic_stringIcNS_11char_traitsIcEENS_9allocatorIcEEEENS4_IS6_EEE9__end_capB8ue170006Ev, symObjAddr: 0x4688, symBinAddr: 0x10007999C, symSize: 0x28 }
  - { offsetInCU: 0x214A6, offset: 0x1213A9, size: 0x8, addend: 0x0, symName: __ZNKSt3__16vectorINS_12basic_stringIcNS_11char_traitsIcEENS_9allocatorIcEEEENS4_IS6_EEE14__annotate_newB8ue170006Em, symObjAddr: 0x46B0, symBinAddr: 0x1000799C4, symSize: 0xDC }
  - { offsetInCU: 0x214E5, offset: 0x1213E8, size: 0x8, addend: 0x0, symName: __ZNSt3__116allocator_traitsINS_9allocatorINS_12basic_stringIcNS_11char_traitsIcEENS1_IcEEEEEEE8max_sizeB8ue170006IS7_vEEmRKS7_, symObjAddr: 0x47B8, symBinAddr: 0x100079AA0, symSize: 0x24 }
  - { offsetInCU: 0x21513, offset: 0x121416, size: 0x8, addend: 0x0, symName: __ZNKSt3__16vectorINS_12basic_stringIcNS_11char_traitsIcEENS_9allocatorIcEEEENS4_IS6_EEE7__allocB8ue170006Ev, symObjAddr: 0x47DC, symBinAddr: 0x100079AC4, symSize: 0x28 }
  - { offsetInCU: 0x21539, offset: 0x12143C, size: 0x8, addend: 0x0, symName: __ZNKSt3__19allocatorINS_12basic_stringIcNS_11char_traitsIcEENS0_IcEEEEE8max_sizeB8ue170006Ev, symObjAddr: 0x4ABC, symBinAddr: 0x100079AEC, symSize: 0x18 }
  - { offsetInCU: 0x2155F, offset: 0x121462, size: 0x8, addend: 0x0, symName: __ZNKSt3__117__compressed_pairIPNS_12basic_stringIcNS_11char_traitsIcEENS_9allocatorIcEEEENS4_IS6_EEE6secondB8ue170006Ev, symObjAddr: 0x4AD4, symBinAddr: 0x100079B04, symSize: 0x24 }
  - { offsetInCU: 0x21585, offset: 0x121488, size: 0x8, addend: 0x0, symName: __ZNKSt3__122__compressed_pair_elemINS_9allocatorINS_12basic_stringIcNS_11char_traitsIcEENS1_IcEEEEEELi1ELb1EE5__getB8ue170006Ev, symObjAddr: 0x4AF8, symBinAddr: 0x100079B28, symSize: 0x14 }
  - { offsetInCU: 0x215AB, offset: 0x1214AE, size: 0x8, addend: 0x0, symName: __ZNSt3__19allocatorINS_12basic_stringIcNS_11char_traitsIcEENS0_IcEEEEE8allocateB8ue170006Em, symObjAddr: 0x4C3C, symBinAddr: 0x100079B3C, symSize: 0x60 }
  - { offsetInCU: 0x215DF, offset: 0x1214E2, size: 0x8, addend: 0x0, symName: __ZNSt3__117__compressed_pairIPNS_12basic_stringIcNS_11char_traitsIcEENS_9allocatorIcEEEENS4_IS6_EEE6secondB8ue170006Ev, symObjAddr: 0x4DA4, symBinAddr: 0x100079B9C, symSize: 0x24 }
  - { offsetInCU: 0x21605, offset: 0x121508, size: 0x8, addend: 0x0, symName: __ZNSt3__122__compressed_pair_elemINS_9allocatorINS_12basic_stringIcNS_11char_traitsIcEENS1_IcEEEEEELi1ELb1EE5__getB8ue170006Ev, symObjAddr: 0x4DC8, symBinAddr: 0x100079BC0, symSize: 0x14 }
  - { offsetInCU: 0x2162B, offset: 0x12152E, size: 0x8, addend: 0x0, symName: __ZNSt3__117__compressed_pairIPNS_12basic_stringIcNS_11char_traitsIcEENS_9allocatorIcEEEENS4_IS6_EEE5firstB8ue170006Ev, symObjAddr: 0x4DDC, symBinAddr: 0x100079BD4, symSize: 0x24 }
  - { offsetInCU: 0x21651, offset: 0x121554, size: 0x8, addend: 0x0, symName: __ZNSt3__122__compressed_pair_elemIPNS_12basic_stringIcNS_11char_traitsIcEENS_9allocatorIcEEEELi0ELb0EE5__getB8ue170006Ev, symObjAddr: 0x4E00, symBinAddr: 0x100079BF8, symSize: 0x14 }
  - { offsetInCU: 0x21677, offset: 0x12157A, size: 0x8, addend: 0x0, symName: __ZNKSt3__16vectorINS_12basic_stringIcNS_11char_traitsIcEENS_9allocatorIcEEEENS4_IS6_EEE31__annotate_contiguous_containerEPKvSA_SA_SA_, symObjAddr: 0x4E14, symBinAddr: 0x100079C0C, symSize: 0x58 }
  - { offsetInCU: 0x216D9, offset: 0x1215DC, size: 0x8, addend: 0x0, symName: __ZNKSt3__16vectorINS_12basic_stringIcNS_11char_traitsIcEENS_9allocatorIcEEEENS4_IS6_EEE4dataB8ue170006Ev, symObjAddr: 0x4E6C, symBinAddr: 0x100079C64, symSize: 0x64 }
  - { offsetInCU: 0x216FF, offset: 0x121602, size: 0x8, addend: 0x0, symName: __ZNKSt3__16vectorINS_12basic_stringIcNS_11char_traitsIcEENS_9allocatorIcEEEENS4_IS6_EEE8capacityB8ue170006Ev, symObjAddr: 0x4ED0, symBinAddr: 0x100079CC8, symSize: 0xBC }
  - { offsetInCU: 0x21725, offset: 0x121628, size: 0x8, addend: 0x0, symName: __ZNKSt3__16vectorINS_12basic_stringIcNS_11char_traitsIcEENS_9allocatorIcEEEENS4_IS6_EEE9__end_capB8ue170006Ev, symObjAddr: 0x4FA0, symBinAddr: 0x100079D98, symSize: 0x28 }
  - { offsetInCU: 0x2174B, offset: 0x12164E, size: 0x8, addend: 0x0, symName: __ZNKSt3__117__compressed_pairIPNS_12basic_stringIcNS_11char_traitsIcEENS_9allocatorIcEEEENS4_IS6_EEE5firstB8ue170006Ev, symObjAddr: 0x4FC8, symBinAddr: 0x100079DC0, symSize: 0x24 }
  - { offsetInCU: 0x21771, offset: 0x121674, size: 0x8, addend: 0x0, symName: __ZNKSt3__122__compressed_pair_elemIPNS_12basic_stringIcNS_11char_traitsIcEENS_9allocatorIcEEEELi0ELb0EE5__getB8ue170006Ev, symObjAddr: 0x4FEC, symBinAddr: 0x100079DE4, symSize: 0x14 }
  - { offsetInCU: 0x217B0, offset: 0x1216B3, size: 0x8, addend: 0x0, symName: __ZNSt3__16vectorINS_12basic_stringIcNS_11char_traitsIcEENS_9allocatorIcEEEENS4_IS6_EEE21_ConstructTransactionC1B8ue170006ERS8_m, symObjAddr: 0x5000, symBinAddr: 0x100079DF8, symSize: 0x3C }
  - { offsetInCU: 0x217F8, offset: 0x1216FB, size: 0x8, addend: 0x0, symName: __ZNSt3__16vectorINS_12basic_stringIcNS_11char_traitsIcEENS_9allocatorIcEEEENS4_IS6_EEE21_ConstructTransactionD1B8ue170006Ev, symObjAddr: 0x5318, symBinAddr: 0x10007A110, symSize: 0x2C }
  - { offsetInCU: 0x21822, offset: 0x121725, size: 0x8, addend: 0x0, symName: __ZNSt3__16vectorINS_12basic_stringIcNS_11char_traitsIcEENS_9allocatorIcEEEENS4_IS6_EEE21_ConstructTransactionC2B8ue170006ERS8_m, symObjAddr: 0x5344, symBinAddr: 0x10007A13C, symSize: 0x1D8 }
  - { offsetInCU: 0x2186A, offset: 0x12176D, size: 0x8, addend: 0x0, symName: __ZNKSt3__16vectorINS_12basic_stringIcNS_11char_traitsIcEENS_9allocatorIcEEEENS4_IS6_EEE19__annotate_increaseB8ue170006Em, symObjAddr: 0x551C, symBinAddr: 0x10007A314, symSize: 0xF8 }
  - { offsetInCU: 0x218BD, offset: 0x1217C0, size: 0x8, addend: 0x0, symName: __ZNSt3__14pairIPKNS_12basic_stringIcNS_11char_traitsIcEENS_9allocatorIcEEEES8_EC1B8ue170006IS8_S8_LPv0EEEOT_OT0_, symObjAddr: 0x61D0, symBinAddr: 0x10007AF18, symSize: 0x3C }
  - { offsetInCU: 0x2191B, offset: 0x12181E, size: 0x8, addend: 0x0, symName: __ZNSt3__14pairIPKNS_12basic_stringIcNS_11char_traitsIcEENS_9allocatorIcEEEES8_EC2B8ue170006IS8_S8_LPv0EEEOT_OT0_, symObjAddr: 0x620C, symBinAddr: 0x10007AF54, symSize: 0x138 }
  - { offsetInCU: 0x21979, offset: 0x12187C, size: 0x8, addend: 0x0, symName: __ZNSt3__118__unwrap_iter_implIPKNS_12basic_stringIcNS_11char_traitsIcEENS_9allocatorIcEEEELb1EE8__unwrapB8ue170006ES8_, symObjAddr: 0x6344, symBinAddr: 0x10007B08C, symSize: 0x24 }
  - { offsetInCU: 0x2199C, offset: 0x12189F, size: 0x8, addend: 0x0, symName: __ZNSt3__129_AllocatorDestroyRangeReverseINS_9allocatorINS_12basic_stringIcNS_11char_traitsIcEENS1_IcEEEEEEPS6_EC1B8ue170006ERS7_RS8_SB_, symObjAddr: 0x6574, symBinAddr: 0x10007B2BC, symSize: 0x44 }
  - { offsetInCU: 0x219F3, offset: 0x1218F6, size: 0x8, addend: 0x0, symName: __ZNSt3__116allocator_traitsINS_9allocatorINS_12basic_stringIcNS_11char_traitsIcEENS1_IcEEEEEEE9constructB8ue170006IS6_JRKS6_EvEEvRS7_PT_DpOT0_, symObjAddr: 0x65B8, symBinAddr: 0x10007B300, symSize: 0x34 }
  - { offsetInCU: 0x21A4A, offset: 0x12194D, size: 0x8, addend: 0x0, symName: __ZNSt3__128__exception_guard_exceptionsINS_29_AllocatorDestroyRangeReverseINS_9allocatorINS_12basic_stringIcNS_11char_traitsIcEENS2_IcEEEEEEPS7_EEE10__completeB8ue170006Ev, symObjAddr: 0x65EC, symBinAddr: 0x10007B334, symSize: 0x8C }
  - { offsetInCU: 0x21A70, offset: 0x121973, size: 0x8, addend: 0x0, symName: __ZNSt3__128__exception_guard_exceptionsINS_29_AllocatorDestroyRangeReverseINS_9allocatorINS_12basic_stringIcNS_11char_traitsIcEENS2_IcEEEEEEPS7_EEED1B8ue170006Ev, symObjAddr: 0x6678, symBinAddr: 0x10007B3C0, symSize: 0x2C }
  - { offsetInCU: 0x21A9A, offset: 0x12199D, size: 0x8, addend: 0x0, symName: __ZNSt3__128__exception_guard_exceptionsINS_29_AllocatorDestroyRangeReverseINS_9allocatorINS_12basic_stringIcNS_11char_traitsIcEENS2_IcEEEEEEPS7_EEEC1B8ue170006ESA_, symObjAddr: 0x66A4, symBinAddr: 0x10007B3EC, symSize: 0x34 }
  - { offsetInCU: 0x21AD3, offset: 0x1219D6, size: 0x8, addend: 0x0, symName: __ZNSt3__128__exception_guard_exceptionsINS_29_AllocatorDestroyRangeReverseINS_9allocatorINS_12basic_stringIcNS_11char_traitsIcEENS2_IcEEEEEEPS7_EEEC2B8ue170006ESA_, symObjAddr: 0x66D8, symBinAddr: 0x10007B420, symSize: 0xA4 }
  - { offsetInCU: 0x21B0C, offset: 0x121A0F, size: 0x8, addend: 0x0, symName: __ZNSt3__129_AllocatorDestroyRangeReverseINS_9allocatorINS_12basic_stringIcNS_11char_traitsIcEENS1_IcEEEEEEPS6_EC2B8ue170006ERS7_RS8_SB_, symObjAddr: 0x677C, symBinAddr: 0x10007B4C4, symSize: 0x104 }
  - { offsetInCU: 0x21B63, offset: 0x121A66, size: 0x8, addend: 0x0, symName: __ZNSt3__19allocatorINS_12basic_stringIcNS_11char_traitsIcEENS0_IcEEEEE9constructB8ue170006IS5_JRKS5_EEEvPT_DpOT0_, symObjAddr: 0x6880, symBinAddr: 0x10007B5C8, symSize: 0x30 }
  - { offsetInCU: 0x21BB9, offset: 0x121ABC, size: 0x8, addend: 0x0, symName: __ZNSt3__128__exception_guard_exceptionsINS_29_AllocatorDestroyRangeReverseINS_9allocatorINS_12basic_stringIcNS_11char_traitsIcEENS2_IcEEEEEEPS7_EEED2B8ue170006Ev, symObjAddr: 0x68B0, symBinAddr: 0x10007B5F8, symSize: 0xBC }
  - { offsetInCU: 0x21BE3, offset: 0x121AE6, size: 0x8, addend: 0x0, symName: __ZNKSt3__129_AllocatorDestroyRangeReverseINS_9allocatorINS_12basic_stringIcNS_11char_traitsIcEENS1_IcEEEEEEPS6_EclB8ue170006Ev, symObjAddr: 0x696C, symBinAddr: 0x10007B6B4, symSize: 0x39C }
  - { offsetInCU: 0x21C0A, offset: 0x121B0D, size: 0x8, addend: 0x0, symName: __ZNSt3__116reverse_iteratorIPNS_12basic_stringIcNS_11char_traitsIcEENS_9allocatorIcEEEEEC1B8ue170006ES7_, symObjAddr: 0x6FC0, symBinAddr: 0x10007BD08, symSize: 0x34 }
  - { offsetInCU: 0x21C42, offset: 0x121B45, size: 0x8, addend: 0x0, symName: __ZNSt3__116allocator_traitsINS_9allocatorINS_12basic_stringIcNS_11char_traitsIcEENS1_IcEEEEEEE7destroyB8ue170006IS6_vEEvRS7_PT_, symObjAddr: 0x703C, symBinAddr: 0x10007BD84, symSize: 0x2C }
  - { offsetInCU: 0x21C7F, offset: 0x121B82, size: 0x8, addend: 0x0, symName: __ZNSt3__116reverse_iteratorIPNS_12basic_stringIcNS_11char_traitsIcEENS_9allocatorIcEEEEEppB8ue170006Ev, symObjAddr: 0x708C, symBinAddr: 0x10007BDD4, symSize: 0x6C }
  - { offsetInCU: 0x21CA5, offset: 0x121BA8, size: 0x8, addend: 0x0, symName: __ZNKSt3__116reverse_iteratorIPNS_12basic_stringIcNS_11char_traitsIcEENS_9allocatorIcEEEEE4baseB8ue170006Ev, symObjAddr: 0x70F8, symBinAddr: 0x10007BE40, symSize: 0x64 }
  - { offsetInCU: 0x21CCB, offset: 0x121BCE, size: 0x8, addend: 0x0, symName: __ZNSt3__19allocatorINS_12basic_stringIcNS_11char_traitsIcEENS0_IcEEEEE7destroyB8ue170006EPS5_, symObjAddr: 0x715C, symBinAddr: 0x10007BEA4, symSize: 0x28 }
  - { offsetInCU: 0x21D04, offset: 0x121C07, size: 0x8, addend: 0x0, symName: __ZNSt3__119__to_address_helperINS_16reverse_iteratorIPNS_12basic_stringIcNS_11char_traitsIcEENS_9allocatorIcEEEEEEvE6__callB8ue170006ERKS9_, symObjAddr: 0x7184, symBinAddr: 0x10007BECC, symSize: 0x44 }
  - { offsetInCU: 0x21D27, offset: 0x121C2A, size: 0x8, addend: 0x0, symName: __ZNKSt3__116reverse_iteratorIPNS_12basic_stringIcNS_11char_traitsIcEENS_9allocatorIcEEEEEptB8ue170006Ev, symObjAddr: 0x71C8, symBinAddr: 0x10007BF10, symSize: 0x24 }
  - { offsetInCU: 0x21D4D, offset: 0x121C50, size: 0x8, addend: 0x0, symName: __ZNKSt3__116reverse_iteratorIPNS_12basic_stringIcNS_11char_traitsIcEENS_9allocatorIcEEEEEdeB8ue170006Ev, symObjAddr: 0x71EC, symBinAddr: 0x10007BF34, symSize: 0x74 }
  - { offsetInCU: 0x21D81, offset: 0x121C84, size: 0x8, addend: 0x0, symName: __ZNSt3__116reverse_iteratorIPNS_12basic_stringIcNS_11char_traitsIcEENS_9allocatorIcEEEEEC2B8ue170006ES7_, symObjAddr: 0x7260, symBinAddr: 0x10007BFA8, symSize: 0xB8 }
  - { offsetInCU: 0x21DB9, offset: 0x121CBC, size: 0x8, addend: 0x0, symName: __ZNSt3__118__unwrap_iter_implIPNS_12basic_stringIcNS_11char_traitsIcEENS_9allocatorIcEEEELb1EE8__unwrapB8ue170006ES7_, symObjAddr: 0x7318, symBinAddr: 0x10007C060, symSize: 0x24 }
  - { offsetInCU: 0x21DDC, offset: 0x121CDF, size: 0x8, addend: 0x0, symName: __ZNSt3__118__unwrap_iter_implIPNS_12basic_stringIcNS_11char_traitsIcEENS_9allocatorIcEEEELb1EE8__rewrapB8ue170006ES7_S7_, symObjAddr: 0x733C, symBinAddr: 0x10007C084, symSize: 0x58 }
  - { offsetInCU: 0x21E0D, offset: 0x121D10, size: 0x8, addend: 0x0, symName: __ZNSt3__16vectorINS_12basic_stringIcNS_11char_traitsIcEENS_9allocatorIcEEEENS4_IS6_EEE21_ConstructTransactionD2B8ue170006Ev, symObjAddr: 0x7394, symBinAddr: 0x10007C0DC, symSize: 0x278 }
  - { offsetInCU: 0x21E37, offset: 0x121D3A, size: 0x8, addend: 0x0, symName: __ZNKSt3__16vectorINS_12basic_stringIcNS_11char_traitsIcEENS_9allocatorIcEEEENS4_IS6_EEE17__annotate_shrinkB8ue170006Em, symObjAddr: 0x760C, symBinAddr: 0x10007C354, symSize: 0xE4 }
  - { offsetInCU: 0x21E6C, offset: 0x121D6F, size: 0x8, addend: 0x0, symName: __ZNSt3__128__exception_guard_exceptionsINS_6vectorINS_12basic_stringIcNS_11char_traitsIcEENS_9allocatorIcEEEENS5_IS7_EEE16__destroy_vectorEED2B8ue170006Ev, symObjAddr: 0x76F0, symBinAddr: 0x10007C438, symSize: 0xBC }
  - { offsetInCU: 0x21E96, offset: 0x121D99, size: 0x8, addend: 0x0, symName: __ZNSt3__16vectorINS_12basic_stringIcNS_11char_traitsIcEENS_9allocatorIcEEEENS4_IS6_EEE16__destroy_vectorclB8ue170006Ev, symObjAddr: 0x77AC, symBinAddr: 0x10007C4F4, symSize: 0x228 }
  - { offsetInCU: 0x21EBC, offset: 0x121DBF, size: 0x8, addend: 0x0, symName: __ZNSt3__16vectorINS_12basic_stringIcNS_11char_traitsIcEENS_9allocatorIcEEEENS4_IS6_EEE7__clearB8ue170006Ev, symObjAddr: 0x79D4, symBinAddr: 0x10007C71C, symSize: 0x64 }
  - { offsetInCU: 0x21EE2, offset: 0x121DE5, size: 0x8, addend: 0x0, symName: __ZNKSt3__16vectorINS_12basic_stringIcNS_11char_traitsIcEENS_9allocatorIcEEEENS4_IS6_EEE17__annotate_deleteB8ue170006Ev, symObjAddr: 0x7A38, symBinAddr: 0x10007C780, symSize: 0xE8 }
  - { offsetInCU: 0x21F08, offset: 0x121E0B, size: 0x8, addend: 0x0, symName: __ZNSt3__116allocator_traitsINS_9allocatorINS_12basic_stringIcNS_11char_traitsIcEENS1_IcEEEEEEE10deallocateB8ue170006ERS7_PS6_m, symObjAddr: 0x7B20, symBinAddr: 0x10007C868, symSize: 0x34 }
  - { offsetInCU: 0x21F4A, offset: 0x121E4D, size: 0x8, addend: 0x0, symName: __ZNSt3__16vectorINS_12basic_stringIcNS_11char_traitsIcEENS_9allocatorIcEEEENS4_IS6_EEE22__base_destruct_at_endB8ue170006EPS6_, symObjAddr: 0x7B54, symBinAddr: 0x10007C89C, symSize: 0x114 }
  - { offsetInCU: 0x21F8E, offset: 0x121E91, size: 0x8, addend: 0x0, symName: __ZNSt3__19allocatorINS_12basic_stringIcNS_11char_traitsIcEENS0_IcEEEEE10deallocateB8ue170006EPS5_m, symObjAddr: 0x7C68, symBinAddr: 0x10007C9B0, symSize: 0x50 }
  - { offsetInCU: 0x21FD0, offset: 0x121ED3, size: 0x8, addend: 0x0, symName: __ZNSt3__16vectorINS_12basic_stringIcNS_11char_traitsIcEENS_9allocatorIcEEEENS4_IS6_EEED2B8ue170006Ev, symObjAddr: 0x7DC0, symBinAddr: 0x10007CA00, symSize: 0x1F4 }
  - { offsetInCU: 0x21FFB, offset: 0x121EFE, size: 0x8, addend: 0x0, symName: __ZNSt3__16vectorINS_12basic_stringIcNS_11char_traitsIcEENS_9allocatorIcEEEENS4_IS6_EEE11__make_iterB8ue170006EPS6_, symObjAddr: 0x7FB4, symBinAddr: 0x10007CBF4, symSize: 0x1FC }
  - { offsetInCU: 0x22032, offset: 0x121F35, size: 0x8, addend: 0x0, symName: __ZNSt3__111__wrap_iterIPNS_12basic_stringIcNS_11char_traitsIcEENS_9allocatorIcEEEEEC1B8ue170006ES7_, symObjAddr: 0x81B0, symBinAddr: 0x10007CDF0, symSize: 0x34 }
  - { offsetInCU: 0x2206A, offset: 0x121F6D, size: 0x8, addend: 0x0, symName: __ZNSt3__111__wrap_iterIPNS_12basic_stringIcNS_11char_traitsIcEENS_9allocatorIcEEEEEC2B8ue170006ES7_, symObjAddr: 0x81E4, symBinAddr: 0x10007CE24, symSize: 0x70 }
  - { offsetInCU: 0x220A2, offset: 0x121FA5, size: 0x8, addend: 0x0, symName: __ZNSt3__16vectorINS_12basic_stringIcNS_11char_traitsIcEENS_9allocatorIcEEEENS4_IS6_EEE18__insert_with_sizeB8ue170006INS_11__wrap_iterIPS6_EESC_EESC_NSA_IPKS6_EET_T0_l, symObjAddr: 0x8254, symBinAddr: 0x10007CE94, symSize: 0xB7C }
  - { offsetInCU: 0x221D9, offset: 0x1220DC, size: 0x8, addend: 0x0, symName: __ZNSt3__16vectorINS_12basic_stringIcNS_11char_traitsIcEENS_9allocatorIcEEEENS4_IS6_EEE18__construct_at_endINS_11__wrap_iterIPS6_EESC_EEvT_T0_m, symObjAddr: 0x9428, symBinAddr: 0x10007E068, symSize: 0x548 }
  - { offsetInCU: 0x2225D, offset: 0x122160, size: 0x8, addend: 0x0, symName: __ZNSt3__16vectorINS_12basic_stringIcNS_11char_traitsIcEENS_9allocatorIcEEEENS4_IS6_EEE12__move_rangeEPS6_S9_S9_, symObjAddr: 0x9970, symBinAddr: 0x10007E5B0, symSize: 0x460 }
  - { offsetInCU: 0x22325, offset: 0x122228, size: 0x8, addend: 0x0, symName: __ZNKSt3__16vectorINS_12basic_stringIcNS_11char_traitsIcEENS_9allocatorIcEEEENS4_IS6_EEE11__recommendB8ue170006Em, symObjAddr: 0xA1F8, symBinAddr: 0x10007EE38, symSize: 0x384 }
  - { offsetInCU: 0x22381, offset: 0x122284, size: 0x8, addend: 0x0, symName: __ZNSt3__114__split_bufferINS_12basic_stringIcNS_11char_traitsIcEENS_9allocatorIcEEEERNS4_IS6_EEEC1EmmS8_, symObjAddr: 0xA57C, symBinAddr: 0x10007F1BC, symSize: 0x44 }
  - { offsetInCU: 0x223D7, offset: 0x1222DA, size: 0x8, addend: 0x0, symName: __ZNSt3__114__split_bufferINS_12basic_stringIcNS_11char_traitsIcEENS_9allocatorIcEEEERNS4_IS6_EEE28__construct_at_end_with_sizeINS_11__wrap_iterIPS6_EEEEvT_m, symObjAddr: 0xA5C0, symBinAddr: 0x10007F200, symSize: 0x478 }
  - { offsetInCU: 0x2243D, offset: 0x122340, size: 0x8, addend: 0x0, symName: __ZNSt3__114__split_bufferINS_12basic_stringIcNS_11char_traitsIcEENS_9allocatorIcEEEERNS4_IS6_EEED1Ev, symObjAddr: 0xB0B0, symBinAddr: 0x10007FCF0, symSize: 0x2C }
  - { offsetInCU: 0x22469, offset: 0x12236C, size: 0x8, addend: 0x0, symName: __ZNSt3__111__wrap_iterIPNS_12basic_stringIcNS_11char_traitsIcEENS_9allocatorIcEEEEEpLB8ue170006El, symObjAddr: 0xB17C, symBinAddr: 0x10007FD48, symSize: 0x80 }
  - { offsetInCU: 0x224BB, offset: 0x1223BE, size: 0x8, addend: 0x0, symName: __ZNSt3__14pairIPNS_12basic_stringIcNS_11char_traitsIcEENS_9allocatorIcEEEES7_EC1B8ue170006IS7_S7_LPv0EEEOT_OT0_, symObjAddr: 0xC508, symBinAddr: 0x1000810D4, symSize: 0x3C }
  - { offsetInCU: 0x22519, offset: 0x12241C, size: 0x8, addend: 0x0, symName: __ZNSt3__14pairIPNS_12basic_stringIcNS_11char_traitsIcEENS_9allocatorIcEEEES7_EC2B8ue170006IS7_S7_LPv0EEEOT_OT0_, symObjAddr: 0xC544, symBinAddr: 0x100081110, symSize: 0x138 }
  - { offsetInCU: 0x22577, offset: 0x12247A, size: 0x8, addend: 0x0, symName: __ZNSt3__118__unwrap_iter_implINS_11__wrap_iterIPNS_12basic_stringIcNS_11char_traitsIcEENS_9allocatorIcEEEEEELb1EE8__unwrapB8ue170006ES9_, symObjAddr: 0xC67C, symBinAddr: 0x100081248, symSize: 0x1F0 }
  - { offsetInCU: 0x225A3, offset: 0x1224A6, size: 0x8, addend: 0x0, symName: __ZNSt3__119__to_address_helperINS_11__wrap_iterIPNS_12basic_stringIcNS_11char_traitsIcEENS_9allocatorIcEEEEEEvE6__callB8ue170006ERKS9_, symObjAddr: 0xC890, symBinAddr: 0x10008145C, symSize: 0x200 }
  - { offsetInCU: 0x225C7, offset: 0x1224CA, size: 0x8, addend: 0x0, symName: __ZNSt3__114pointer_traitsINS_11__wrap_iterIPNS_12basic_stringIcNS_11char_traitsIcEENS_9allocatorIcEEEEEEE10to_addressB8ue170006ES9_, symObjAddr: 0xCA90, symBinAddr: 0x10008165C, symSize: 0x1F4 }
  - { offsetInCU: 0x225EE, offset: 0x1224F1, size: 0x8, addend: 0x0, symName: __ZNSt3__116allocator_traitsINS_9allocatorINS_12basic_stringIcNS_11char_traitsIcEENS1_IcEEEEEEE9constructB8ue170006IS6_JRS6_EvEEvRS7_PT_DpOT0_, symObjAddr: 0xCC84, symBinAddr: 0x100081850, symSize: 0x34 }
  - { offsetInCU: 0x22645, offset: 0x122548, size: 0x8, addend: 0x0, symName: __ZNSt3__19allocatorINS_12basic_stringIcNS_11char_traitsIcEENS0_IcEEEEE9constructB8ue170006IS5_JRS5_EEEvPT_DpOT0_, symObjAddr: 0xCCB8, symBinAddr: 0x100081884, symSize: 0x30 }
  - { offsetInCU: 0x226A0, offset: 0x1225A3, size: 0x8, addend: 0x0, symName: __ZNSt3__116allocator_traitsINS_9allocatorINS_12basic_stringIcNS_11char_traitsIcEENS1_IcEEEEEEE9constructB8ue170006IS6_JS6_EvEEvRS7_PT_DpOT0_, symObjAddr: 0xCCE8, symBinAddr: 0x1000818B4, symSize: 0x34 }
  - { offsetInCU: 0x226F7, offset: 0x1225FA, size: 0x8, addend: 0x0, symName: __ZNSt3__19allocatorINS_12basic_stringIcNS_11char_traitsIcEENS0_IcEEEEE9constructB8ue170006IS5_JS5_EEEvPT_DpOT0_, symObjAddr: 0xCF88, symBinAddr: 0x100081B54, symSize: 0x30 }
  - { offsetInCU: 0x22757, offset: 0x12265A, size: 0x8, addend: 0x0, symName: __ZNKSt3__120__move_backward_loopINS_17_ClassicAlgPolicyEEclB8ue170006IPNS_12basic_stringIcNS_11char_traitsIcEENS_9allocatorIcEEEESA_SA_EENS_4pairIT_T1_EESC_T0_SD_, symObjAddr: 0xDFF0, symBinAddr: 0x1000828D0, symSize: 0x4F0 }
  - { offsetInCU: 0x227EE, offset: 0x1226F1, size: 0x8, addend: 0x0, symName: __ZNSt3__18_IterOpsINS_17_ClassicAlgPolicyEE4nextB8ue170006IPNS_12basic_stringIcNS_11char_traitsIcEENS_9allocatorIcEEEEEET_SB_SB_, symObjAddr: 0xE50C, symBinAddr: 0x100082DEC, symSize: 0x18 }
  - { offsetInCU: 0x22824, offset: 0x122727, size: 0x8, addend: 0x0, symName: __ZNSt3__18_IterOpsINS_17_ClassicAlgPolicyEE11__iter_moveB8ue170006IRPNS_12basic_stringIcNS_11char_traitsIcEENS_9allocatorIcEEEEEENS_9enable_ifIXsr12is_referenceIDTdeclsr3stdE7declvalIRT_EEEEE5valueEDTclsr3stdE4movedeclsr3stdE7declvalISE_EEEEE4typeEOSD_, symObjAddr: 0xE524, symBinAddr: 0x100082E04, symSize: 0x6C }
  - { offsetInCU: 0x22850, offset: 0x122753, size: 0x8, addend: 0x0, symName: __ZNSt3__112basic_stringIcNS_11char_traitsIcEENS_9allocatorIcEEEaSB8ue170006EOS5_, symObjAddr: 0xE590, symBinAddr: 0x100082E70, symSize: 0x34 }
  - { offsetInCU: 0x22885, offset: 0x122788, size: 0x8, addend: 0x0, symName: __ZNSt3__18_IterOpsINS_17_ClassicAlgPolicyEE25__validate_iter_referenceB8ue170006IRPNS_12basic_stringIcNS_11char_traitsIcEENS_9allocatorIcEEEEEEvv, symObjAddr: 0xE5C4, symBinAddr: 0x100082EA4, symSize: 0x4 }
  - { offsetInCU: 0x228A3, offset: 0x1227A6, size: 0x8, addend: 0x0, symName: __ZNSt3__112basic_stringIcNS_11char_traitsIcEENS_9allocatorIcEEE13__move_assignB8ue170006ERS5_NS_17integral_constantIbLb1EEE, symObjAddr: 0xE5C8, symBinAddr: 0x100082EA8, symSize: 0x2D0 }
  - { offsetInCU: 0x228E8, offset: 0x1227EB, size: 0x8, addend: 0x0, symName: __ZNSt3__116allocator_traitsINS_9allocatorIcEEE10deallocateB8ue170006ERS2_Pcm, symObjAddr: 0xE93C, symBinAddr: 0x100083178, symSize: 0x34 }
  - { offsetInCU: 0x2292A, offset: 0x12282D, size: 0x8, addend: 0x0, symName: __ZNSt3__112basic_stringIcNS_11char_traitsIcEENS_9allocatorIcEEE7__allocB8ue170006Ev, symObjAddr: 0xE970, symBinAddr: 0x1000831AC, symSize: 0x24 }
  - { offsetInCU: 0x22950, offset: 0x122853, size: 0x8, addend: 0x0, symName: __ZNKSt3__112basic_stringIcNS_11char_traitsIcEENS_9allocatorIcEEE14__get_long_capB8ue170006Ev, symObjAddr: 0xEA00, symBinAddr: 0x1000831D0, symSize: 0x78 }
  - { offsetInCU: 0x22976, offset: 0x122879, size: 0x8, addend: 0x0, symName: __ZNSt3__112basic_stringIcNS_11char_traitsIcEENS_9allocatorIcEEE19__move_assign_allocB8ue170006ERS5_, symObjAddr: 0xEA78, symBinAddr: 0x100083248, symSize: 0x2C }
  - { offsetInCU: 0x229AB, offset: 0x1228AE, size: 0x8, addend: 0x0, symName: __ZNSt3__19allocatorIcE10deallocateB8ue170006EPcm, symObjAddr: 0xED28, symBinAddr: 0x100083274, symSize: 0x4C }
  - { offsetInCU: 0x229ED, offset: 0x1228F0, size: 0x8, addend: 0x0, symName: __ZNSt3__117__compressed_pairINS_12basic_stringIcNS_11char_traitsIcEENS_9allocatorIcEEE5__repES5_E6secondB8ue170006Ev, symObjAddr: 0xED74, symBinAddr: 0x1000832C0, symSize: 0x24 }
  - { offsetInCU: 0x22A13, offset: 0x122916, size: 0x8, addend: 0x0, symName: __ZNSt3__122__compressed_pair_elemINS_9allocatorIcEELi1ELb1EE5__getB8ue170006Ev, symObjAddr: 0xED98, symBinAddr: 0x1000832E4, symSize: 0x14 }
  - { offsetInCU: 0x22A39, offset: 0x12293C, size: 0x8, addend: 0x0, symName: __ZNSt3__112basic_stringIcNS_11char_traitsIcEENS_9allocatorIcEEE19__move_assign_allocB8ue170006ERS5_NS_17integral_constantIbLb1EEE, symObjAddr: 0xEDAC, symBinAddr: 0x1000832F8, symSize: 0x38 }
  - { offsetInCU: 0x22A83, offset: 0x122986, size: 0x8, addend: 0x0, symName: __ZNKSt3__111__copy_loopINS_17_ClassicAlgPolicyEEclB8ue170006IPNS_12basic_stringIcNS_11char_traitsIcEENS_9allocatorIcEEEESA_SA_EENS_4pairIT_T1_EESC_T0_SD_, symObjAddr: 0xFD28, symBinAddr: 0x100084260, symSize: 0x458 }
  - { offsetInCU: 0x22B16, offset: 0x122A19, size: 0x8, addend: 0x0, symName: __ZNSt3__14pairINS_11__wrap_iterIPNS_12basic_stringIcNS_11char_traitsIcEENS_9allocatorIcEEEEEES8_EC1B8ue170006IS9_S8_LPv0EEEOT_OT0_, symObjAddr: 0x106B0, symBinAddr: 0x100084BE8, symSize: 0x3C }
  - { offsetInCU: 0x22B74, offset: 0x122A77, size: 0x8, addend: 0x0, symName: __ZNSt3__14pairINS_11__wrap_iterIPNS_12basic_stringIcNS_11char_traitsIcEENS_9allocatorIcEEEEEES8_EC2B8ue170006IS9_S8_LPv0EEEOT_OT0_, symObjAddr: 0x106EC, symBinAddr: 0x100084C24, symSize: 0xD0 }
  - { offsetInCU: 0x22BD2, offset: 0x122AD5, size: 0x8, addend: 0x0, symName: __ZNSt3__118__unwrap_iter_implINS_11__wrap_iterIPNS_12basic_stringIcNS_11char_traitsIcEENS_9allocatorIcEEEEEELb1EE8__rewrapB8ue170006ES9_S8_, symObjAddr: 0x10AF4, symBinAddr: 0x10008502C, symSize: 0x2D4 }
  - { offsetInCU: 0x22C08, offset: 0x122B0B, size: 0x8, addend: 0x0, symName: __ZNKSt3__111__wrap_iterIPNS_12basic_stringIcNS_11char_traitsIcEENS_9allocatorIcEEEEEplB8ue170006El, symObjAddr: 0x10DC8, symBinAddr: 0x100085300, symSize: 0x20C }
  - { offsetInCU: 0x22C50, offset: 0x122B53, size: 0x8, addend: 0x0, symName: __ZNSt3__114__split_bufferINS_12basic_stringIcNS_11char_traitsIcEENS_9allocatorIcEEEERNS4_IS6_EEEC2EmmS8_, symObjAddr: 0x111E8, symBinAddr: 0x10008550C, symSize: 0x530 }
  - { offsetInCU: 0x22CCB, offset: 0x122BCE, size: 0x8, addend: 0x0, symName: __ZNSt3__117__compressed_pairIPNS_12basic_stringIcNS_11char_traitsIcEENS_9allocatorIcEEEERNS4_IS6_EEEC1B8ue170006IDnS9_EEOT_OT0_, symObjAddr: 0x11718, symBinAddr: 0x100085A3C, symSize: 0x3C }
  - { offsetInCU: 0x22D23, offset: 0x122C26, size: 0x8, addend: 0x0, symName: __ZNSt3__114__split_bufferINS_12basic_stringIcNS_11char_traitsIcEENS_9allocatorIcEEEERNS4_IS6_EEE7__allocB8ue170006Ev, symObjAddr: 0x11754, symBinAddr: 0x100085A78, symSize: 0x28 }
  - { offsetInCU: 0x22D49, offset: 0x122C4C, size: 0x8, addend: 0x0, symName: __ZNSt3__114__split_bufferINS_12basic_stringIcNS_11char_traitsIcEENS_9allocatorIcEEEERNS4_IS6_EEE9__end_capB8ue170006Ev, symObjAddr: 0x1177C, symBinAddr: 0x100085AA0, symSize: 0x28 }
  - { offsetInCU: 0x22D6F, offset: 0x122C72, size: 0x8, addend: 0x0, symName: __ZNSt3__117__compressed_pairIPNS_12basic_stringIcNS_11char_traitsIcEENS_9allocatorIcEEEERNS4_IS6_EEEC2B8ue170006IDnS9_EEOT_OT0_, symObjAddr: 0x117A4, symBinAddr: 0x100085AC8, symSize: 0x48 }
  - { offsetInCU: 0x22DC7, offset: 0x122CCA, size: 0x8, addend: 0x0, symName: __ZNSt3__122__compressed_pair_elemIRNS_9allocatorINS_12basic_stringIcNS_11char_traitsIcEENS1_IcEEEEEELi1ELb0EEC2B8ue170006IS8_vEEOT_, symObjAddr: 0x117EC, symBinAddr: 0x100085B10, symSize: 0x70 }
  - { offsetInCU: 0x22E09, offset: 0x122D0C, size: 0x8, addend: 0x0, symName: __ZNSt3__117__compressed_pairIPNS_12basic_stringIcNS_11char_traitsIcEENS_9allocatorIcEEEERNS4_IS6_EEE6secondB8ue170006Ev, symObjAddr: 0x1185C, symBinAddr: 0x100085B80, symSize: 0x28 }
  - { offsetInCU: 0x22E2F, offset: 0x122D32, size: 0x8, addend: 0x0, symName: __ZNSt3__122__compressed_pair_elemIRNS_9allocatorINS_12basic_stringIcNS_11char_traitsIcEENS1_IcEEEEEELi1ELb0EE5__getB8ue170006Ev, symObjAddr: 0x11884, symBinAddr: 0x100085BA8, symSize: 0x60 }
  - { offsetInCU: 0x22E55, offset: 0x122D58, size: 0x8, addend: 0x0, symName: __ZNSt3__117__compressed_pairIPNS_12basic_stringIcNS_11char_traitsIcEENS_9allocatorIcEEEERNS4_IS6_EEE5firstB8ue170006Ev, symObjAddr: 0x118E4, symBinAddr: 0x100085C08, symSize: 0x24 }
  - { offsetInCU: 0x22E85, offset: 0x122D88, size: 0x8, addend: 0x0, symName: __ZNSt3__114__split_bufferINS_12basic_stringIcNS_11char_traitsIcEENS_9allocatorIcEEEERNS4_IS6_EEE21_ConstructTransactionC1B8ue170006EPPS6_m, symObjAddr: 0x11908, symBinAddr: 0x100085C2C, symSize: 0x3C }
  - { offsetInCU: 0x22ECB, offset: 0x122DCE, size: 0x8, addend: 0x0, symName: __ZNKSt3__111__wrap_iterIPNS_12basic_stringIcNS_11char_traitsIcEENS_9allocatorIcEEEEEdeB8ue170006Ev, symObjAddr: 0x11944, symBinAddr: 0x100085C68, symSize: 0x60 }
  - { offsetInCU: 0x22EF1, offset: 0x122DF4, size: 0x8, addend: 0x0, symName: __ZNSt3__111__wrap_iterIPNS_12basic_stringIcNS_11char_traitsIcEENS_9allocatorIcEEEEEppB8ue170006Ev, symObjAddr: 0x119A4, symBinAddr: 0x100085CC8, symSize: 0x68 }
  - { offsetInCU: 0x22F17, offset: 0x122E1A, size: 0x8, addend: 0x0, symName: __ZNSt3__114__split_bufferINS_12basic_stringIcNS_11char_traitsIcEENS_9allocatorIcEEEERNS4_IS6_EEE21_ConstructTransactionD1B8ue170006Ev, symObjAddr: 0x11A0C, symBinAddr: 0x100085D30, symSize: 0x2C }
  - { offsetInCU: 0x22F41, offset: 0x122E44, size: 0x8, addend: 0x0, symName: __ZNSt3__114__split_bufferINS_12basic_stringIcNS_11char_traitsIcEENS_9allocatorIcEEEERNS4_IS6_EEE21_ConstructTransactionC2B8ue170006EPPS6_m, symObjAddr: 0x11A38, symBinAddr: 0x100085D5C, symSize: 0x18C }
  - { offsetInCU: 0x22F87, offset: 0x122E8A, size: 0x8, addend: 0x0, symName: __ZNSt3__114__split_bufferINS_12basic_stringIcNS_11char_traitsIcEENS_9allocatorIcEEEERNS4_IS6_EEE21_ConstructTransactionD2B8ue170006Ev, symObjAddr: 0x11BC4, symBinAddr: 0x100085EE8, symSize: 0xE0 }
  - { offsetInCU: 0x22FB1, offset: 0x122EB4, size: 0x8, addend: 0x0, symName: __ZNSt3__129_AllocatorDestroyRangeReverseINS_9allocatorINS_12basic_stringIcNS_11char_traitsIcEENS1_IcEEEEEENS_16reverse_iteratorIPS6_EEEC1B8ue170006ERS7_RSA_SD_, symObjAddr: 0x12A24, symBinAddr: 0x100086D48, symSize: 0x44 }
  - { offsetInCU: 0x23008, offset: 0x122F0B, size: 0x8, addend: 0x0, symName: __ZNSt3__128__exception_guard_exceptionsINS_29_AllocatorDestroyRangeReverseINS_9allocatorINS_12basic_stringIcNS_11char_traitsIcEENS2_IcEEEEEENS_16reverse_iteratorIPS7_EEEEE10__completeB8ue170006Ev, symObjAddr: 0x12A68, symBinAddr: 0x100086D8C, symSize: 0x8C }
  - { offsetInCU: 0x2302E, offset: 0x122F31, size: 0x8, addend: 0x0, symName: __ZNSt3__128__exception_guard_exceptionsINS_29_AllocatorDestroyRangeReverseINS_9allocatorINS_12basic_stringIcNS_11char_traitsIcEENS2_IcEEEEEENS_16reverse_iteratorIPS7_EEEEED1B8ue170006Ev, symObjAddr: 0x12AF4, symBinAddr: 0x100086E18, symSize: 0x2C }
  - { offsetInCU: 0x23058, offset: 0x122F5B, size: 0x8, addend: 0x0, symName: __ZNSt3__128__exception_guard_exceptionsINS_29_AllocatorDestroyRangeReverseINS_9allocatorINS_12basic_stringIcNS_11char_traitsIcEENS2_IcEEEEEENS_16reverse_iteratorIPS7_EEEEEC1B8ue170006ESC_, symObjAddr: 0x12B20, symBinAddr: 0x100086E44, symSize: 0x34 }
  - { offsetInCU: 0x23091, offset: 0x122F94, size: 0x8, addend: 0x0, symName: __ZNSt3__128__exception_guard_exceptionsINS_29_AllocatorDestroyRangeReverseINS_9allocatorINS_12basic_stringIcNS_11char_traitsIcEENS2_IcEEEEEENS_16reverse_iteratorIPS7_EEEEEC2B8ue170006ESC_, symObjAddr: 0x12B54, symBinAddr: 0x100086E78, symSize: 0xA4 }
  - { offsetInCU: 0x230CA, offset: 0x122FCD, size: 0x8, addend: 0x0, symName: __ZNSt3__129_AllocatorDestroyRangeReverseINS_9allocatorINS_12basic_stringIcNS_11char_traitsIcEENS1_IcEEEEEENS_16reverse_iteratorIPS6_EEEC2B8ue170006ERS7_RSA_SD_, symObjAddr: 0x12BF8, symBinAddr: 0x100086F1C, symSize: 0x104 }
  - { offsetInCU: 0x23121, offset: 0x123024, size: 0x8, addend: 0x0, symName: __ZNSt3__128__exception_guard_exceptionsINS_29_AllocatorDestroyRangeReverseINS_9allocatorINS_12basic_stringIcNS_11char_traitsIcEENS2_IcEEEEEENS_16reverse_iteratorIPS7_EEEEED2B8ue170006Ev, symObjAddr: 0x12CFC, symBinAddr: 0x100087020, symSize: 0xBC }
  - { offsetInCU: 0x2314B, offset: 0x12304E, size: 0x8, addend: 0x0, symName: __ZNKSt3__129_AllocatorDestroyRangeReverseINS_9allocatorINS_12basic_stringIcNS_11char_traitsIcEENS1_IcEEEEEENS_16reverse_iteratorIPS6_EEEclB8ue170006Ev, symObjAddr: 0x12DB8, symBinAddr: 0x1000870DC, symSize: 0x3A8 }
  - { offsetInCU: 0x23172, offset: 0x123075, size: 0x8, addend: 0x0, symName: __ZNSt3__116reverse_iteratorINS0_IPNS_12basic_stringIcNS_11char_traitsIcEENS_9allocatorIcEEEEEEEC1B8ue170006ES8_, symObjAddr: 0x131D0, symBinAddr: 0x1000874F4, symSize: 0x248 }
  - { offsetInCU: 0x231AF, offset: 0x1230B2, size: 0x8, addend: 0x0, symName: __ZNSt3__116reverse_iteratorINS0_IPNS_12basic_stringIcNS_11char_traitsIcEENS_9allocatorIcEEEEEEEppB8ue170006Ev, symObjAddr: 0x13708, symBinAddr: 0x100087A2C, symSize: 0x30 }
  - { offsetInCU: 0x231D5, offset: 0x1230D8, size: 0x8, addend: 0x0, symName: __ZNKSt3__116reverse_iteratorINS0_IPNS_12basic_stringIcNS_11char_traitsIcEENS_9allocatorIcEEEEEEE4baseB8ue170006Ev, symObjAddr: 0x13738, symBinAddr: 0x100087A5C, symSize: 0x20C }
  - { offsetInCU: 0x23201, offset: 0x123104, size: 0x8, addend: 0x0, symName: __ZNSt3__119__to_address_helperINS_16reverse_iteratorINS1_IPNS_12basic_stringIcNS_11char_traitsIcEENS_9allocatorIcEEEEEEEEvE6__callB8ue170006ERKSA_, symObjAddr: 0x13944, symBinAddr: 0x100087C68, symSize: 0x44 }
  - { offsetInCU: 0x23224, offset: 0x123127, size: 0x8, addend: 0x0, symName: __ZNKSt3__116reverse_iteratorINS0_IPNS_12basic_stringIcNS_11char_traitsIcEENS_9allocatorIcEEEEEEEptB8ue170006Ev, symObjAddr: 0x13988, symBinAddr: 0x100087CAC, symSize: 0x24 }
  - { offsetInCU: 0x2324A, offset: 0x12314D, size: 0x8, addend: 0x0, symName: __ZNKSt3__116reverse_iteratorINS0_IPNS_12basic_stringIcNS_11char_traitsIcEENS_9allocatorIcEEEEEEEdeB8ue170006Ev, symObjAddr: 0x139AC, symBinAddr: 0x100087CD0, symSize: 0x1EC }
  - { offsetInCU: 0x23283, offset: 0x123186, size: 0x8, addend: 0x0, symName: __ZNSt3__116reverse_iteratorIPNS_12basic_stringIcNS_11char_traitsIcEENS_9allocatorIcEEEEEmmB8ue170006Ev, symObjAddr: 0x13B98, symBinAddr: 0x100087EBC, symSize: 0x6C }
  - { offsetInCU: 0x232A9, offset: 0x1231AC, size: 0x8, addend: 0x0, symName: __ZNSt3__116reverse_iteratorINS0_IPNS_12basic_stringIcNS_11char_traitsIcEENS_9allocatorIcEEEEEEEC2B8ue170006ES8_, symObjAddr: 0x13C04, symBinAddr: 0x100087F28, symSize: 0x22C }
  - { offsetInCU: 0x232E6, offset: 0x1231E9, size: 0x8, addend: 0x0, symName: __ZNSt3__114__split_bufferINS_12basic_stringIcNS_11char_traitsIcEENS_9allocatorIcEEEERNS4_IS6_EEED2Ev, symObjAddr: 0x13E30, symBinAddr: 0x100088154, symSize: 0x104 }
  - { offsetInCU: 0x23312, offset: 0x123215, size: 0x8, addend: 0x0, symName: __ZNSt3__114__split_bufferINS_12basic_stringIcNS_11char_traitsIcEENS_9allocatorIcEEEERNS4_IS6_EEE5clearB8ue170006Ev, symObjAddr: 0x13F34, symBinAddr: 0x100088258, symSize: 0x68 }
  - { offsetInCU: 0x23338, offset: 0x12323B, size: 0x8, addend: 0x0, symName: __ZNKSt3__114__split_bufferINS_12basic_stringIcNS_11char_traitsIcEENS_9allocatorIcEEEERNS4_IS6_EEE8capacityB8ue170006Ev, symObjAddr: 0x13F9C, symBinAddr: 0x1000882C0, symSize: 0xBC }
  - { offsetInCU: 0x2335E, offset: 0x123261, size: 0x8, addend: 0x0, symName: __ZNSt3__114__split_bufferINS_12basic_stringIcNS_11char_traitsIcEENS_9allocatorIcEEEERNS4_IS6_EEE17__destruct_at_endB8ue170006EPS6_, symObjAddr: 0x14058, symBinAddr: 0x10008837C, symSize: 0x2C }
  - { offsetInCU: 0x23392, offset: 0x123295, size: 0x8, addend: 0x0, symName: __ZNSt3__114__split_bufferINS_12basic_stringIcNS_11char_traitsIcEENS_9allocatorIcEEEERNS4_IS6_EEE17__destruct_at_endB8ue170006EPS6_NS_17integral_constantIbLb0EEE, symObjAddr: 0x14084, symBinAddr: 0x1000883A8, symSize: 0x10C }
  - { offsetInCU: 0x233D2, offset: 0x1232D5, size: 0x8, addend: 0x0, symName: __ZNKSt3__114__split_bufferINS_12basic_stringIcNS_11char_traitsIcEENS_9allocatorIcEEEERNS4_IS6_EEE9__end_capB8ue170006Ev, symObjAddr: 0x14190, symBinAddr: 0x1000884B4, symSize: 0x28 }
  - { offsetInCU: 0x233F8, offset: 0x1232FB, size: 0x8, addend: 0x0, symName: __ZNKSt3__117__compressed_pairIPNS_12basic_stringIcNS_11char_traitsIcEENS_9allocatorIcEEEERNS4_IS6_EEE5firstB8ue170006Ev, symObjAddr: 0x141B8, symBinAddr: 0x1000884DC, symSize: 0x24 }
  - { offsetInCU: 0x2341E, offset: 0x123321, size: 0x8, addend: 0x0, symName: __ZNSt3__16vectorIP5GraphNS_9allocatorIS2_EEEC1B8ue170006Ev, symObjAddr: 0x145E0, symBinAddr: 0x1000887BC, symSize: 0x2C }
  - { offsetInCU: 0x23448, offset: 0x12334B, size: 0x8, addend: 0x0, symName: __ZNSt3__16vectorIP5GraphNS_9allocatorIS2_EEE9push_backB8ue170006ERKS2_, symObjAddr: 0x14BEC, symBinAddr: 0x1000887E8, symSize: 0xE0 }
  - { offsetInCU: 0x2347F, offset: 0x123382, size: 0x8, addend: 0x0, symName: __ZNSt3__16vectorImNS_9allocatorImEEE9push_backB8ue170006EOm, symObjAddr: 0x14CCC, symBinAddr: 0x1000888C8, symSize: 0xE0 }
  - { offsetInCU: 0x234B6, offset: 0x1233B9, size: 0x8, addend: 0x0, symName: __ZNSt3__16vectorIP5GraphNS_9allocatorIS2_EEEixB8ue170006Em, symObjAddr: 0x14DAC, symBinAddr: 0x1000889A8, symSize: 0x6C }
  - { offsetInCU: 0x234ED, offset: 0x1233F0, size: 0x8, addend: 0x0, symName: __ZNKSt3__16vectorIP5GraphNS_9allocatorIS2_EEE4sizeB8ue170006Ev, symObjAddr: 0x14E18, symBinAddr: 0x100088A14, symSize: 0xB0 }
  - { offsetInCU: 0x23513, offset: 0x123416, size: 0x8, addend: 0x0, symName: __ZNSt3__16vectorIP5GraphNS_9allocatorIS2_EEE5beginB8ue170006Ev, symObjAddr: 0x15090, symBinAddr: 0x100088AC4, symSize: 0x268 }
  - { offsetInCU: 0x2353C, offset: 0x12343F, size: 0x8, addend: 0x0, symName: __ZNSt3__16vectorIP5GraphNS_9allocatorIS2_EEE3endB8ue170006Ev, symObjAddr: 0x152F8, symBinAddr: 0x100088D2C, symSize: 0x26C }
  - { offsetInCU: 0x23565, offset: 0x123468, size: 0x8, addend: 0x0, symName: __ZNKSt3__111__wrap_iterIPP5GraphEdeB8ue170006Ev, symObjAddr: 0x15598, symBinAddr: 0x100088FCC, symSize: 0x60 }
  - { offsetInCU: 0x2358B, offset: 0x12348E, size: 0x8, addend: 0x0, symName: __ZNSt3__111__wrap_iterIPP5GraphEppB8ue170006Ev, symObjAddr: 0x155F8, symBinAddr: 0x10008902C, symSize: 0x68 }
  - { offsetInCU: 0x235B1, offset: 0x1234B4, size: 0x8, addend: 0x0, symName: __ZNSt3__16vectorINS_12basic_stringIcNS_11char_traitsIcEENS_9allocatorIcEEEENS4_IS6_EEEC1B8ue170006Ev, symObjAddr: 0x15660, symBinAddr: 0x100089094, symSize: 0x2C }
  - { offsetInCU: 0x235DB, offset: 0x1234DE, size: 0x8, addend: 0x0, symName: __ZNSt3__16vectorINS0_IdNS_9allocatorIdEEEENS1_IS3_EEEC1B8ue170006Ev, symObjAddr: 0x1568C, symBinAddr: 0x1000890C0, symSize: 0x2C }
  - { offsetInCU: 0x23604, offset: 0x123507, size: 0x8, addend: 0x0, symName: __Z21get_csv_data_repeatedI8ECC_QEC1EvRKNSt3__16vectorINS1_12basic_stringIcNS1_11char_traitsIcEENS1_9allocatorIcEEEENS6_IS8_EEEERNS2_INS2_IdNS6_IdEEEENS6_ISE_EEEESH_SH_SH_RSA_m, symObjAddr: 0x156B8, symBinAddr: 0x1000890EC, symSize: 0xFE4 }
  - { offsetInCU: 0x23832, offset: 0x123735, size: 0x8, addend: 0x0, symName: __Z21get_csv_data_repeatedI7ECC_REDEvRKNSt3__16vectorINS1_12basic_stringIcNS1_11char_traitsIcEENS1_9allocatorIcEEEENS6_IS8_EEEERNS2_INS2_IdNS6_IdEEEENS6_ISE_EEEESH_SH_SH_RSA_m, symObjAddr: 0x1669C, symBinAddr: 0x10008A0D0, symSize: 0xFD4 }
  - { offsetInCU: 0x23A61, offset: 0x123964, size: 0x8, addend: 0x0, symName: __ZNKSt3__16chrono8durationIxNS_5ratioILl1ELl1EEEE5countB8ue170006Ev, symObjAddr: 0x17C24, symBinAddr: 0x10008B658, symSize: 0x60 }
  - { offsetInCU: 0x23A87, offset: 0x12398A, size: 0x8, addend: 0x0, symName: __ZNSt3__16vectorINS0_IdNS_9allocatorIdEEEENS1_IS3_EEED1B8ue170006Ev, symObjAddr: 0x17C84, symBinAddr: 0x10008B6B8, symSize: 0x2C }
  - { offsetInCU: 0x23AB1, offset: 0x1239B4, size: 0x8, addend: 0x0, symName: __ZNSt3__16vectorIP5GraphNS_9allocatorIS2_EEED1B8ue170006Ev, symObjAddr: 0x17CDC, symBinAddr: 0x10008B6E4, symSize: 0x2C }
  - { offsetInCU: 0x23ADB, offset: 0x1239DE, size: 0x8, addend: 0x0, symName: __ZNSt3__16vectorIP5GraphNS_9allocatorIS2_EEEC2B8ue170006Ev, symObjAddr: 0x199C4, symBinAddr: 0x10008B710, symSize: 0x2E8 }
  - { offsetInCU: 0x23B06, offset: 0x123A09, size: 0x8, addend: 0x0, symName: __ZNSt3__117__compressed_pairIPP5GraphNS_9allocatorIS2_EEEC1B8ue170006IDnNS_18__default_init_tagEEEOT_OT0_, symObjAddr: 0x19CAC, symBinAddr: 0x10008B9F8, symSize: 0x3C }
  - { offsetInCU: 0x23B5E, offset: 0x123A61, size: 0x8, addend: 0x0, symName: __ZNSt3__117__compressed_pairIPP5GraphNS_9allocatorIS2_EEEC2B8ue170006IDnNS_18__default_init_tagEEEOT_OT0_, symObjAddr: 0x19CE8, symBinAddr: 0x10008BA34, symSize: 0x40 }
  - { offsetInCU: 0x23BB6, offset: 0x123AB9, size: 0x8, addend: 0x0, symName: __ZNSt3__122__compressed_pair_elemIPP5GraphLi0ELb0EEC2B8ue170006IDnvEEOT_, symObjAddr: 0x19D28, symBinAddr: 0x10008BA74, symSize: 0x64 }
  - { offsetInCU: 0x23BF8, offset: 0x123AFB, size: 0x8, addend: 0x0, symName: __ZNSt3__122__compressed_pair_elemINS_9allocatorIP5GraphEELi1ELb1EEC2B8ue170006ENS_18__default_init_tagE, symObjAddr: 0x19D8C, symBinAddr: 0x10008BAD8, symSize: 0x2C }
  - { offsetInCU: 0x23C2C, offset: 0x123B2F, size: 0x8, addend: 0x0, symName: __ZNSt3__19allocatorIP5GraphEC2B8ue170006Ev, symObjAddr: 0x19DB8, symBinAddr: 0x10008BB04, symSize: 0x2C }
  - { offsetInCU: 0x23C56, offset: 0x123B59, size: 0x8, addend: 0x0, symName: __ZNSt3__116__non_trivial_ifILb1ENS_9allocatorIP5GraphEEEC2B8ue170006Ev, symObjAddr: 0x19DE4, symBinAddr: 0x10008BB30, symSize: 0x14 }
  - { offsetInCU: 0x23C80, offset: 0x123B83, size: 0x8, addend: 0x0, symName: __ZNSt3__16vectorIP5GraphNS_9allocatorIS2_EEE9__end_capB8ue170006Ev, symObjAddr: 0x1A7B0, symBinAddr: 0x10008BB44, symSize: 0x28 }
